ARM GAS  C:\Users\ADMINI~1\AppData\Local\Temp\ccNBSjfd.s 			page 1


   1              		.cpu cortex-m4
   2              		.arch armv7e-m
   3              		.fpu fpv4-sp-d16
   4              		.eabi_attribute 27, 1
   5              		.eabi_attribute 28, 1
   6              		.eabi_attribute 20, 1
   7              		.eabi_attribute 21, 1
   8              		.eabi_attribute 23, 3
   9              		.eabi_attribute 24, 1
  10              		.eabi_attribute 25, 1
  11              		.eabi_attribute 26, 1
  12              		.eabi_attribute 30, 1
  13              		.eabi_attribute 34, 1
  14              		.eabi_attribute 18, 4
  15              		.file	"usart.c"
  16              		.text
  17              	.Ltext0:
  18              		.cfi_sections	.debug_frame
  19              		.section	.text.MX_UART4_Init,"ax",%progbits
  20              		.align	1
  21              		.global	MX_UART4_Init
  22              		.syntax unified
  23              		.thumb
  24              		.thumb_func
  26              	MX_UART4_Init:
  27              	.LFB130:
  28              		.file 1 "Src/usart.c"
   1:Src/usart.c   **** /* USER CODE BEGIN Header */
   2:Src/usart.c   **** /**
   3:Src/usart.c   ****   ******************************************************************************
   4:Src/usart.c   ****   * @file    usart.c
   5:Src/usart.c   ****   * @brief   This file provides code for the configuration
   6:Src/usart.c   ****   *          of the USART instances.
   7:Src/usart.c   ****   ******************************************************************************
   8:Src/usart.c   ****   * @attention
   9:Src/usart.c   ****   *
  10:Src/usart.c   ****   * Copyright (c) 2022 STMicroelectronics.
  11:Src/usart.c   ****   * All rights reserved.
  12:Src/usart.c   ****   *
  13:Src/usart.c   ****   * This software is licensed under terms that can be found in the LICENSE file
  14:Src/usart.c   ****   * in the root directory of this software component.
  15:Src/usart.c   ****   * If no LICENSE file comes with this software, it is provided AS-IS.
  16:Src/usart.c   ****   *
  17:Src/usart.c   ****   ******************************************************************************
  18:Src/usart.c   ****   */
  19:Src/usart.c   **** /* USER CODE END Header */
  20:Src/usart.c   **** /* Includes ------------------------------------------------------------------*/
  21:Src/usart.c   **** #include "usart.h"
  22:Src/usart.c   **** 
  23:Src/usart.c   **** /* USER CODE BEGIN 0 */
  24:Src/usart.c   **** 
  25:Src/usart.c   **** /* USER CODE END 0 */
  26:Src/usart.c   **** 
  27:Src/usart.c   **** UART_HandleTypeDef huart4;
  28:Src/usart.c   **** 
  29:Src/usart.c   **** /* UART4 init function */
  30:Src/usart.c   **** void MX_UART4_Init(void)
ARM GAS  C:\Users\ADMINI~1\AppData\Local\Temp\ccNBSjfd.s 			page 2


  31:Src/usart.c   **** {
  29              		.loc 1 31 1 view -0
  30              		.cfi_startproc
  31              		@ args = 0, pretend = 0, frame = 0
  32              		@ frame_needed = 0, uses_anonymous_args = 0
  33 0000 08B5     		push	{r3, lr}
  34              	.LCFI0:
  35              		.cfi_def_cfa_offset 8
  36              		.cfi_offset 3, -8
  37              		.cfi_offset 14, -4
  32:Src/usart.c   **** 
  33:Src/usart.c   ****   /* USER CODE BEGIN UART4_Init 0 */
  34:Src/usart.c   **** 
  35:Src/usart.c   ****   /* USER CODE END UART4_Init 0 */
  36:Src/usart.c   **** 
  37:Src/usart.c   ****   /* USER CODE BEGIN UART4_Init 1 */
  38:Src/usart.c   **** 
  39:Src/usart.c   ****   /* USER CODE END UART4_Init 1 */
  40:Src/usart.c   ****   huart4.Instance = UART4;
  38              		.loc 1 40 3 view .LVU1
  39              		.loc 1 40 19 is_stmt 0 view .LVU2
  40 0002 0A48     		ldr	r0, .L5
  41 0004 0A4B     		ldr	r3, .L5+4
  42 0006 0360     		str	r3, [r0]
  41:Src/usart.c   ****   huart4.Init.BaudRate = 115200;
  43              		.loc 1 41 3 is_stmt 1 view .LVU3
  44              		.loc 1 41 24 is_stmt 0 view .LVU4
  45 0008 4FF4E133 		mov	r3, #115200
  46 000c 4360     		str	r3, [r0, #4]
  42:Src/usart.c   ****   huart4.Init.WordLength = UART_WORDLENGTH_8B;
  47              		.loc 1 42 3 is_stmt 1 view .LVU5
  48              		.loc 1 42 26 is_stmt 0 view .LVU6
  49 000e 0023     		movs	r3, #0
  50 0010 8360     		str	r3, [r0, #8]
  43:Src/usart.c   ****   huart4.Init.StopBits = UART_STOPBITS_1;
  51              		.loc 1 43 3 is_stmt 1 view .LVU7
  52              		.loc 1 43 24 is_stmt 0 view .LVU8
  53 0012 C360     		str	r3, [r0, #12]
  44:Src/usart.c   ****   huart4.Init.Parity = UART_PARITY_NONE;
  54              		.loc 1 44 3 is_stmt 1 view .LVU9
  55              		.loc 1 44 22 is_stmt 0 view .LVU10
  56 0014 0361     		str	r3, [r0, #16]
  45:Src/usart.c   ****   huart4.Init.Mode = UART_MODE_TX_RX;
  57              		.loc 1 45 3 is_stmt 1 view .LVU11
  58              		.loc 1 45 20 is_stmt 0 view .LVU12
  59 0016 0C22     		movs	r2, #12
  60 0018 4261     		str	r2, [r0, #20]
  46:Src/usart.c   ****   huart4.Init.HwFlowCtl = UART_HWCONTROL_NONE;
  61              		.loc 1 46 3 is_stmt 1 view .LVU13
  62              		.loc 1 46 25 is_stmt 0 view .LVU14
  63 001a 8361     		str	r3, [r0, #24]
  47:Src/usart.c   ****   huart4.Init.OverSampling = UART_OVERSAMPLING_16;
  64              		.loc 1 47 3 is_stmt 1 view .LVU15
  65              		.loc 1 47 28 is_stmt 0 view .LVU16
  66 001c C361     		str	r3, [r0, #28]
  48:Src/usart.c   ****   if (HAL_UART_Init(&huart4) != HAL_OK)
  67              		.loc 1 48 3 is_stmt 1 view .LVU17
ARM GAS  C:\Users\ADMINI~1\AppData\Local\Temp\ccNBSjfd.s 			page 3


  68              		.loc 1 48 7 is_stmt 0 view .LVU18
  69 001e FFF7FEFF 		bl	HAL_UART_Init
  70              	.LVL0:
  71              		.loc 1 48 6 view .LVU19
  72 0022 00B9     		cbnz	r0, .L4
  73              	.L1:
  49:Src/usart.c   ****   {
  50:Src/usart.c   ****     Error_Handler();
  51:Src/usart.c   ****   }
  52:Src/usart.c   ****   /* USER CODE BEGIN UART4_Init 2 */
  53:Src/usart.c   **** 
  54:Src/usart.c   ****   /* USER CODE END UART4_Init 2 */
  55:Src/usart.c   **** 
  56:Src/usart.c   **** }
  74              		.loc 1 56 1 view .LVU20
  75 0024 08BD     		pop	{r3, pc}
  76              	.L4:
  50:Src/usart.c   ****   }
  77              		.loc 1 50 5 is_stmt 1 view .LVU21
  78 0026 FFF7FEFF 		bl	Error_Handler
  79              	.LVL1:
  80              		.loc 1 56 1 is_stmt 0 view .LVU22
  81 002a FBE7     		b	.L1
  82              	.L6:
  83              		.align	2
  84              	.L5:
  85 002c 00000000 		.word	.LANCHOR0
  86 0030 004C0040 		.word	1073761280
  87              		.cfi_endproc
  88              	.LFE130:
  90              		.section	.text.HAL_UART_MspInit,"ax",%progbits
  91              		.align	1
  92              		.global	HAL_UART_MspInit
  93              		.syntax unified
  94              		.thumb
  95              		.thumb_func
  97              	HAL_UART_MspInit:
  98              	.LVL2:
  99              	.LFB131:
  57:Src/usart.c   **** 
  58:Src/usart.c   **** void HAL_UART_MspInit(UART_HandleTypeDef* uartHandle)
  59:Src/usart.c   **** {
 100              		.loc 1 59 1 is_stmt 1 view -0
 101              		.cfi_startproc
 102              		@ args = 0, pretend = 0, frame = 32
 103              		@ frame_needed = 0, uses_anonymous_args = 0
 104              		.loc 1 59 1 is_stmt 0 view .LVU24
 105 0000 00B5     		push	{lr}
 106              	.LCFI1:
 107              		.cfi_def_cfa_offset 4
 108              		.cfi_offset 14, -4
 109 0002 89B0     		sub	sp, sp, #36
 110              	.LCFI2:
 111              		.cfi_def_cfa_offset 40
  60:Src/usart.c   **** 
  61:Src/usart.c   ****   GPIO_InitTypeDef GPIO_InitStruct = {0};
 112              		.loc 1 61 3 is_stmt 1 view .LVU25
ARM GAS  C:\Users\ADMINI~1\AppData\Local\Temp\ccNBSjfd.s 			page 4


 113              		.loc 1 61 20 is_stmt 0 view .LVU26
 114 0004 0023     		movs	r3, #0
 115 0006 0393     		str	r3, [sp, #12]
 116 0008 0493     		str	r3, [sp, #16]
 117 000a 0593     		str	r3, [sp, #20]
 118 000c 0693     		str	r3, [sp, #24]
 119 000e 0793     		str	r3, [sp, #28]
  62:Src/usart.c   ****   if(uartHandle->Instance==UART4)
 120              		.loc 1 62 3 is_stmt 1 view .LVU27
 121              		.loc 1 62 16 is_stmt 0 view .LVU28
 122 0010 0268     		ldr	r2, [r0]
 123              		.loc 1 62 5 view .LVU29
 124 0012 144B     		ldr	r3, .L11
 125 0014 9A42     		cmp	r2, r3
 126 0016 02D0     		beq	.L10
 127              	.LVL3:
 128              	.L7:
  63:Src/usart.c   ****   {
  64:Src/usart.c   ****   /* USER CODE BEGIN UART4_MspInit 0 */
  65:Src/usart.c   **** 
  66:Src/usart.c   ****   /* USER CODE END UART4_MspInit 0 */
  67:Src/usart.c   ****     /* UART4 clock enable */
  68:Src/usart.c   ****     __HAL_RCC_UART4_CLK_ENABLE();
  69:Src/usart.c   **** 
  70:Src/usart.c   ****     __HAL_RCC_GPIOA_CLK_ENABLE();
  71:Src/usart.c   ****     /**UART4 GPIO Configuration
  72:Src/usart.c   ****     PA0-WKUP     ------> UART4_TX
  73:Src/usart.c   ****     PA1     ------> UART4_RX
  74:Src/usart.c   ****     */
  75:Src/usart.c   ****     GPIO_InitStruct.Pin = GPIO_PIN_0|GPIO_PIN_1;
  76:Src/usart.c   ****     GPIO_InitStruct.Mode = GPIO_MODE_AF_PP;
  77:Src/usart.c   ****     GPIO_InitStruct.Pull = GPIO_NOPULL;
  78:Src/usart.c   ****     GPIO_InitStruct.Speed = GPIO_SPEED_FREQ_VERY_HIGH;
  79:Src/usart.c   ****     GPIO_InitStruct.Alternate = GPIO_AF8_UART4;
  80:Src/usart.c   ****     HAL_GPIO_Init(GPIOA, &GPIO_InitStruct);
  81:Src/usart.c   **** 
  82:Src/usart.c   ****   /* USER CODE BEGIN UART4_MspInit 1 */
  83:Src/usart.c   **** 
  84:Src/usart.c   ****   /* USER CODE END UART4_MspInit 1 */
  85:Src/usart.c   ****   }
  86:Src/usart.c   **** }
 129              		.loc 1 86 1 view .LVU30
 130 0018 09B0     		add	sp, sp, #36
 131              	.LCFI3:
 132              		.cfi_remember_state
 133              		.cfi_def_cfa_offset 4
 134              		@ sp needed
 135 001a 5DF804FB 		ldr	pc, [sp], #4
 136              	.LVL4:
 137              	.L10:
 138              	.LCFI4:
 139              		.cfi_restore_state
  68:Src/usart.c   **** 
 140              		.loc 1 68 5 is_stmt 1 view .LVU31
 141              	.LBB2:
  68:Src/usart.c   **** 
 142              		.loc 1 68 5 view .LVU32
ARM GAS  C:\Users\ADMINI~1\AppData\Local\Temp\ccNBSjfd.s 			page 5


 143 001e 0021     		movs	r1, #0
 144 0020 0191     		str	r1, [sp, #4]
  68:Src/usart.c   **** 
 145              		.loc 1 68 5 view .LVU33
 146 0022 03F5F633 		add	r3, r3, #125952
 147 0026 1A6C     		ldr	r2, [r3, #64]
 148 0028 42F40022 		orr	r2, r2, #524288
 149 002c 1A64     		str	r2, [r3, #64]
  68:Src/usart.c   **** 
 150              		.loc 1 68 5 view .LVU34
 151 002e 1A6C     		ldr	r2, [r3, #64]
 152 0030 02F40022 		and	r2, r2, #524288
 153 0034 0192     		str	r2, [sp, #4]
  68:Src/usart.c   **** 
 154              		.loc 1 68 5 view .LVU35
 155 0036 019A     		ldr	r2, [sp, #4]
 156              	.LBE2:
  68:Src/usart.c   **** 
 157              		.loc 1 68 5 view .LVU36
  70:Src/usart.c   ****     /**UART4 GPIO Configuration
 158              		.loc 1 70 5 view .LVU37
 159              	.LBB3:
  70:Src/usart.c   ****     /**UART4 GPIO Configuration
 160              		.loc 1 70 5 view .LVU38
 161 0038 0291     		str	r1, [sp, #8]
  70:Src/usart.c   ****     /**UART4 GPIO Configuration
 162              		.loc 1 70 5 view .LVU39
 163 003a 1A6B     		ldr	r2, [r3, #48]
 164 003c 42F00102 		orr	r2, r2, #1
 165 0040 1A63     		str	r2, [r3, #48]
  70:Src/usart.c   ****     /**UART4 GPIO Configuration
 166              		.loc 1 70 5 view .LVU40
 167 0042 1B6B     		ldr	r3, [r3, #48]
 168 0044 03F00103 		and	r3, r3, #1
 169 0048 0293     		str	r3, [sp, #8]
  70:Src/usart.c   ****     /**UART4 GPIO Configuration
 170              		.loc 1 70 5 view .LVU41
 171 004a 029B     		ldr	r3, [sp, #8]
 172              	.LBE3:
  70:Src/usart.c   ****     /**UART4 GPIO Configuration
 173              		.loc 1 70 5 view .LVU42
  75:Src/usart.c   ****     GPIO_InitStruct.Mode = GPIO_MODE_AF_PP;
 174              		.loc 1 75 5 view .LVU43
  75:Src/usart.c   ****     GPIO_InitStruct.Mode = GPIO_MODE_AF_PP;
 175              		.loc 1 75 25 is_stmt 0 view .LVU44
 176 004c 0323     		movs	r3, #3
 177 004e 0393     		str	r3, [sp, #12]
  76:Src/usart.c   ****     GPIO_InitStruct.Pull = GPIO_NOPULL;
 178              		.loc 1 76 5 is_stmt 1 view .LVU45
  76:Src/usart.c   ****     GPIO_InitStruct.Pull = GPIO_NOPULL;
 179              		.loc 1 76 26 is_stmt 0 view .LVU46
 180 0050 0222     		movs	r2, #2
 181 0052 0492     		str	r2, [sp, #16]
  77:Src/usart.c   ****     GPIO_InitStruct.Speed = GPIO_SPEED_FREQ_VERY_HIGH;
 182              		.loc 1 77 5 is_stmt 1 view .LVU47
  78:Src/usart.c   ****     GPIO_InitStruct.Alternate = GPIO_AF8_UART4;
 183              		.loc 1 78 5 view .LVU48
ARM GAS  C:\Users\ADMINI~1\AppData\Local\Temp\ccNBSjfd.s 			page 6


  78:Src/usart.c   ****     GPIO_InitStruct.Alternate = GPIO_AF8_UART4;
 184              		.loc 1 78 27 is_stmt 0 view .LVU49
 185 0054 0693     		str	r3, [sp, #24]
  79:Src/usart.c   ****     HAL_GPIO_Init(GPIOA, &GPIO_InitStruct);
 186              		.loc 1 79 5 is_stmt 1 view .LVU50
  79:Src/usart.c   ****     HAL_GPIO_Init(GPIOA, &GPIO_InitStruct);
 187              		.loc 1 79 31 is_stmt 0 view .LVU51
 188 0056 0823     		movs	r3, #8
 189 0058 0793     		str	r3, [sp, #28]
  80:Src/usart.c   **** 
 190              		.loc 1 80 5 is_stmt 1 view .LVU52
 191 005a 03A9     		add	r1, sp, #12
 192 005c 0248     		ldr	r0, .L11+4
 193              	.LVL5:
  80:Src/usart.c   **** 
 194              		.loc 1 80 5 is_stmt 0 view .LVU53
 195 005e FFF7FEFF 		bl	HAL_GPIO_Init
 196              	.LVL6:
 197              		.loc 1 86 1 view .LVU54
 198 0062 D9E7     		b	.L7
 199              	.L12:
 200              		.align	2
 201              	.L11:
 202 0064 004C0040 		.word	1073761280
 203 0068 00000240 		.word	1073872896
 204              		.cfi_endproc
 205              	.LFE131:
 207              		.section	.text.HAL_UART_MspDeInit,"ax",%progbits
 208              		.align	1
 209              		.global	HAL_UART_MspDeInit
 210              		.syntax unified
 211              		.thumb
 212              		.thumb_func
 214              	HAL_UART_MspDeInit:
 215              	.LVL7:
 216              	.LFB132:
  87:Src/usart.c   **** 
  88:Src/usart.c   **** void HAL_UART_MspDeInit(UART_HandleTypeDef* uartHandle)
  89:Src/usart.c   **** {
 217              		.loc 1 89 1 is_stmt 1 view -0
 218              		.cfi_startproc
 219              		@ args = 0, pretend = 0, frame = 0
 220              		@ frame_needed = 0, uses_anonymous_args = 0
 221              		.loc 1 89 1 is_stmt 0 view .LVU56
 222 0000 08B5     		push	{r3, lr}
 223              	.LCFI5:
 224              		.cfi_def_cfa_offset 8
 225              		.cfi_offset 3, -8
 226              		.cfi_offset 14, -4
  90:Src/usart.c   **** 
  91:Src/usart.c   ****   if(uartHandle->Instance==UART4)
 227              		.loc 1 91 3 is_stmt 1 view .LVU57
 228              		.loc 1 91 16 is_stmt 0 view .LVU58
 229 0002 0268     		ldr	r2, [r0]
 230              		.loc 1 91 5 view .LVU59
 231 0004 064B     		ldr	r3, .L17
 232 0006 9A42     		cmp	r2, r3
ARM GAS  C:\Users\ADMINI~1\AppData\Local\Temp\ccNBSjfd.s 			page 7


 233 0008 00D0     		beq	.L16
 234              	.LVL8:
 235              	.L13:
  92:Src/usart.c   ****   {
  93:Src/usart.c   ****   /* USER CODE BEGIN UART4_MspDeInit 0 */
  94:Src/usart.c   **** 
  95:Src/usart.c   ****   /* USER CODE END UART4_MspDeInit 0 */
  96:Src/usart.c   ****     /* Peripheral clock disable */
  97:Src/usart.c   ****     __HAL_RCC_UART4_CLK_DISABLE();
  98:Src/usart.c   **** 
  99:Src/usart.c   ****     /**UART4 GPIO Configuration
 100:Src/usart.c   ****     PA0-WKUP     ------> UART4_TX
 101:Src/usart.c   ****     PA1     ------> UART4_RX
 102:Src/usart.c   ****     */
 103:Src/usart.c   ****     HAL_GPIO_DeInit(GPIOA, GPIO_PIN_0|GPIO_PIN_1);
 104:Src/usart.c   **** 
 105:Src/usart.c   ****   /* USER CODE BEGIN UART4_MspDeInit 1 */
 106:Src/usart.c   **** 
 107:Src/usart.c   ****   /* USER CODE END UART4_MspDeInit 1 */
 108:Src/usart.c   ****   }
 109:Src/usart.c   **** }
 236              		.loc 1 109 1 view .LVU60
 237 000a 08BD     		pop	{r3, pc}
 238              	.LVL9:
 239              	.L16:
  97:Src/usart.c   **** 
 240              		.loc 1 97 5 is_stmt 1 view .LVU61
 241 000c 054A     		ldr	r2, .L17+4
 242 000e 136C     		ldr	r3, [r2, #64]
 243 0010 23F40023 		bic	r3, r3, #524288
 244 0014 1364     		str	r3, [r2, #64]
 103:Src/usart.c   **** 
 245              		.loc 1 103 5 view .LVU62
 246 0016 0321     		movs	r1, #3
 247 0018 0348     		ldr	r0, .L17+8
 248              	.LVL10:
 103:Src/usart.c   **** 
 249              		.loc 1 103 5 is_stmt 0 view .LVU63
 250 001a FFF7FEFF 		bl	HAL_GPIO_DeInit
 251              	.LVL11:
 252              		.loc 1 109 1 view .LVU64
 253 001e F4E7     		b	.L13
 254              	.L18:
 255              		.align	2
 256              	.L17:
 257 0020 004C0040 		.word	1073761280
 258 0024 00380240 		.word	1073887232
 259 0028 00000240 		.word	1073872896
 260              		.cfi_endproc
 261              	.LFE132:
 263              		.global	huart4
 264              		.section	.bss.huart4,"aw",%nobits
 265              		.align	2
 266              		.set	.LANCHOR0,. + 0
 269              	huart4:
 270 0000 00000000 		.space	68
 270      00000000 
ARM GAS  C:\Users\ADMINI~1\AppData\Local\Temp\ccNBSjfd.s 			page 8


 270      00000000 
 270      00000000 
 270      00000000 
 271              		.text
 272              	.Letext0:
 273              		.file 2 "e:\\program files (x86)\\gnu arm embedded toolchain\\10 2021.10\\arm-none-eabi\\include\\
 274              		.file 3 "e:\\program files (x86)\\gnu arm embedded toolchain\\10 2021.10\\arm-none-eabi\\include\\
 275              		.file 4 "Drivers/CMSIS/Device/ST/STM32F4xx/Include/stm32f405xx.h"
 276              		.file 5 "Drivers/STM32F4xx_HAL_Driver/Inc/stm32f4xx_hal_def.h"
 277              		.file 6 "Drivers/STM32F4xx_HAL_Driver/Inc/stm32f4xx_hal_gpio.h"
 278              		.file 7 "Drivers/STM32F4xx_HAL_Driver/Inc/stm32f4xx_hal_dma.h"
 279              		.file 8 "Drivers/STM32F4xx_HAL_Driver/Inc/stm32f4xx_hal_uart.h"
 280              		.file 9 "Inc/main.h"
 281              		.file 10 "Inc/usart.h"
ARM GAS  C:\Users\ADMINI~1\AppData\Local\Temp\ccNBSjfd.s 			page 9

