ARM GAS  C:\Users\ADMINI~1\AppData\Local\Temp\ccG84XQ1.s 			page 1


   1              		.cpu cortex-m4
   2              		.arch armv7e-m
   3              		.fpu fpv4-sp-d16
   4              		.eabi_attribute 27, 1
   5              		.eabi_attribute 28, 1
   6              		.eabi_attribute 20, 1
   7              		.eabi_attribute 21, 1
   8              		.eabi_attribute 23, 3
   9              		.eabi_attribute 24, 1
  10              		.eabi_attribute 25, 1
  11              		.eabi_attribute 26, 1
  12              		.eabi_attribute 30, 1
  13              		.eabi_attribute 34, 1
  14              		.eabi_attribute 18, 4
  15              		.file	"usbd_msc_bot.c"
  16              		.text
  17              	.Ltext0:
  18              		.cfi_sections	.debug_frame
  19              		.section	.text.MSC_BOT_SendData,"ax",%progbits
  20              		.align	1
  21              		.syntax unified
  22              		.thumb
  23              		.thumb_func
  25              	MSC_BOT_SendData:
  26              	.LVL0:
  27              	.LFB140:
  28              		.file 1 "Middlewares/ST/STM32_USB_Device_Library/Class/MSC/Src/usbd_msc_bot.c"
   1:Middlewares/ST/STM32_USB_Device_Library/Class/MSC/Src/usbd_msc_bot.c **** /**
   2:Middlewares/ST/STM32_USB_Device_Library/Class/MSC/Src/usbd_msc_bot.c ****   ******************************************************************************
   3:Middlewares/ST/STM32_USB_Device_Library/Class/MSC/Src/usbd_msc_bot.c ****   * @file    usbd_msc_bot.c
   4:Middlewares/ST/STM32_USB_Device_Library/Class/MSC/Src/usbd_msc_bot.c ****   * @author  MCD Application Team
   5:Middlewares/ST/STM32_USB_Device_Library/Class/MSC/Src/usbd_msc_bot.c ****   * @brief   This file provides all the BOT protocol core functions.
   6:Middlewares/ST/STM32_USB_Device_Library/Class/MSC/Src/usbd_msc_bot.c ****   ******************************************************************************
   7:Middlewares/ST/STM32_USB_Device_Library/Class/MSC/Src/usbd_msc_bot.c ****   * @attention
   8:Middlewares/ST/STM32_USB_Device_Library/Class/MSC/Src/usbd_msc_bot.c ****   *
   9:Middlewares/ST/STM32_USB_Device_Library/Class/MSC/Src/usbd_msc_bot.c ****   * Copyright (c) 2015 STMicroelectronics.
  10:Middlewares/ST/STM32_USB_Device_Library/Class/MSC/Src/usbd_msc_bot.c ****   * All rights reserved.
  11:Middlewares/ST/STM32_USB_Device_Library/Class/MSC/Src/usbd_msc_bot.c ****   *
  12:Middlewares/ST/STM32_USB_Device_Library/Class/MSC/Src/usbd_msc_bot.c ****   * This software is licensed under terms that can be found in the LICENSE file
  13:Middlewares/ST/STM32_USB_Device_Library/Class/MSC/Src/usbd_msc_bot.c ****   * in the root directory of this software component.
  14:Middlewares/ST/STM32_USB_Device_Library/Class/MSC/Src/usbd_msc_bot.c ****   * If no LICENSE file comes with this software, it is provided AS-IS.
  15:Middlewares/ST/STM32_USB_Device_Library/Class/MSC/Src/usbd_msc_bot.c ****   *
  16:Middlewares/ST/STM32_USB_Device_Library/Class/MSC/Src/usbd_msc_bot.c ****   ******************************************************************************
  17:Middlewares/ST/STM32_USB_Device_Library/Class/MSC/Src/usbd_msc_bot.c ****   */
  18:Middlewares/ST/STM32_USB_Device_Library/Class/MSC/Src/usbd_msc_bot.c **** 
  19:Middlewares/ST/STM32_USB_Device_Library/Class/MSC/Src/usbd_msc_bot.c **** /* BSPDependencies
  20:Middlewares/ST/STM32_USB_Device_Library/Class/MSC/Src/usbd_msc_bot.c **** - "stm32xxxxx_{eval}{discovery}{nucleo_144}.c"
  21:Middlewares/ST/STM32_USB_Device_Library/Class/MSC/Src/usbd_msc_bot.c **** - "stm32xxxxx_{eval}{discovery}_io.c"
  22:Middlewares/ST/STM32_USB_Device_Library/Class/MSC/Src/usbd_msc_bot.c **** - "stm32xxxxx_{eval}{discovery}{adafruit}_sd.c"
  23:Middlewares/ST/STM32_USB_Device_Library/Class/MSC/Src/usbd_msc_bot.c **** EndBSPDependencies */
  24:Middlewares/ST/STM32_USB_Device_Library/Class/MSC/Src/usbd_msc_bot.c **** 
  25:Middlewares/ST/STM32_USB_Device_Library/Class/MSC/Src/usbd_msc_bot.c **** /* Includes ------------------------------------------------------------------*/
  26:Middlewares/ST/STM32_USB_Device_Library/Class/MSC/Src/usbd_msc_bot.c **** #include "usbd_msc_bot.h"
  27:Middlewares/ST/STM32_USB_Device_Library/Class/MSC/Src/usbd_msc_bot.c **** #include "usbd_msc.h"
  28:Middlewares/ST/STM32_USB_Device_Library/Class/MSC/Src/usbd_msc_bot.c **** #include "usbd_msc_scsi.h"
  29:Middlewares/ST/STM32_USB_Device_Library/Class/MSC/Src/usbd_msc_bot.c **** #include "usbd_ioreq.h"
  30:Middlewares/ST/STM32_USB_Device_Library/Class/MSC/Src/usbd_msc_bot.c **** 
ARM GAS  C:\Users\ADMINI~1\AppData\Local\Temp\ccG84XQ1.s 			page 2


  31:Middlewares/ST/STM32_USB_Device_Library/Class/MSC/Src/usbd_msc_bot.c **** /** @addtogroup STM32_USB_DEVICE_LIBRARY
  32:Middlewares/ST/STM32_USB_Device_Library/Class/MSC/Src/usbd_msc_bot.c ****   * @{
  33:Middlewares/ST/STM32_USB_Device_Library/Class/MSC/Src/usbd_msc_bot.c ****   */
  34:Middlewares/ST/STM32_USB_Device_Library/Class/MSC/Src/usbd_msc_bot.c **** 
  35:Middlewares/ST/STM32_USB_Device_Library/Class/MSC/Src/usbd_msc_bot.c **** 
  36:Middlewares/ST/STM32_USB_Device_Library/Class/MSC/Src/usbd_msc_bot.c **** /** @defgroup MSC_BOT
  37:Middlewares/ST/STM32_USB_Device_Library/Class/MSC/Src/usbd_msc_bot.c ****   * @brief BOT protocol module
  38:Middlewares/ST/STM32_USB_Device_Library/Class/MSC/Src/usbd_msc_bot.c ****   * @{
  39:Middlewares/ST/STM32_USB_Device_Library/Class/MSC/Src/usbd_msc_bot.c ****   */
  40:Middlewares/ST/STM32_USB_Device_Library/Class/MSC/Src/usbd_msc_bot.c **** 
  41:Middlewares/ST/STM32_USB_Device_Library/Class/MSC/Src/usbd_msc_bot.c **** /** @defgroup MSC_BOT_Private_TypesDefinitions
  42:Middlewares/ST/STM32_USB_Device_Library/Class/MSC/Src/usbd_msc_bot.c ****   * @{
  43:Middlewares/ST/STM32_USB_Device_Library/Class/MSC/Src/usbd_msc_bot.c ****   */
  44:Middlewares/ST/STM32_USB_Device_Library/Class/MSC/Src/usbd_msc_bot.c **** /**
  45:Middlewares/ST/STM32_USB_Device_Library/Class/MSC/Src/usbd_msc_bot.c ****   * @}
  46:Middlewares/ST/STM32_USB_Device_Library/Class/MSC/Src/usbd_msc_bot.c ****   */
  47:Middlewares/ST/STM32_USB_Device_Library/Class/MSC/Src/usbd_msc_bot.c **** 
  48:Middlewares/ST/STM32_USB_Device_Library/Class/MSC/Src/usbd_msc_bot.c **** 
  49:Middlewares/ST/STM32_USB_Device_Library/Class/MSC/Src/usbd_msc_bot.c **** /** @defgroup MSC_BOT_Private_Defines
  50:Middlewares/ST/STM32_USB_Device_Library/Class/MSC/Src/usbd_msc_bot.c ****   * @{
  51:Middlewares/ST/STM32_USB_Device_Library/Class/MSC/Src/usbd_msc_bot.c ****   */
  52:Middlewares/ST/STM32_USB_Device_Library/Class/MSC/Src/usbd_msc_bot.c **** 
  53:Middlewares/ST/STM32_USB_Device_Library/Class/MSC/Src/usbd_msc_bot.c **** /**
  54:Middlewares/ST/STM32_USB_Device_Library/Class/MSC/Src/usbd_msc_bot.c ****   * @}
  55:Middlewares/ST/STM32_USB_Device_Library/Class/MSC/Src/usbd_msc_bot.c ****   */
  56:Middlewares/ST/STM32_USB_Device_Library/Class/MSC/Src/usbd_msc_bot.c **** 
  57:Middlewares/ST/STM32_USB_Device_Library/Class/MSC/Src/usbd_msc_bot.c **** 
  58:Middlewares/ST/STM32_USB_Device_Library/Class/MSC/Src/usbd_msc_bot.c **** /** @defgroup MSC_BOT_Private_Macros
  59:Middlewares/ST/STM32_USB_Device_Library/Class/MSC/Src/usbd_msc_bot.c ****   * @{
  60:Middlewares/ST/STM32_USB_Device_Library/Class/MSC/Src/usbd_msc_bot.c ****   */
  61:Middlewares/ST/STM32_USB_Device_Library/Class/MSC/Src/usbd_msc_bot.c **** /**
  62:Middlewares/ST/STM32_USB_Device_Library/Class/MSC/Src/usbd_msc_bot.c ****   * @}
  63:Middlewares/ST/STM32_USB_Device_Library/Class/MSC/Src/usbd_msc_bot.c ****   */
  64:Middlewares/ST/STM32_USB_Device_Library/Class/MSC/Src/usbd_msc_bot.c **** 
  65:Middlewares/ST/STM32_USB_Device_Library/Class/MSC/Src/usbd_msc_bot.c **** 
  66:Middlewares/ST/STM32_USB_Device_Library/Class/MSC/Src/usbd_msc_bot.c **** /** @defgroup MSC_BOT_Private_Variables
  67:Middlewares/ST/STM32_USB_Device_Library/Class/MSC/Src/usbd_msc_bot.c ****   * @{
  68:Middlewares/ST/STM32_USB_Device_Library/Class/MSC/Src/usbd_msc_bot.c ****   */
  69:Middlewares/ST/STM32_USB_Device_Library/Class/MSC/Src/usbd_msc_bot.c **** extern uint8_t MSCInEpAdd;
  70:Middlewares/ST/STM32_USB_Device_Library/Class/MSC/Src/usbd_msc_bot.c **** extern uint8_t MSCOutEpAdd;
  71:Middlewares/ST/STM32_USB_Device_Library/Class/MSC/Src/usbd_msc_bot.c **** /**
  72:Middlewares/ST/STM32_USB_Device_Library/Class/MSC/Src/usbd_msc_bot.c ****   * @}
  73:Middlewares/ST/STM32_USB_Device_Library/Class/MSC/Src/usbd_msc_bot.c ****   */
  74:Middlewares/ST/STM32_USB_Device_Library/Class/MSC/Src/usbd_msc_bot.c **** 
  75:Middlewares/ST/STM32_USB_Device_Library/Class/MSC/Src/usbd_msc_bot.c **** 
  76:Middlewares/ST/STM32_USB_Device_Library/Class/MSC/Src/usbd_msc_bot.c **** /** @defgroup MSC_BOT_Private_FunctionPrototypes
  77:Middlewares/ST/STM32_USB_Device_Library/Class/MSC/Src/usbd_msc_bot.c ****   * @{
  78:Middlewares/ST/STM32_USB_Device_Library/Class/MSC/Src/usbd_msc_bot.c ****   */
  79:Middlewares/ST/STM32_USB_Device_Library/Class/MSC/Src/usbd_msc_bot.c **** static void MSC_BOT_SendData(USBD_HandleTypeDef *pdev, uint8_t *pbuf, uint32_t len);
  80:Middlewares/ST/STM32_USB_Device_Library/Class/MSC/Src/usbd_msc_bot.c **** static void MSC_BOT_CBW_Decode(USBD_HandleTypeDef *pdev);
  81:Middlewares/ST/STM32_USB_Device_Library/Class/MSC/Src/usbd_msc_bot.c **** static void MSC_BOT_Abort(USBD_HandleTypeDef *pdev);
  82:Middlewares/ST/STM32_USB_Device_Library/Class/MSC/Src/usbd_msc_bot.c **** /**
  83:Middlewares/ST/STM32_USB_Device_Library/Class/MSC/Src/usbd_msc_bot.c ****   * @}
  84:Middlewares/ST/STM32_USB_Device_Library/Class/MSC/Src/usbd_msc_bot.c ****   */
  85:Middlewares/ST/STM32_USB_Device_Library/Class/MSC/Src/usbd_msc_bot.c **** 
  86:Middlewares/ST/STM32_USB_Device_Library/Class/MSC/Src/usbd_msc_bot.c **** 
  87:Middlewares/ST/STM32_USB_Device_Library/Class/MSC/Src/usbd_msc_bot.c **** /** @defgroup MSC_BOT_Private_Functions
ARM GAS  C:\Users\ADMINI~1\AppData\Local\Temp\ccG84XQ1.s 			page 3


  88:Middlewares/ST/STM32_USB_Device_Library/Class/MSC/Src/usbd_msc_bot.c ****   * @{
  89:Middlewares/ST/STM32_USB_Device_Library/Class/MSC/Src/usbd_msc_bot.c ****   */
  90:Middlewares/ST/STM32_USB_Device_Library/Class/MSC/Src/usbd_msc_bot.c **** 
  91:Middlewares/ST/STM32_USB_Device_Library/Class/MSC/Src/usbd_msc_bot.c **** 
  92:Middlewares/ST/STM32_USB_Device_Library/Class/MSC/Src/usbd_msc_bot.c **** /**
  93:Middlewares/ST/STM32_USB_Device_Library/Class/MSC/Src/usbd_msc_bot.c ****   * @brief  MSC_BOT_Init
  94:Middlewares/ST/STM32_USB_Device_Library/Class/MSC/Src/usbd_msc_bot.c ****   *         Initialize the BOT Process
  95:Middlewares/ST/STM32_USB_Device_Library/Class/MSC/Src/usbd_msc_bot.c ****   * @param  pdev: device instance
  96:Middlewares/ST/STM32_USB_Device_Library/Class/MSC/Src/usbd_msc_bot.c ****   * @retval None
  97:Middlewares/ST/STM32_USB_Device_Library/Class/MSC/Src/usbd_msc_bot.c ****   */
  98:Middlewares/ST/STM32_USB_Device_Library/Class/MSC/Src/usbd_msc_bot.c **** void MSC_BOT_Init(USBD_HandleTypeDef *pdev)
  99:Middlewares/ST/STM32_USB_Device_Library/Class/MSC/Src/usbd_msc_bot.c **** {
 100:Middlewares/ST/STM32_USB_Device_Library/Class/MSC/Src/usbd_msc_bot.c ****   USBD_MSC_BOT_HandleTypeDef *hmsc = (USBD_MSC_BOT_HandleTypeDef *)pdev->pClassDataCmsit[pdev->clas
 101:Middlewares/ST/STM32_USB_Device_Library/Class/MSC/Src/usbd_msc_bot.c **** 
 102:Middlewares/ST/STM32_USB_Device_Library/Class/MSC/Src/usbd_msc_bot.c **** #ifdef USE_USBD_COMPOSITE
 103:Middlewares/ST/STM32_USB_Device_Library/Class/MSC/Src/usbd_msc_bot.c ****   /* Get the Endpoints addresses allocated for this class instance */
 104:Middlewares/ST/STM32_USB_Device_Library/Class/MSC/Src/usbd_msc_bot.c ****   MSCInEpAdd  = USBD_CoreGetEPAdd(pdev, USBD_EP_IN, USBD_EP_TYPE_BULK);
 105:Middlewares/ST/STM32_USB_Device_Library/Class/MSC/Src/usbd_msc_bot.c ****   MSCOutEpAdd = USBD_CoreGetEPAdd(pdev, USBD_EP_OUT, USBD_EP_TYPE_BULK);
 106:Middlewares/ST/STM32_USB_Device_Library/Class/MSC/Src/usbd_msc_bot.c **** #endif /* USE_USBD_COMPOSITE */
 107:Middlewares/ST/STM32_USB_Device_Library/Class/MSC/Src/usbd_msc_bot.c **** 
 108:Middlewares/ST/STM32_USB_Device_Library/Class/MSC/Src/usbd_msc_bot.c ****   if (hmsc == NULL)
 109:Middlewares/ST/STM32_USB_Device_Library/Class/MSC/Src/usbd_msc_bot.c ****   {
 110:Middlewares/ST/STM32_USB_Device_Library/Class/MSC/Src/usbd_msc_bot.c ****     return;
 111:Middlewares/ST/STM32_USB_Device_Library/Class/MSC/Src/usbd_msc_bot.c ****   }
 112:Middlewares/ST/STM32_USB_Device_Library/Class/MSC/Src/usbd_msc_bot.c **** 
 113:Middlewares/ST/STM32_USB_Device_Library/Class/MSC/Src/usbd_msc_bot.c ****   hmsc->bot_state = USBD_BOT_IDLE;
 114:Middlewares/ST/STM32_USB_Device_Library/Class/MSC/Src/usbd_msc_bot.c ****   hmsc->bot_status = USBD_BOT_STATUS_NORMAL;
 115:Middlewares/ST/STM32_USB_Device_Library/Class/MSC/Src/usbd_msc_bot.c **** 
 116:Middlewares/ST/STM32_USB_Device_Library/Class/MSC/Src/usbd_msc_bot.c ****   hmsc->scsi_sense_tail = 0U;
 117:Middlewares/ST/STM32_USB_Device_Library/Class/MSC/Src/usbd_msc_bot.c ****   hmsc->scsi_sense_head = 0U;
 118:Middlewares/ST/STM32_USB_Device_Library/Class/MSC/Src/usbd_msc_bot.c ****   hmsc->scsi_medium_state = SCSI_MEDIUM_UNLOCKED;
 119:Middlewares/ST/STM32_USB_Device_Library/Class/MSC/Src/usbd_msc_bot.c **** 
 120:Middlewares/ST/STM32_USB_Device_Library/Class/MSC/Src/usbd_msc_bot.c ****   ((USBD_StorageTypeDef *)pdev->pUserData[pdev->classId])->Init(0U);
 121:Middlewares/ST/STM32_USB_Device_Library/Class/MSC/Src/usbd_msc_bot.c **** 
 122:Middlewares/ST/STM32_USB_Device_Library/Class/MSC/Src/usbd_msc_bot.c ****   (void)USBD_LL_FlushEP(pdev, MSCOutEpAdd);
 123:Middlewares/ST/STM32_USB_Device_Library/Class/MSC/Src/usbd_msc_bot.c ****   (void)USBD_LL_FlushEP(pdev, MSCInEpAdd);
 124:Middlewares/ST/STM32_USB_Device_Library/Class/MSC/Src/usbd_msc_bot.c **** 
 125:Middlewares/ST/STM32_USB_Device_Library/Class/MSC/Src/usbd_msc_bot.c ****   /* Prepare EP to Receive First BOT Cmd */
 126:Middlewares/ST/STM32_USB_Device_Library/Class/MSC/Src/usbd_msc_bot.c ****   (void)USBD_LL_PrepareReceive(pdev, MSCOutEpAdd, (uint8_t *)&hmsc->cbw,
 127:Middlewares/ST/STM32_USB_Device_Library/Class/MSC/Src/usbd_msc_bot.c ****                                USBD_BOT_CBW_LENGTH);
 128:Middlewares/ST/STM32_USB_Device_Library/Class/MSC/Src/usbd_msc_bot.c **** }
 129:Middlewares/ST/STM32_USB_Device_Library/Class/MSC/Src/usbd_msc_bot.c **** 
 130:Middlewares/ST/STM32_USB_Device_Library/Class/MSC/Src/usbd_msc_bot.c **** /**
 131:Middlewares/ST/STM32_USB_Device_Library/Class/MSC/Src/usbd_msc_bot.c ****   * @brief  MSC_BOT_Reset
 132:Middlewares/ST/STM32_USB_Device_Library/Class/MSC/Src/usbd_msc_bot.c ****   *         Reset the BOT Machine
 133:Middlewares/ST/STM32_USB_Device_Library/Class/MSC/Src/usbd_msc_bot.c ****   * @param  pdev: device instance
 134:Middlewares/ST/STM32_USB_Device_Library/Class/MSC/Src/usbd_msc_bot.c ****   * @retval  None
 135:Middlewares/ST/STM32_USB_Device_Library/Class/MSC/Src/usbd_msc_bot.c ****   */
 136:Middlewares/ST/STM32_USB_Device_Library/Class/MSC/Src/usbd_msc_bot.c **** void MSC_BOT_Reset(USBD_HandleTypeDef *pdev)
 137:Middlewares/ST/STM32_USB_Device_Library/Class/MSC/Src/usbd_msc_bot.c **** {
 138:Middlewares/ST/STM32_USB_Device_Library/Class/MSC/Src/usbd_msc_bot.c ****   USBD_MSC_BOT_HandleTypeDef *hmsc = (USBD_MSC_BOT_HandleTypeDef *)pdev->pClassDataCmsit[pdev->clas
 139:Middlewares/ST/STM32_USB_Device_Library/Class/MSC/Src/usbd_msc_bot.c **** 
 140:Middlewares/ST/STM32_USB_Device_Library/Class/MSC/Src/usbd_msc_bot.c **** #ifdef USE_USBD_COMPOSITE
 141:Middlewares/ST/STM32_USB_Device_Library/Class/MSC/Src/usbd_msc_bot.c ****   /* Get the Endpoints addresses allocated for this class instance */
 142:Middlewares/ST/STM32_USB_Device_Library/Class/MSC/Src/usbd_msc_bot.c ****   MSCInEpAdd  = USBD_CoreGetEPAdd(pdev, USBD_EP_IN, USBD_EP_TYPE_BULK);
 143:Middlewares/ST/STM32_USB_Device_Library/Class/MSC/Src/usbd_msc_bot.c ****   MSCOutEpAdd = USBD_CoreGetEPAdd(pdev, USBD_EP_OUT, USBD_EP_TYPE_BULK);
 144:Middlewares/ST/STM32_USB_Device_Library/Class/MSC/Src/usbd_msc_bot.c **** #endif /* USE_USBD_COMPOSITE */
ARM GAS  C:\Users\ADMINI~1\AppData\Local\Temp\ccG84XQ1.s 			page 4


 145:Middlewares/ST/STM32_USB_Device_Library/Class/MSC/Src/usbd_msc_bot.c **** 
 146:Middlewares/ST/STM32_USB_Device_Library/Class/MSC/Src/usbd_msc_bot.c ****   if (hmsc == NULL)
 147:Middlewares/ST/STM32_USB_Device_Library/Class/MSC/Src/usbd_msc_bot.c ****   {
 148:Middlewares/ST/STM32_USB_Device_Library/Class/MSC/Src/usbd_msc_bot.c ****     return;
 149:Middlewares/ST/STM32_USB_Device_Library/Class/MSC/Src/usbd_msc_bot.c ****   }
 150:Middlewares/ST/STM32_USB_Device_Library/Class/MSC/Src/usbd_msc_bot.c **** 
 151:Middlewares/ST/STM32_USB_Device_Library/Class/MSC/Src/usbd_msc_bot.c ****   hmsc->bot_state  = USBD_BOT_IDLE;
 152:Middlewares/ST/STM32_USB_Device_Library/Class/MSC/Src/usbd_msc_bot.c ****   hmsc->bot_status = USBD_BOT_STATUS_RECOVERY;
 153:Middlewares/ST/STM32_USB_Device_Library/Class/MSC/Src/usbd_msc_bot.c **** 
 154:Middlewares/ST/STM32_USB_Device_Library/Class/MSC/Src/usbd_msc_bot.c ****   (void)USBD_LL_ClearStallEP(pdev, MSCInEpAdd);
 155:Middlewares/ST/STM32_USB_Device_Library/Class/MSC/Src/usbd_msc_bot.c ****   (void)USBD_LL_ClearStallEP(pdev, MSCOutEpAdd);
 156:Middlewares/ST/STM32_USB_Device_Library/Class/MSC/Src/usbd_msc_bot.c **** 
 157:Middlewares/ST/STM32_USB_Device_Library/Class/MSC/Src/usbd_msc_bot.c ****   /* Prepare EP to Receive First BOT Cmd */
 158:Middlewares/ST/STM32_USB_Device_Library/Class/MSC/Src/usbd_msc_bot.c ****   (void)USBD_LL_PrepareReceive(pdev, MSCOutEpAdd, (uint8_t *)&hmsc->cbw,
 159:Middlewares/ST/STM32_USB_Device_Library/Class/MSC/Src/usbd_msc_bot.c ****                                USBD_BOT_CBW_LENGTH);
 160:Middlewares/ST/STM32_USB_Device_Library/Class/MSC/Src/usbd_msc_bot.c **** }
 161:Middlewares/ST/STM32_USB_Device_Library/Class/MSC/Src/usbd_msc_bot.c **** 
 162:Middlewares/ST/STM32_USB_Device_Library/Class/MSC/Src/usbd_msc_bot.c **** /**
 163:Middlewares/ST/STM32_USB_Device_Library/Class/MSC/Src/usbd_msc_bot.c ****   * @brief  MSC_BOT_DeInit
 164:Middlewares/ST/STM32_USB_Device_Library/Class/MSC/Src/usbd_msc_bot.c ****   *         DeInitialize the BOT Machine
 165:Middlewares/ST/STM32_USB_Device_Library/Class/MSC/Src/usbd_msc_bot.c ****   * @param  pdev: device instance
 166:Middlewares/ST/STM32_USB_Device_Library/Class/MSC/Src/usbd_msc_bot.c ****   * @retval None
 167:Middlewares/ST/STM32_USB_Device_Library/Class/MSC/Src/usbd_msc_bot.c ****   */
 168:Middlewares/ST/STM32_USB_Device_Library/Class/MSC/Src/usbd_msc_bot.c **** void MSC_BOT_DeInit(USBD_HandleTypeDef  *pdev)
 169:Middlewares/ST/STM32_USB_Device_Library/Class/MSC/Src/usbd_msc_bot.c **** {
 170:Middlewares/ST/STM32_USB_Device_Library/Class/MSC/Src/usbd_msc_bot.c ****   USBD_MSC_BOT_HandleTypeDef *hmsc = (USBD_MSC_BOT_HandleTypeDef *)pdev->pClassDataCmsit[pdev->clas
 171:Middlewares/ST/STM32_USB_Device_Library/Class/MSC/Src/usbd_msc_bot.c **** 
 172:Middlewares/ST/STM32_USB_Device_Library/Class/MSC/Src/usbd_msc_bot.c ****   if (hmsc != NULL)
 173:Middlewares/ST/STM32_USB_Device_Library/Class/MSC/Src/usbd_msc_bot.c ****   {
 174:Middlewares/ST/STM32_USB_Device_Library/Class/MSC/Src/usbd_msc_bot.c ****     hmsc->bot_state = USBD_BOT_IDLE;
 175:Middlewares/ST/STM32_USB_Device_Library/Class/MSC/Src/usbd_msc_bot.c ****   }
 176:Middlewares/ST/STM32_USB_Device_Library/Class/MSC/Src/usbd_msc_bot.c **** }
 177:Middlewares/ST/STM32_USB_Device_Library/Class/MSC/Src/usbd_msc_bot.c **** 
 178:Middlewares/ST/STM32_USB_Device_Library/Class/MSC/Src/usbd_msc_bot.c **** /**
 179:Middlewares/ST/STM32_USB_Device_Library/Class/MSC/Src/usbd_msc_bot.c ****   * @brief  MSC_BOT_DataIn
 180:Middlewares/ST/STM32_USB_Device_Library/Class/MSC/Src/usbd_msc_bot.c ****   *         Handle BOT IN data stage
 181:Middlewares/ST/STM32_USB_Device_Library/Class/MSC/Src/usbd_msc_bot.c ****   * @param  pdev: device instance
 182:Middlewares/ST/STM32_USB_Device_Library/Class/MSC/Src/usbd_msc_bot.c ****   * @param  epnum: endpoint index
 183:Middlewares/ST/STM32_USB_Device_Library/Class/MSC/Src/usbd_msc_bot.c ****   * @retval None
 184:Middlewares/ST/STM32_USB_Device_Library/Class/MSC/Src/usbd_msc_bot.c ****   */
 185:Middlewares/ST/STM32_USB_Device_Library/Class/MSC/Src/usbd_msc_bot.c **** void MSC_BOT_DataIn(USBD_HandleTypeDef *pdev, uint8_t epnum)
 186:Middlewares/ST/STM32_USB_Device_Library/Class/MSC/Src/usbd_msc_bot.c **** {
 187:Middlewares/ST/STM32_USB_Device_Library/Class/MSC/Src/usbd_msc_bot.c ****   UNUSED(epnum);
 188:Middlewares/ST/STM32_USB_Device_Library/Class/MSC/Src/usbd_msc_bot.c **** 
 189:Middlewares/ST/STM32_USB_Device_Library/Class/MSC/Src/usbd_msc_bot.c ****   USBD_MSC_BOT_HandleTypeDef *hmsc = (USBD_MSC_BOT_HandleTypeDef *)pdev->pClassDataCmsit[pdev->clas
 190:Middlewares/ST/STM32_USB_Device_Library/Class/MSC/Src/usbd_msc_bot.c **** 
 191:Middlewares/ST/STM32_USB_Device_Library/Class/MSC/Src/usbd_msc_bot.c ****   if (hmsc == NULL)
 192:Middlewares/ST/STM32_USB_Device_Library/Class/MSC/Src/usbd_msc_bot.c ****   {
 193:Middlewares/ST/STM32_USB_Device_Library/Class/MSC/Src/usbd_msc_bot.c ****     return;
 194:Middlewares/ST/STM32_USB_Device_Library/Class/MSC/Src/usbd_msc_bot.c ****   }
 195:Middlewares/ST/STM32_USB_Device_Library/Class/MSC/Src/usbd_msc_bot.c ****   //printf("MSC_BOT_DataIn %d\r\n",hmsc->bot_state);
 196:Middlewares/ST/STM32_USB_Device_Library/Class/MSC/Src/usbd_msc_bot.c ****   switch (hmsc->bot_state)
 197:Middlewares/ST/STM32_USB_Device_Library/Class/MSC/Src/usbd_msc_bot.c ****   {
 198:Middlewares/ST/STM32_USB_Device_Library/Class/MSC/Src/usbd_msc_bot.c ****     case USBD_BOT_DATA_IN:
 199:Middlewares/ST/STM32_USB_Device_Library/Class/MSC/Src/usbd_msc_bot.c ****       if (SCSI_ProcessCmd(pdev, hmsc->cbw.bLUN, &hmsc->cbw.CB[0]) < 0)
 200:Middlewares/ST/STM32_USB_Device_Library/Class/MSC/Src/usbd_msc_bot.c ****       {
 201:Middlewares/ST/STM32_USB_Device_Library/Class/MSC/Src/usbd_msc_bot.c ****         MSC_BOT_SendCSW(pdev, USBD_CSW_CMD_FAILED);
ARM GAS  C:\Users\ADMINI~1\AppData\Local\Temp\ccG84XQ1.s 			page 5


 202:Middlewares/ST/STM32_USB_Device_Library/Class/MSC/Src/usbd_msc_bot.c ****       }
 203:Middlewares/ST/STM32_USB_Device_Library/Class/MSC/Src/usbd_msc_bot.c ****       break;
 204:Middlewares/ST/STM32_USB_Device_Library/Class/MSC/Src/usbd_msc_bot.c **** 
 205:Middlewares/ST/STM32_USB_Device_Library/Class/MSC/Src/usbd_msc_bot.c ****     case USBD_BOT_SEND_DATA:
 206:Middlewares/ST/STM32_USB_Device_Library/Class/MSC/Src/usbd_msc_bot.c ****     case USBD_BOT_LAST_DATA_IN:
 207:Middlewares/ST/STM32_USB_Device_Library/Class/MSC/Src/usbd_msc_bot.c ****       MSC_BOT_SendCSW(pdev, USBD_CSW_CMD_PASSED);
 208:Middlewares/ST/STM32_USB_Device_Library/Class/MSC/Src/usbd_msc_bot.c ****       break;
 209:Middlewares/ST/STM32_USB_Device_Library/Class/MSC/Src/usbd_msc_bot.c **** 
 210:Middlewares/ST/STM32_USB_Device_Library/Class/MSC/Src/usbd_msc_bot.c ****     default:
 211:Middlewares/ST/STM32_USB_Device_Library/Class/MSC/Src/usbd_msc_bot.c ****       break;
 212:Middlewares/ST/STM32_USB_Device_Library/Class/MSC/Src/usbd_msc_bot.c ****   }
 213:Middlewares/ST/STM32_USB_Device_Library/Class/MSC/Src/usbd_msc_bot.c **** }
 214:Middlewares/ST/STM32_USB_Device_Library/Class/MSC/Src/usbd_msc_bot.c **** /**
 215:Middlewares/ST/STM32_USB_Device_Library/Class/MSC/Src/usbd_msc_bot.c ****   * @brief  MSC_BOT_DataOut
 216:Middlewares/ST/STM32_USB_Device_Library/Class/MSC/Src/usbd_msc_bot.c ****   *         Process MSC OUT data
 217:Middlewares/ST/STM32_USB_Device_Library/Class/MSC/Src/usbd_msc_bot.c ****   * @param  pdev: device instance
 218:Middlewares/ST/STM32_USB_Device_Library/Class/MSC/Src/usbd_msc_bot.c ****   * @param  epnum: endpoint index
 219:Middlewares/ST/STM32_USB_Device_Library/Class/MSC/Src/usbd_msc_bot.c ****   * @retval None
 220:Middlewares/ST/STM32_USB_Device_Library/Class/MSC/Src/usbd_msc_bot.c ****   */
 221:Middlewares/ST/STM32_USB_Device_Library/Class/MSC/Src/usbd_msc_bot.c **** void MSC_BOT_DataOut(USBD_HandleTypeDef *pdev, uint8_t epnum)
 222:Middlewares/ST/STM32_USB_Device_Library/Class/MSC/Src/usbd_msc_bot.c **** {
 223:Middlewares/ST/STM32_USB_Device_Library/Class/MSC/Src/usbd_msc_bot.c ****   UNUSED(epnum);
 224:Middlewares/ST/STM32_USB_Device_Library/Class/MSC/Src/usbd_msc_bot.c **** 
 225:Middlewares/ST/STM32_USB_Device_Library/Class/MSC/Src/usbd_msc_bot.c ****   USBD_MSC_BOT_HandleTypeDef *hmsc = (USBD_MSC_BOT_HandleTypeDef *)pdev->pClassDataCmsit[pdev->clas
 226:Middlewares/ST/STM32_USB_Device_Library/Class/MSC/Src/usbd_msc_bot.c ****   
 227:Middlewares/ST/STM32_USB_Device_Library/Class/MSC/Src/usbd_msc_bot.c ****   if (hmsc == NULL)
 228:Middlewares/ST/STM32_USB_Device_Library/Class/MSC/Src/usbd_msc_bot.c ****   {
 229:Middlewares/ST/STM32_USB_Device_Library/Class/MSC/Src/usbd_msc_bot.c ****     return;
 230:Middlewares/ST/STM32_USB_Device_Library/Class/MSC/Src/usbd_msc_bot.c ****   }
 231:Middlewares/ST/STM32_USB_Device_Library/Class/MSC/Src/usbd_msc_bot.c ****   
 232:Middlewares/ST/STM32_USB_Device_Library/Class/MSC/Src/usbd_msc_bot.c ****   switch (hmsc->bot_state)
 233:Middlewares/ST/STM32_USB_Device_Library/Class/MSC/Src/usbd_msc_bot.c ****   {
 234:Middlewares/ST/STM32_USB_Device_Library/Class/MSC/Src/usbd_msc_bot.c ****     case USBD_BOT_IDLE:
 235:Middlewares/ST/STM32_USB_Device_Library/Class/MSC/Src/usbd_msc_bot.c ****       MSC_BOT_CBW_Decode(pdev);
 236:Middlewares/ST/STM32_USB_Device_Library/Class/MSC/Src/usbd_msc_bot.c ****       break;
 237:Middlewares/ST/STM32_USB_Device_Library/Class/MSC/Src/usbd_msc_bot.c **** 
 238:Middlewares/ST/STM32_USB_Device_Library/Class/MSC/Src/usbd_msc_bot.c ****     case USBD_BOT_DATA_OUT:      
 239:Middlewares/ST/STM32_USB_Device_Library/Class/MSC/Src/usbd_msc_bot.c ****       if (SCSI_ProcessCmd(pdev, hmsc->cbw.bLUN, &hmsc->cbw.CB[0]) < 0)
 240:Middlewares/ST/STM32_USB_Device_Library/Class/MSC/Src/usbd_msc_bot.c ****       {
 241:Middlewares/ST/STM32_USB_Device_Library/Class/MSC/Src/usbd_msc_bot.c ****         MSC_BOT_SendCSW(pdev, USBD_CSW_CMD_FAILED);
 242:Middlewares/ST/STM32_USB_Device_Library/Class/MSC/Src/usbd_msc_bot.c ****       }
 243:Middlewares/ST/STM32_USB_Device_Library/Class/MSC/Src/usbd_msc_bot.c ****       break;
 244:Middlewares/ST/STM32_USB_Device_Library/Class/MSC/Src/usbd_msc_bot.c **** 
 245:Middlewares/ST/STM32_USB_Device_Library/Class/MSC/Src/usbd_msc_bot.c ****     default:
 246:Middlewares/ST/STM32_USB_Device_Library/Class/MSC/Src/usbd_msc_bot.c ****       break;
 247:Middlewares/ST/STM32_USB_Device_Library/Class/MSC/Src/usbd_msc_bot.c ****   }
 248:Middlewares/ST/STM32_USB_Device_Library/Class/MSC/Src/usbd_msc_bot.c **** }
 249:Middlewares/ST/STM32_USB_Device_Library/Class/MSC/Src/usbd_msc_bot.c **** 
 250:Middlewares/ST/STM32_USB_Device_Library/Class/MSC/Src/usbd_msc_bot.c **** /**
 251:Middlewares/ST/STM32_USB_Device_Library/Class/MSC/Src/usbd_msc_bot.c ****   * @brief  MSC_BOT_CBW_Decode
 252:Middlewares/ST/STM32_USB_Device_Library/Class/MSC/Src/usbd_msc_bot.c ****   *         Decode the CBW command and set the BOT state machine accordingly
 253:Middlewares/ST/STM32_USB_Device_Library/Class/MSC/Src/usbd_msc_bot.c ****   * @param  pdev: device instance
 254:Middlewares/ST/STM32_USB_Device_Library/Class/MSC/Src/usbd_msc_bot.c ****   * @retval None
 255:Middlewares/ST/STM32_USB_Device_Library/Class/MSC/Src/usbd_msc_bot.c ****   */
 256:Middlewares/ST/STM32_USB_Device_Library/Class/MSC/Src/usbd_msc_bot.c **** static void  MSC_BOT_CBW_Decode(USBD_HandleTypeDef *pdev)
 257:Middlewares/ST/STM32_USB_Device_Library/Class/MSC/Src/usbd_msc_bot.c **** {
 258:Middlewares/ST/STM32_USB_Device_Library/Class/MSC/Src/usbd_msc_bot.c ****   USBD_MSC_BOT_HandleTypeDef *hmsc = (USBD_MSC_BOT_HandleTypeDef *)pdev->pClassDataCmsit[pdev->clas
ARM GAS  C:\Users\ADMINI~1\AppData\Local\Temp\ccG84XQ1.s 			page 6


 259:Middlewares/ST/STM32_USB_Device_Library/Class/MSC/Src/usbd_msc_bot.c **** 
 260:Middlewares/ST/STM32_USB_Device_Library/Class/MSC/Src/usbd_msc_bot.c **** #ifdef USE_USBD_COMPOSITE
 261:Middlewares/ST/STM32_USB_Device_Library/Class/MSC/Src/usbd_msc_bot.c ****   /* Get the Endpoints addresses allocated for this class instance */
 262:Middlewares/ST/STM32_USB_Device_Library/Class/MSC/Src/usbd_msc_bot.c ****   MSCInEpAdd  = USBD_CoreGetEPAdd(pdev, USBD_EP_IN, USBD_EP_TYPE_BULK);
 263:Middlewares/ST/STM32_USB_Device_Library/Class/MSC/Src/usbd_msc_bot.c ****   MSCOutEpAdd = USBD_CoreGetEPAdd(pdev, USBD_EP_OUT, USBD_EP_TYPE_BULK);
 264:Middlewares/ST/STM32_USB_Device_Library/Class/MSC/Src/usbd_msc_bot.c **** #endif /* USE_USBD_COMPOSITE */
 265:Middlewares/ST/STM32_USB_Device_Library/Class/MSC/Src/usbd_msc_bot.c **** 
 266:Middlewares/ST/STM32_USB_Device_Library/Class/MSC/Src/usbd_msc_bot.c ****   if (hmsc == NULL)
 267:Middlewares/ST/STM32_USB_Device_Library/Class/MSC/Src/usbd_msc_bot.c ****   {
 268:Middlewares/ST/STM32_USB_Device_Library/Class/MSC/Src/usbd_msc_bot.c ****     return;
 269:Middlewares/ST/STM32_USB_Device_Library/Class/MSC/Src/usbd_msc_bot.c ****   }
 270:Middlewares/ST/STM32_USB_Device_Library/Class/MSC/Src/usbd_msc_bot.c **** 
 271:Middlewares/ST/STM32_USB_Device_Library/Class/MSC/Src/usbd_msc_bot.c ****   hmsc->csw.dTag = hmsc->cbw.dTag;
 272:Middlewares/ST/STM32_USB_Device_Library/Class/MSC/Src/usbd_msc_bot.c ****   hmsc->csw.dDataResidue = hmsc->cbw.dDataLength;
 273:Middlewares/ST/STM32_USB_Device_Library/Class/MSC/Src/usbd_msc_bot.c **** 
 274:Middlewares/ST/STM32_USB_Device_Library/Class/MSC/Src/usbd_msc_bot.c ****   if ((USBD_LL_GetRxDataSize(pdev, MSCOutEpAdd) != USBD_BOT_CBW_LENGTH) ||
 275:Middlewares/ST/STM32_USB_Device_Library/Class/MSC/Src/usbd_msc_bot.c ****       (hmsc->cbw.dSignature != USBD_BOT_CBW_SIGNATURE) ||
 276:Middlewares/ST/STM32_USB_Device_Library/Class/MSC/Src/usbd_msc_bot.c ****       (hmsc->cbw.bLUN > 1U) || (hmsc->cbw.bCBLength < 1U) ||
 277:Middlewares/ST/STM32_USB_Device_Library/Class/MSC/Src/usbd_msc_bot.c ****       (hmsc->cbw.bCBLength > 16U))
 278:Middlewares/ST/STM32_USB_Device_Library/Class/MSC/Src/usbd_msc_bot.c ****   {
 279:Middlewares/ST/STM32_USB_Device_Library/Class/MSC/Src/usbd_msc_bot.c ****     SCSI_SenseCode(pdev, hmsc->cbw.bLUN, ILLEGAL_REQUEST, INVALID_CDB);
 280:Middlewares/ST/STM32_USB_Device_Library/Class/MSC/Src/usbd_msc_bot.c **** 
 281:Middlewares/ST/STM32_USB_Device_Library/Class/MSC/Src/usbd_msc_bot.c ****     hmsc->bot_status = USBD_BOT_STATUS_ERROR;
 282:Middlewares/ST/STM32_USB_Device_Library/Class/MSC/Src/usbd_msc_bot.c ****     MSC_BOT_Abort(pdev);
 283:Middlewares/ST/STM32_USB_Device_Library/Class/MSC/Src/usbd_msc_bot.c ****   }
 284:Middlewares/ST/STM32_USB_Device_Library/Class/MSC/Src/usbd_msc_bot.c ****   else
 285:Middlewares/ST/STM32_USB_Device_Library/Class/MSC/Src/usbd_msc_bot.c ****   {
 286:Middlewares/ST/STM32_USB_Device_Library/Class/MSC/Src/usbd_msc_bot.c ****     if (SCSI_ProcessCmd(pdev, hmsc->cbw.bLUN, &hmsc->cbw.CB[0]) < 0)
 287:Middlewares/ST/STM32_USB_Device_Library/Class/MSC/Src/usbd_msc_bot.c ****     {
 288:Middlewares/ST/STM32_USB_Device_Library/Class/MSC/Src/usbd_msc_bot.c ****       if (hmsc->bot_state == USBD_BOT_NO_DATA)
 289:Middlewares/ST/STM32_USB_Device_Library/Class/MSC/Src/usbd_msc_bot.c ****       {
 290:Middlewares/ST/STM32_USB_Device_Library/Class/MSC/Src/usbd_msc_bot.c ****         MSC_BOT_SendCSW(pdev, USBD_CSW_CMD_FAILED);
 291:Middlewares/ST/STM32_USB_Device_Library/Class/MSC/Src/usbd_msc_bot.c ****       }
 292:Middlewares/ST/STM32_USB_Device_Library/Class/MSC/Src/usbd_msc_bot.c ****       else
 293:Middlewares/ST/STM32_USB_Device_Library/Class/MSC/Src/usbd_msc_bot.c ****       {
 294:Middlewares/ST/STM32_USB_Device_Library/Class/MSC/Src/usbd_msc_bot.c ****         MSC_BOT_Abort(pdev);
 295:Middlewares/ST/STM32_USB_Device_Library/Class/MSC/Src/usbd_msc_bot.c ****       }
 296:Middlewares/ST/STM32_USB_Device_Library/Class/MSC/Src/usbd_msc_bot.c ****     }
 297:Middlewares/ST/STM32_USB_Device_Library/Class/MSC/Src/usbd_msc_bot.c ****     /* Burst xfer handled internally */
 298:Middlewares/ST/STM32_USB_Device_Library/Class/MSC/Src/usbd_msc_bot.c ****     else if ((hmsc->bot_state != USBD_BOT_DATA_IN) &&
 299:Middlewares/ST/STM32_USB_Device_Library/Class/MSC/Src/usbd_msc_bot.c ****              (hmsc->bot_state != USBD_BOT_DATA_OUT) &&
 300:Middlewares/ST/STM32_USB_Device_Library/Class/MSC/Src/usbd_msc_bot.c ****              (hmsc->bot_state != USBD_BOT_LAST_DATA_IN))
 301:Middlewares/ST/STM32_USB_Device_Library/Class/MSC/Src/usbd_msc_bot.c ****     {
 302:Middlewares/ST/STM32_USB_Device_Library/Class/MSC/Src/usbd_msc_bot.c ****       
 303:Middlewares/ST/STM32_USB_Device_Library/Class/MSC/Src/usbd_msc_bot.c ****       if (hmsc->bot_data_length > 0U)
 304:Middlewares/ST/STM32_USB_Device_Library/Class/MSC/Src/usbd_msc_bot.c ****       {
 305:Middlewares/ST/STM32_USB_Device_Library/Class/MSC/Src/usbd_msc_bot.c ****       	
 306:Middlewares/ST/STM32_USB_Device_Library/Class/MSC/Src/usbd_msc_bot.c ****         MSC_BOT_SendData(pdev, hmsc->bot_data, hmsc->bot_data_length);
 307:Middlewares/ST/STM32_USB_Device_Library/Class/MSC/Src/usbd_msc_bot.c ****       }
 308:Middlewares/ST/STM32_USB_Device_Library/Class/MSC/Src/usbd_msc_bot.c ****       else if (hmsc->bot_data_length == 0U)
 309:Middlewares/ST/STM32_USB_Device_Library/Class/MSC/Src/usbd_msc_bot.c ****       {
 310:Middlewares/ST/STM32_USB_Device_Library/Class/MSC/Src/usbd_msc_bot.c ****         MSC_BOT_SendCSW(pdev, USBD_CSW_CMD_PASSED);
 311:Middlewares/ST/STM32_USB_Device_Library/Class/MSC/Src/usbd_msc_bot.c ****       }
 312:Middlewares/ST/STM32_USB_Device_Library/Class/MSC/Src/usbd_msc_bot.c ****       else
 313:Middlewares/ST/STM32_USB_Device_Library/Class/MSC/Src/usbd_msc_bot.c ****       {
 314:Middlewares/ST/STM32_USB_Device_Library/Class/MSC/Src/usbd_msc_bot.c ****         MSC_BOT_Abort(pdev);
 315:Middlewares/ST/STM32_USB_Device_Library/Class/MSC/Src/usbd_msc_bot.c ****       }
ARM GAS  C:\Users\ADMINI~1\AppData\Local\Temp\ccG84XQ1.s 			page 7


 316:Middlewares/ST/STM32_USB_Device_Library/Class/MSC/Src/usbd_msc_bot.c ****     }
 317:Middlewares/ST/STM32_USB_Device_Library/Class/MSC/Src/usbd_msc_bot.c ****     else
 318:Middlewares/ST/STM32_USB_Device_Library/Class/MSC/Src/usbd_msc_bot.c ****     {
 319:Middlewares/ST/STM32_USB_Device_Library/Class/MSC/Src/usbd_msc_bot.c ****       return;
 320:Middlewares/ST/STM32_USB_Device_Library/Class/MSC/Src/usbd_msc_bot.c ****     }
 321:Middlewares/ST/STM32_USB_Device_Library/Class/MSC/Src/usbd_msc_bot.c ****   }
 322:Middlewares/ST/STM32_USB_Device_Library/Class/MSC/Src/usbd_msc_bot.c **** }
 323:Middlewares/ST/STM32_USB_Device_Library/Class/MSC/Src/usbd_msc_bot.c **** 
 324:Middlewares/ST/STM32_USB_Device_Library/Class/MSC/Src/usbd_msc_bot.c **** /**
 325:Middlewares/ST/STM32_USB_Device_Library/Class/MSC/Src/usbd_msc_bot.c ****   * @brief  MSC_BOT_SendData
 326:Middlewares/ST/STM32_USB_Device_Library/Class/MSC/Src/usbd_msc_bot.c ****   *         Send the requested data
 327:Middlewares/ST/STM32_USB_Device_Library/Class/MSC/Src/usbd_msc_bot.c ****   * @param  pdev: device instance
 328:Middlewares/ST/STM32_USB_Device_Library/Class/MSC/Src/usbd_msc_bot.c ****   * @param  buf: pointer to data buffer
 329:Middlewares/ST/STM32_USB_Device_Library/Class/MSC/Src/usbd_msc_bot.c ****   * @param  len: Data Length
 330:Middlewares/ST/STM32_USB_Device_Library/Class/MSC/Src/usbd_msc_bot.c ****   * @retval None
 331:Middlewares/ST/STM32_USB_Device_Library/Class/MSC/Src/usbd_msc_bot.c ****   */
 332:Middlewares/ST/STM32_USB_Device_Library/Class/MSC/Src/usbd_msc_bot.c **** static void  MSC_BOT_SendData(USBD_HandleTypeDef *pdev, uint8_t *pbuf, uint32_t len)
 333:Middlewares/ST/STM32_USB_Device_Library/Class/MSC/Src/usbd_msc_bot.c **** {
  29              		.loc 1 333 1 view -0
  30              		.cfi_startproc
  31              		@ args = 0, pretend = 0, frame = 0
  32              		@ frame_needed = 0, uses_anonymous_args = 0
  33              		.loc 1 333 1 is_stmt 0 view .LVU1
  34 0000 F8B5     		push	{r3, r4, r5, r6, r7, lr}
  35              	.LCFI0:
  36              		.cfi_def_cfa_offset 24
  37              		.cfi_offset 3, -24
  38              		.cfi_offset 4, -20
  39              		.cfi_offset 5, -16
  40              		.cfi_offset 6, -12
  41              		.cfi_offset 7, -8
  42              		.cfi_offset 14, -4
  43 0002 0446     		mov	r4, r0
  44 0004 0F46     		mov	r7, r1
  45 0006 1646     		mov	r6, r2
 334:Middlewares/ST/STM32_USB_Device_Library/Class/MSC/Src/usbd_msc_bot.c ****   USBD_MSC_BOT_HandleTypeDef *hmsc = (USBD_MSC_BOT_HandleTypeDef *)pdev->pClassDataCmsit[pdev->clas
  46              		.loc 1 334 3 is_stmt 1 view .LVU2
  47              		.loc 1 334 31 is_stmt 0 view .LVU3
  48 0008 D0F8F832 		ldr	r3, [r0, #760]
  49 000c 03F1B20C 		add	ip, r3, #178
  50 0010 00EB8C0C 		add	ip, r0, ip, lsl #2
  51 0014 DCF80450 		ldr	r5, [ip, #4]
  52              	.LVL1:
 335:Middlewares/ST/STM32_USB_Device_Library/Class/MSC/Src/usbd_msc_bot.c **** 
 336:Middlewares/ST/STM32_USB_Device_Library/Class/MSC/Src/usbd_msc_bot.c ****   uint32_t length;
  53              		.loc 1 336 3 is_stmt 1 view .LVU4
 337:Middlewares/ST/STM32_USB_Device_Library/Class/MSC/Src/usbd_msc_bot.c **** 
 338:Middlewares/ST/STM32_USB_Device_Library/Class/MSC/Src/usbd_msc_bot.c **** #ifdef USE_USBD_COMPOSITE
 339:Middlewares/ST/STM32_USB_Device_Library/Class/MSC/Src/usbd_msc_bot.c ****   /* Get the Endpoints addresses allocated for this class instance */
 340:Middlewares/ST/STM32_USB_Device_Library/Class/MSC/Src/usbd_msc_bot.c ****   MSCInEpAdd  = USBD_CoreGetEPAdd(pdev, USBD_EP_IN, USBD_EP_TYPE_BULK);
  54              		.loc 1 340 3 view .LVU5
  55              		.loc 1 340 17 is_stmt 0 view .LVU6
  56 0018 0222     		movs	r2, #2
  57              	.LVL2:
  58              		.loc 1 340 17 view .LVU7
  59 001a 8021     		movs	r1, #128
  60              	.LVL3:
ARM GAS  C:\Users\ADMINI~1\AppData\Local\Temp\ccG84XQ1.s 			page 8


  61              		.loc 1 340 17 view .LVU8
  62 001c FFF7FEFF 		bl	USBD_CoreGetEPAdd
  63              	.LVL4:
  64              		.loc 1 340 15 view .LVU9
  65 0020 0F4B     		ldr	r3, .L4
  66 0022 1870     		strb	r0, [r3]
 341:Middlewares/ST/STM32_USB_Device_Library/Class/MSC/Src/usbd_msc_bot.c ****   MSCOutEpAdd = USBD_CoreGetEPAdd(pdev, USBD_EP_OUT, USBD_EP_TYPE_BULK);
  67              		.loc 1 341 3 is_stmt 1 view .LVU10
  68              		.loc 1 341 17 is_stmt 0 view .LVU11
  69 0024 0222     		movs	r2, #2
  70 0026 0021     		movs	r1, #0
  71 0028 2046     		mov	r0, r4
  72 002a FFF7FEFF 		bl	USBD_CoreGetEPAdd
  73              	.LVL5:
  74              		.loc 1 341 15 view .LVU12
  75 002e 0D4B     		ldr	r3, .L4+4
  76 0030 1870     		strb	r0, [r3]
 342:Middlewares/ST/STM32_USB_Device_Library/Class/MSC/Src/usbd_msc_bot.c **** #endif /* USE_USBD_COMPOSITE */
 343:Middlewares/ST/STM32_USB_Device_Library/Class/MSC/Src/usbd_msc_bot.c **** 
 344:Middlewares/ST/STM32_USB_Device_Library/Class/MSC/Src/usbd_msc_bot.c ****   if (hmsc == NULL)
  77              		.loc 1 344 3 is_stmt 1 view .LVU13
  78              		.loc 1 344 6 is_stmt 0 view .LVU14
  79 0032 A5B1     		cbz	r5, .L1
 345:Middlewares/ST/STM32_USB_Device_Library/Class/MSC/Src/usbd_msc_bot.c ****   {
 346:Middlewares/ST/STM32_USB_Device_Library/Class/MSC/Src/usbd_msc_bot.c ****     return;
 347:Middlewares/ST/STM32_USB_Device_Library/Class/MSC/Src/usbd_msc_bot.c ****   }
 348:Middlewares/ST/STM32_USB_Device_Library/Class/MSC/Src/usbd_msc_bot.c **** 
 349:Middlewares/ST/STM32_USB_Device_Library/Class/MSC/Src/usbd_msc_bot.c ****   length = MIN(hmsc->cbw.dDataLength, len);
  80              		.loc 1 349 3 is_stmt 1 view .LVU15
  81              		.loc 1 349 12 is_stmt 0 view .LVU16
  82 0034 D5F81832 		ldr	r3, [r5, #536]
  83              	.LVL6:
 350:Middlewares/ST/STM32_USB_Device_Library/Class/MSC/Src/usbd_msc_bot.c ****   
 351:Middlewares/ST/STM32_USB_Device_Library/Class/MSC/Src/usbd_msc_bot.c ****   hmsc->csw.dDataResidue -= len;
  84              		.loc 1 351 3 is_stmt 1 view .LVU17
  85              		.loc 1 351 26 is_stmt 0 view .LVU18
  86 0038 D5F83822 		ldr	r2, [r5, #568]
  87 003c 921B     		subs	r2, r2, r6
  88 003e C5F83822 		str	r2, [r5, #568]
 352:Middlewares/ST/STM32_USB_Device_Library/Class/MSC/Src/usbd_msc_bot.c ****   hmsc->csw.bStatus = USBD_CSW_CMD_PASSED;
  89              		.loc 1 352 3 is_stmt 1 view .LVU19
  90              		.loc 1 352 21 is_stmt 0 view .LVU20
  91 0042 0022     		movs	r2, #0
  92 0044 85F83C22 		strb	r2, [r5, #572]
 353:Middlewares/ST/STM32_USB_Device_Library/Class/MSC/Src/usbd_msc_bot.c ****   hmsc->bot_state = USBD_BOT_SEND_DATA;
  93              		.loc 1 353 3 is_stmt 1 view .LVU21
  94              		.loc 1 353 19 is_stmt 0 view .LVU22
  95 0048 0422     		movs	r2, #4
  96 004a 2A72     		strb	r2, [r5, #8]
 354:Middlewares/ST/STM32_USB_Device_Library/Class/MSC/Src/usbd_msc_bot.c **** 
 355:Middlewares/ST/STM32_USB_Device_Library/Class/MSC/Src/usbd_msc_bot.c ****   (void)USBD_LL_Transmit(pdev, MSCInEpAdd, pbuf, length);
  97              		.loc 1 355 3 is_stmt 1 view .LVU23
  98              		.loc 1 355 9 is_stmt 0 view .LVU24
  99 004c B342     		cmp	r3, r6
 100 004e 28BF     		it	cs
 101 0050 3346     		movcs	r3, r6
 102              	.LVL7:
ARM GAS  C:\Users\ADMINI~1\AppData\Local\Temp\ccG84XQ1.s 			page 9


 103              		.loc 1 355 9 view .LVU25
 104 0052 3A46     		mov	r2, r7
 105 0054 0249     		ldr	r1, .L4
 106 0056 0978     		ldrb	r1, [r1]	@ zero_extendqisi2
 107 0058 2046     		mov	r0, r4
 108 005a FFF7FEFF 		bl	USBD_LL_Transmit
 109              	.LVL8:
 110              	.L1:
 356:Middlewares/ST/STM32_USB_Device_Library/Class/MSC/Src/usbd_msc_bot.c **** }
 111              		.loc 1 356 1 view .LVU26
 112 005e F8BD     		pop	{r3, r4, r5, r6, r7, pc}
 113              	.LVL9:
 114              	.L5:
 115              		.loc 1 356 1 view .LVU27
 116              		.align	2
 117              	.L4:
 118 0060 00000000 		.word	MSCInEpAdd
 119 0064 00000000 		.word	MSCOutEpAdd
 120              		.cfi_endproc
 121              	.LFE140:
 123              		.section	.text.MSC_BOT_Abort,"ax",%progbits
 124              		.align	1
 125              		.syntax unified
 126              		.thumb
 127              		.thumb_func
 129              	MSC_BOT_Abort:
 130              	.LVL10:
 131              	.LFB142:
 357:Middlewares/ST/STM32_USB_Device_Library/Class/MSC/Src/usbd_msc_bot.c **** 
 358:Middlewares/ST/STM32_USB_Device_Library/Class/MSC/Src/usbd_msc_bot.c **** /**
 359:Middlewares/ST/STM32_USB_Device_Library/Class/MSC/Src/usbd_msc_bot.c ****   * @brief  MSC_BOT_SendCSW
 360:Middlewares/ST/STM32_USB_Device_Library/Class/MSC/Src/usbd_msc_bot.c ****   *         Send the Command Status Wrapper
 361:Middlewares/ST/STM32_USB_Device_Library/Class/MSC/Src/usbd_msc_bot.c ****   * @param  pdev: device instance
 362:Middlewares/ST/STM32_USB_Device_Library/Class/MSC/Src/usbd_msc_bot.c ****   * @param  status : CSW status
 363:Middlewares/ST/STM32_USB_Device_Library/Class/MSC/Src/usbd_msc_bot.c ****   * @retval None
 364:Middlewares/ST/STM32_USB_Device_Library/Class/MSC/Src/usbd_msc_bot.c ****   */
 365:Middlewares/ST/STM32_USB_Device_Library/Class/MSC/Src/usbd_msc_bot.c **** void  MSC_BOT_SendCSW(USBD_HandleTypeDef *pdev, uint8_t CSW_Status)
 366:Middlewares/ST/STM32_USB_Device_Library/Class/MSC/Src/usbd_msc_bot.c **** {
 367:Middlewares/ST/STM32_USB_Device_Library/Class/MSC/Src/usbd_msc_bot.c ****   USBD_MSC_BOT_HandleTypeDef *hmsc = (USBD_MSC_BOT_HandleTypeDef *)pdev->pClassDataCmsit[pdev->clas
 368:Middlewares/ST/STM32_USB_Device_Library/Class/MSC/Src/usbd_msc_bot.c **** 
 369:Middlewares/ST/STM32_USB_Device_Library/Class/MSC/Src/usbd_msc_bot.c **** #ifdef USE_USBD_COMPOSITE
 370:Middlewares/ST/STM32_USB_Device_Library/Class/MSC/Src/usbd_msc_bot.c ****   /* Get the Endpoints addresses allocated for this class instance */
 371:Middlewares/ST/STM32_USB_Device_Library/Class/MSC/Src/usbd_msc_bot.c ****   MSCInEpAdd  = USBD_CoreGetEPAdd(pdev, USBD_EP_IN, USBD_EP_TYPE_BULK);
 372:Middlewares/ST/STM32_USB_Device_Library/Class/MSC/Src/usbd_msc_bot.c ****   MSCOutEpAdd = USBD_CoreGetEPAdd(pdev, USBD_EP_OUT, USBD_EP_TYPE_BULK);
 373:Middlewares/ST/STM32_USB_Device_Library/Class/MSC/Src/usbd_msc_bot.c **** #endif /* USE_USBD_COMPOSITE */
 374:Middlewares/ST/STM32_USB_Device_Library/Class/MSC/Src/usbd_msc_bot.c **** 
 375:Middlewares/ST/STM32_USB_Device_Library/Class/MSC/Src/usbd_msc_bot.c ****   if (hmsc == NULL)
 376:Middlewares/ST/STM32_USB_Device_Library/Class/MSC/Src/usbd_msc_bot.c ****   {
 377:Middlewares/ST/STM32_USB_Device_Library/Class/MSC/Src/usbd_msc_bot.c ****     return;
 378:Middlewares/ST/STM32_USB_Device_Library/Class/MSC/Src/usbd_msc_bot.c ****   }
 379:Middlewares/ST/STM32_USB_Device_Library/Class/MSC/Src/usbd_msc_bot.c **** 
 380:Middlewares/ST/STM32_USB_Device_Library/Class/MSC/Src/usbd_msc_bot.c ****   hmsc->csw.dSignature = USBD_BOT_CSW_SIGNATURE;
 381:Middlewares/ST/STM32_USB_Device_Library/Class/MSC/Src/usbd_msc_bot.c ****   hmsc->csw.bStatus = CSW_Status;
 382:Middlewares/ST/STM32_USB_Device_Library/Class/MSC/Src/usbd_msc_bot.c ****   hmsc->bot_state = USBD_BOT_IDLE;
 383:Middlewares/ST/STM32_USB_Device_Library/Class/MSC/Src/usbd_msc_bot.c **** 
 384:Middlewares/ST/STM32_USB_Device_Library/Class/MSC/Src/usbd_msc_bot.c ****   (void)USBD_LL_Transmit(pdev, MSCInEpAdd, (uint8_t *)&hmsc->csw,
 385:Middlewares/ST/STM32_USB_Device_Library/Class/MSC/Src/usbd_msc_bot.c ****                          USBD_BOT_CSW_LENGTH);
ARM GAS  C:\Users\ADMINI~1\AppData\Local\Temp\ccG84XQ1.s 			page 10


 386:Middlewares/ST/STM32_USB_Device_Library/Class/MSC/Src/usbd_msc_bot.c **** 
 387:Middlewares/ST/STM32_USB_Device_Library/Class/MSC/Src/usbd_msc_bot.c ****   /* Prepare EP to Receive next Cmd */
 388:Middlewares/ST/STM32_USB_Device_Library/Class/MSC/Src/usbd_msc_bot.c ****   (void)USBD_LL_PrepareReceive(pdev, MSCOutEpAdd, (uint8_t *)&hmsc->cbw,
 389:Middlewares/ST/STM32_USB_Device_Library/Class/MSC/Src/usbd_msc_bot.c ****                                USBD_BOT_CBW_LENGTH);
 390:Middlewares/ST/STM32_USB_Device_Library/Class/MSC/Src/usbd_msc_bot.c **** }
 391:Middlewares/ST/STM32_USB_Device_Library/Class/MSC/Src/usbd_msc_bot.c **** 
 392:Middlewares/ST/STM32_USB_Device_Library/Class/MSC/Src/usbd_msc_bot.c **** /**
 393:Middlewares/ST/STM32_USB_Device_Library/Class/MSC/Src/usbd_msc_bot.c ****   * @brief  MSC_BOT_Abort
 394:Middlewares/ST/STM32_USB_Device_Library/Class/MSC/Src/usbd_msc_bot.c ****   *         Abort the current transfer
 395:Middlewares/ST/STM32_USB_Device_Library/Class/MSC/Src/usbd_msc_bot.c ****   * @param  pdev: device instance
 396:Middlewares/ST/STM32_USB_Device_Library/Class/MSC/Src/usbd_msc_bot.c ****   * @retval status
 397:Middlewares/ST/STM32_USB_Device_Library/Class/MSC/Src/usbd_msc_bot.c ****   */
 398:Middlewares/ST/STM32_USB_Device_Library/Class/MSC/Src/usbd_msc_bot.c **** 
 399:Middlewares/ST/STM32_USB_Device_Library/Class/MSC/Src/usbd_msc_bot.c **** static void  MSC_BOT_Abort(USBD_HandleTypeDef *pdev)
 400:Middlewares/ST/STM32_USB_Device_Library/Class/MSC/Src/usbd_msc_bot.c **** {
 132              		.loc 1 400 1 is_stmt 1 view -0
 133              		.cfi_startproc
 134              		@ args = 0, pretend = 0, frame = 0
 135              		@ frame_needed = 0, uses_anonymous_args = 0
 136              		.loc 1 400 1 is_stmt 0 view .LVU29
 137 0000 38B5     		push	{r3, r4, r5, lr}
 138              	.LCFI1:
 139              		.cfi_def_cfa_offset 16
 140              		.cfi_offset 3, -16
 141              		.cfi_offset 4, -12
 142              		.cfi_offset 5, -8
 143              		.cfi_offset 14, -4
 144 0002 0446     		mov	r4, r0
 401:Middlewares/ST/STM32_USB_Device_Library/Class/MSC/Src/usbd_msc_bot.c ****   USBD_MSC_BOT_HandleTypeDef *hmsc = (USBD_MSC_BOT_HandleTypeDef *)pdev->pClassDataCmsit[pdev->clas
 145              		.loc 1 401 3 is_stmt 1 view .LVU30
 146              		.loc 1 401 94 is_stmt 0 view .LVU31
 147 0004 D0F8F832 		ldr	r3, [r0, #760]
 148              		.loc 1 401 31 view .LVU32
 149 0008 B233     		adds	r3, r3, #178
 150 000a 00EB8303 		add	r3, r0, r3, lsl #2
 151 000e 5D68     		ldr	r5, [r3, #4]
 152              	.LVL11:
 402:Middlewares/ST/STM32_USB_Device_Library/Class/MSC/Src/usbd_msc_bot.c **** 
 403:Middlewares/ST/STM32_USB_Device_Library/Class/MSC/Src/usbd_msc_bot.c **** #ifdef USE_USBD_COMPOSITE
 404:Middlewares/ST/STM32_USB_Device_Library/Class/MSC/Src/usbd_msc_bot.c ****   /* Get the Endpoints addresses allocated for this class instance */
 405:Middlewares/ST/STM32_USB_Device_Library/Class/MSC/Src/usbd_msc_bot.c ****   MSCInEpAdd  = USBD_CoreGetEPAdd(pdev, USBD_EP_IN, USBD_EP_TYPE_BULK);
 153              		.loc 1 405 3 is_stmt 1 view .LVU33
 154              		.loc 1 405 17 is_stmt 0 view .LVU34
 155 0010 0222     		movs	r2, #2
 156 0012 8021     		movs	r1, #128
 157 0014 FFF7FEFF 		bl	USBD_CoreGetEPAdd
 158              	.LVL12:
 159              		.loc 1 405 15 view .LVU35
 160 0018 154B     		ldr	r3, .L12
 161 001a 1870     		strb	r0, [r3]
 406:Middlewares/ST/STM32_USB_Device_Library/Class/MSC/Src/usbd_msc_bot.c ****   MSCOutEpAdd = USBD_CoreGetEPAdd(pdev, USBD_EP_OUT, USBD_EP_TYPE_BULK);
 162              		.loc 1 406 3 is_stmt 1 view .LVU36
 163              		.loc 1 406 17 is_stmt 0 view .LVU37
 164 001c 0222     		movs	r2, #2
 165 001e 0021     		movs	r1, #0
 166 0020 2046     		mov	r0, r4
 167 0022 FFF7FEFF 		bl	USBD_CoreGetEPAdd
ARM GAS  C:\Users\ADMINI~1\AppData\Local\Temp\ccG84XQ1.s 			page 11


 168              	.LVL13:
 169              		.loc 1 406 15 view .LVU38
 170 0026 134B     		ldr	r3, .L12+4
 171 0028 1870     		strb	r0, [r3]
 407:Middlewares/ST/STM32_USB_Device_Library/Class/MSC/Src/usbd_msc_bot.c **** #endif /* USE_USBD_COMPOSITE */
 408:Middlewares/ST/STM32_USB_Device_Library/Class/MSC/Src/usbd_msc_bot.c **** 
 409:Middlewares/ST/STM32_USB_Device_Library/Class/MSC/Src/usbd_msc_bot.c ****   if (hmsc == NULL)
 172              		.loc 1 409 3 is_stmt 1 view .LVU39
 173              		.loc 1 409 6 is_stmt 0 view .LVU40
 174 002a 7DB1     		cbz	r5, .L6
 410:Middlewares/ST/STM32_USB_Device_Library/Class/MSC/Src/usbd_msc_bot.c ****   {
 411:Middlewares/ST/STM32_USB_Device_Library/Class/MSC/Src/usbd_msc_bot.c ****     return;
 412:Middlewares/ST/STM32_USB_Device_Library/Class/MSC/Src/usbd_msc_bot.c ****   }
 413:Middlewares/ST/STM32_USB_Device_Library/Class/MSC/Src/usbd_msc_bot.c **** 
 414:Middlewares/ST/STM32_USB_Device_Library/Class/MSC/Src/usbd_msc_bot.c ****   if ((hmsc->cbw.bmFlags == 0U) &&
 175              		.loc 1 414 3 is_stmt 1 view .LVU41
 176              		.loc 1 414 17 is_stmt 0 view .LVU42
 177 002c 95F81C32 		ldrb	r3, [r5, #540]	@ zero_extendqisi2
 178              		.loc 1 414 6 view .LVU43
 179 0030 23B9     		cbnz	r3, .L8
 415:Middlewares/ST/STM32_USB_Device_Library/Class/MSC/Src/usbd_msc_bot.c ****       (hmsc->cbw.dDataLength != 0U) &&
 180              		.loc 1 415 17 discriminator 1 view .LVU44
 181 0032 D5F81832 		ldr	r3, [r5, #536]
 414:Middlewares/ST/STM32_USB_Device_Library/Class/MSC/Src/usbd_msc_bot.c ****       (hmsc->cbw.dDataLength != 0U) &&
 182              		.loc 1 414 33 discriminator 1 view .LVU45
 183 0036 0BB1     		cbz	r3, .L8
 416:Middlewares/ST/STM32_USB_Device_Library/Class/MSC/Src/usbd_msc_bot.c ****       (hmsc->bot_status == USBD_BOT_STATUS_NORMAL))
 184              		.loc 1 416 12 view .LVU46
 185 0038 6B7A     		ldrb	r3, [r5, #9]	@ zero_extendqisi2
 415:Middlewares/ST/STM32_USB_Device_Library/Class/MSC/Src/usbd_msc_bot.c ****       (hmsc->cbw.dDataLength != 0U) &&
 186              		.loc 1 415 37 view .LVU47
 187 003a 43B1     		cbz	r3, .L10
 188              	.L8:
 417:Middlewares/ST/STM32_USB_Device_Library/Class/MSC/Src/usbd_msc_bot.c ****   {
 418:Middlewares/ST/STM32_USB_Device_Library/Class/MSC/Src/usbd_msc_bot.c ****     (void)USBD_LL_StallEP(pdev, MSCOutEpAdd);
 419:Middlewares/ST/STM32_USB_Device_Library/Class/MSC/Src/usbd_msc_bot.c ****   }
 420:Middlewares/ST/STM32_USB_Device_Library/Class/MSC/Src/usbd_msc_bot.c **** 
 421:Middlewares/ST/STM32_USB_Device_Library/Class/MSC/Src/usbd_msc_bot.c ****   (void)USBD_LL_StallEP(pdev, MSCInEpAdd);
 189              		.loc 1 421 3 is_stmt 1 view .LVU48
 190              		.loc 1 421 9 is_stmt 0 view .LVU49
 191 003c 0C4B     		ldr	r3, .L12
 192 003e 1978     		ldrb	r1, [r3]	@ zero_extendqisi2
 193 0040 2046     		mov	r0, r4
 194 0042 FFF7FEFF 		bl	USBD_LL_StallEP
 195              	.LVL14:
 422:Middlewares/ST/STM32_USB_Device_Library/Class/MSC/Src/usbd_msc_bot.c **** 
 423:Middlewares/ST/STM32_USB_Device_Library/Class/MSC/Src/usbd_msc_bot.c ****   if (hmsc->bot_status == USBD_BOT_STATUS_ERROR)
 196              		.loc 1 423 3 is_stmt 1 view .LVU50
 197              		.loc 1 423 11 is_stmt 0 view .LVU51
 198 0046 6B7A     		ldrb	r3, [r5, #9]	@ zero_extendqisi2
 199              		.loc 1 423 6 view .LVU52
 200 0048 022B     		cmp	r3, #2
 201 004a 05D0     		beq	.L11
 202              	.L6:
 424:Middlewares/ST/STM32_USB_Device_Library/Class/MSC/Src/usbd_msc_bot.c ****   {
 425:Middlewares/ST/STM32_USB_Device_Library/Class/MSC/Src/usbd_msc_bot.c ****     (void)USBD_LL_StallEP(pdev, MSCInEpAdd);
 426:Middlewares/ST/STM32_USB_Device_Library/Class/MSC/Src/usbd_msc_bot.c ****     (void)USBD_LL_StallEP(pdev, MSCOutEpAdd);
ARM GAS  C:\Users\ADMINI~1\AppData\Local\Temp\ccG84XQ1.s 			page 12


 427:Middlewares/ST/STM32_USB_Device_Library/Class/MSC/Src/usbd_msc_bot.c ****   }
 428:Middlewares/ST/STM32_USB_Device_Library/Class/MSC/Src/usbd_msc_bot.c **** }
 203              		.loc 1 428 1 view .LVU53
 204 004c 38BD     		pop	{r3, r4, r5, pc}
 205              	.LVL15:
 206              	.L10:
 418:Middlewares/ST/STM32_USB_Device_Library/Class/MSC/Src/usbd_msc_bot.c ****   }
 207              		.loc 1 418 5 is_stmt 1 view .LVU54
 418:Middlewares/ST/STM32_USB_Device_Library/Class/MSC/Src/usbd_msc_bot.c ****   }
 208              		.loc 1 418 11 is_stmt 0 view .LVU55
 209 004e 0146     		mov	r1, r0
 210 0050 2046     		mov	r0, r4
 211 0052 FFF7FEFF 		bl	USBD_LL_StallEP
 212              	.LVL16:
 213 0056 F1E7     		b	.L8
 214              	.L11:
 425:Middlewares/ST/STM32_USB_Device_Library/Class/MSC/Src/usbd_msc_bot.c ****     (void)USBD_LL_StallEP(pdev, MSCOutEpAdd);
 215              		.loc 1 425 5 is_stmt 1 view .LVU56
 425:Middlewares/ST/STM32_USB_Device_Library/Class/MSC/Src/usbd_msc_bot.c ****     (void)USBD_LL_StallEP(pdev, MSCOutEpAdd);
 216              		.loc 1 425 11 is_stmt 0 view .LVU57
 217 0058 054B     		ldr	r3, .L12
 218 005a 1978     		ldrb	r1, [r3]	@ zero_extendqisi2
 219 005c 2046     		mov	r0, r4
 220 005e FFF7FEFF 		bl	USBD_LL_StallEP
 221              	.LVL17:
 426:Middlewares/ST/STM32_USB_Device_Library/Class/MSC/Src/usbd_msc_bot.c ****   }
 222              		.loc 1 426 5 is_stmt 1 view .LVU58
 426:Middlewares/ST/STM32_USB_Device_Library/Class/MSC/Src/usbd_msc_bot.c ****   }
 223              		.loc 1 426 11 is_stmt 0 view .LVU59
 224 0062 044B     		ldr	r3, .L12+4
 225 0064 1978     		ldrb	r1, [r3]	@ zero_extendqisi2
 226 0066 2046     		mov	r0, r4
 227 0068 FFF7FEFF 		bl	USBD_LL_StallEP
 228              	.LVL18:
 229 006c EEE7     		b	.L6
 230              	.L13:
 231 006e 00BF     		.align	2
 232              	.L12:
 233 0070 00000000 		.word	MSCInEpAdd
 234 0074 00000000 		.word	MSCOutEpAdd
 235              		.cfi_endproc
 236              	.LFE142:
 238              		.section	.text.MSC_BOT_Init,"ax",%progbits
 239              		.align	1
 240              		.global	MSC_BOT_Init
 241              		.syntax unified
 242              		.thumb
 243              		.thumb_func
 245              	MSC_BOT_Init:
 246              	.LVL19:
 247              	.LFB134:
  99:Middlewares/ST/STM32_USB_Device_Library/Class/MSC/Src/usbd_msc_bot.c ****   USBD_MSC_BOT_HandleTypeDef *hmsc = (USBD_MSC_BOT_HandleTypeDef *)pdev->pClassDataCmsit[pdev->clas
 248              		.loc 1 99 1 is_stmt 1 view -0
 249              		.cfi_startproc
 250              		@ args = 0, pretend = 0, frame = 0
 251              		@ frame_needed = 0, uses_anonymous_args = 0
  99:Middlewares/ST/STM32_USB_Device_Library/Class/MSC/Src/usbd_msc_bot.c ****   USBD_MSC_BOT_HandleTypeDef *hmsc = (USBD_MSC_BOT_HandleTypeDef *)pdev->pClassDataCmsit[pdev->clas
ARM GAS  C:\Users\ADMINI~1\AppData\Local\Temp\ccG84XQ1.s 			page 13


 252              		.loc 1 99 1 is_stmt 0 view .LVU61
 253 0000 70B5     		push	{r4, r5, r6, lr}
 254              	.LCFI2:
 255              		.cfi_def_cfa_offset 16
 256              		.cfi_offset 4, -16
 257              		.cfi_offset 5, -12
 258              		.cfi_offset 6, -8
 259              		.cfi_offset 14, -4
 260 0002 0446     		mov	r4, r0
 100:Middlewares/ST/STM32_USB_Device_Library/Class/MSC/Src/usbd_msc_bot.c **** 
 261              		.loc 1 100 3 is_stmt 1 view .LVU62
 100:Middlewares/ST/STM32_USB_Device_Library/Class/MSC/Src/usbd_msc_bot.c **** 
 262              		.loc 1 100 94 is_stmt 0 view .LVU63
 263 0004 D0F8F832 		ldr	r3, [r0, #760]
 100:Middlewares/ST/STM32_USB_Device_Library/Class/MSC/Src/usbd_msc_bot.c **** 
 264              		.loc 1 100 31 view .LVU64
 265 0008 B233     		adds	r3, r3, #178
 266 000a 00EB8303 		add	r3, r0, r3, lsl #2
 267 000e 5D68     		ldr	r5, [r3, #4]
 268              	.LVL20:
 104:Middlewares/ST/STM32_USB_Device_Library/Class/MSC/Src/usbd_msc_bot.c ****   MSCOutEpAdd = USBD_CoreGetEPAdd(pdev, USBD_EP_OUT, USBD_EP_TYPE_BULK);
 269              		.loc 1 104 3 is_stmt 1 view .LVU65
 104:Middlewares/ST/STM32_USB_Device_Library/Class/MSC/Src/usbd_msc_bot.c ****   MSCOutEpAdd = USBD_CoreGetEPAdd(pdev, USBD_EP_OUT, USBD_EP_TYPE_BULK);
 270              		.loc 1 104 17 is_stmt 0 view .LVU66
 271 0010 0222     		movs	r2, #2
 272 0012 8021     		movs	r1, #128
 273 0014 FFF7FEFF 		bl	USBD_CoreGetEPAdd
 274              	.LVL21:
 104:Middlewares/ST/STM32_USB_Device_Library/Class/MSC/Src/usbd_msc_bot.c ****   MSCOutEpAdd = USBD_CoreGetEPAdd(pdev, USBD_EP_OUT, USBD_EP_TYPE_BULK);
 275              		.loc 1 104 15 view .LVU67
 276 0018 164B     		ldr	r3, .L17
 277 001a 1870     		strb	r0, [r3]
 105:Middlewares/ST/STM32_USB_Device_Library/Class/MSC/Src/usbd_msc_bot.c **** #endif /* USE_USBD_COMPOSITE */
 278              		.loc 1 105 3 is_stmt 1 view .LVU68
 105:Middlewares/ST/STM32_USB_Device_Library/Class/MSC/Src/usbd_msc_bot.c **** #endif /* USE_USBD_COMPOSITE */
 279              		.loc 1 105 17 is_stmt 0 view .LVU69
 280 001c 0222     		movs	r2, #2
 281 001e 0021     		movs	r1, #0
 282 0020 2046     		mov	r0, r4
 283 0022 FFF7FEFF 		bl	USBD_CoreGetEPAdd
 284              	.LVL22:
 105:Middlewares/ST/STM32_USB_Device_Library/Class/MSC/Src/usbd_msc_bot.c **** #endif /* USE_USBD_COMPOSITE */
 285              		.loc 1 105 15 view .LVU70
 286 0026 144B     		ldr	r3, .L17+4
 287 0028 1870     		strb	r0, [r3]
 108:Middlewares/ST/STM32_USB_Device_Library/Class/MSC/Src/usbd_msc_bot.c ****   {
 288              		.loc 1 108 3 is_stmt 1 view .LVU71
 108:Middlewares/ST/STM32_USB_Device_Library/Class/MSC/Src/usbd_msc_bot.c ****   {
 289              		.loc 1 108 6 is_stmt 0 view .LVU72
 290 002a 0DB3     		cbz	r5, .L14
 113:Middlewares/ST/STM32_USB_Device_Library/Class/MSC/Src/usbd_msc_bot.c ****   hmsc->bot_status = USBD_BOT_STATUS_NORMAL;
 291              		.loc 1 113 3 is_stmt 1 view .LVU73
 113:Middlewares/ST/STM32_USB_Device_Library/Class/MSC/Src/usbd_msc_bot.c ****   hmsc->bot_status = USBD_BOT_STATUS_NORMAL;
 292              		.loc 1 113 19 is_stmt 0 view .LVU74
 293 002c 0020     		movs	r0, #0
 294 002e 2872     		strb	r0, [r5, #8]
 114:Middlewares/ST/STM32_USB_Device_Library/Class/MSC/Src/usbd_msc_bot.c **** 
ARM GAS  C:\Users\ADMINI~1\AppData\Local\Temp\ccG84XQ1.s 			page 14


 295              		.loc 1 114 3 is_stmt 1 view .LVU75
 114:Middlewares/ST/STM32_USB_Device_Library/Class/MSC/Src/usbd_msc_bot.c **** 
 296              		.loc 1 114 20 is_stmt 0 view .LVU76
 297 0030 6872     		strb	r0, [r5, #9]
 116:Middlewares/ST/STM32_USB_Device_Library/Class/MSC/Src/usbd_msc_bot.c ****   hmsc->scsi_sense_head = 0U;
 298              		.loc 1 116 3 is_stmt 1 view .LVU77
 116:Middlewares/ST/STM32_USB_Device_Library/Class/MSC/Src/usbd_msc_bot.c ****   hmsc->scsi_sense_head = 0U;
 299              		.loc 1 116 25 is_stmt 0 view .LVU78
 300 0032 85F86102 		strb	r0, [r5, #609]
 117:Middlewares/ST/STM32_USB_Device_Library/Class/MSC/Src/usbd_msc_bot.c ****   hmsc->scsi_medium_state = SCSI_MEDIUM_UNLOCKED;
 301              		.loc 1 117 3 is_stmt 1 view .LVU79
 117:Middlewares/ST/STM32_USB_Device_Library/Class/MSC/Src/usbd_msc_bot.c ****   hmsc->scsi_medium_state = SCSI_MEDIUM_UNLOCKED;
 302              		.loc 1 117 25 is_stmt 0 view .LVU80
 303 0036 85F86002 		strb	r0, [r5, #608]
 118:Middlewares/ST/STM32_USB_Device_Library/Class/MSC/Src/usbd_msc_bot.c **** 
 304              		.loc 1 118 3 is_stmt 1 view .LVU81
 118:Middlewares/ST/STM32_USB_Device_Library/Class/MSC/Src/usbd_msc_bot.c **** 
 305              		.loc 1 118 27 is_stmt 0 view .LVU82
 306 003a 85F86202 		strb	r0, [r5, #610]
 120:Middlewares/ST/STM32_USB_Device_Library/Class/MSC/Src/usbd_msc_bot.c **** 
 307              		.loc 1 120 3 is_stmt 1 view .LVU83
 120:Middlewares/ST/STM32_USB_Device_Library/Class/MSC/Src/usbd_msc_bot.c **** 
 308              		.loc 1 120 47 is_stmt 0 view .LVU84
 309 003e D4F8F832 		ldr	r3, [r4, #760]
 120:Middlewares/ST/STM32_USB_Device_Library/Class/MSC/Src/usbd_msc_bot.c **** 
 310              		.loc 1 120 42 view .LVU85
 311 0042 B633     		adds	r3, r3, #182
 312 0044 04EB8303 		add	r3, r4, r3, lsl #2
 313 0048 5B68     		ldr	r3, [r3, #4]
 120:Middlewares/ST/STM32_USB_Device_Library/Class/MSC/Src/usbd_msc_bot.c **** 
 314              		.loc 1 120 58 view .LVU86
 315 004a 1B68     		ldr	r3, [r3]
 120:Middlewares/ST/STM32_USB_Device_Library/Class/MSC/Src/usbd_msc_bot.c **** 
 316              		.loc 1 120 4 view .LVU87
 317 004c 9847     		blx	r3
 318              	.LVL23:
 122:Middlewares/ST/STM32_USB_Device_Library/Class/MSC/Src/usbd_msc_bot.c ****   (void)USBD_LL_FlushEP(pdev, MSCInEpAdd);
 319              		.loc 1 122 3 is_stmt 1 view .LVU88
 320 004e 0A4E     		ldr	r6, .L17+4
 122:Middlewares/ST/STM32_USB_Device_Library/Class/MSC/Src/usbd_msc_bot.c ****   (void)USBD_LL_FlushEP(pdev, MSCInEpAdd);
 321              		.loc 1 122 9 is_stmt 0 view .LVU89
 322 0050 3178     		ldrb	r1, [r6]	@ zero_extendqisi2
 323 0052 2046     		mov	r0, r4
 324 0054 FFF7FEFF 		bl	USBD_LL_FlushEP
 325              	.LVL24:
 123:Middlewares/ST/STM32_USB_Device_Library/Class/MSC/Src/usbd_msc_bot.c **** 
 326              		.loc 1 123 3 is_stmt 1 view .LVU90
 123:Middlewares/ST/STM32_USB_Device_Library/Class/MSC/Src/usbd_msc_bot.c **** 
 327              		.loc 1 123 9 is_stmt 0 view .LVU91
 328 0058 064B     		ldr	r3, .L17
 329 005a 1978     		ldrb	r1, [r3]	@ zero_extendqisi2
 330 005c 2046     		mov	r0, r4
 331 005e FFF7FEFF 		bl	USBD_LL_FlushEP
 332              	.LVL25:
 126:Middlewares/ST/STM32_USB_Device_Library/Class/MSC/Src/usbd_msc_bot.c ****                                USBD_BOT_CBW_LENGTH);
 333              		.loc 1 126 3 is_stmt 1 view .LVU92
 126:Middlewares/ST/STM32_USB_Device_Library/Class/MSC/Src/usbd_msc_bot.c ****                                USBD_BOT_CBW_LENGTH);
ARM GAS  C:\Users\ADMINI~1\AppData\Local\Temp\ccG84XQ1.s 			page 15


 334              		.loc 1 126 9 is_stmt 0 view .LVU93
 335 0062 1F23     		movs	r3, #31
 336 0064 05F50472 		add	r2, r5, #528
 337 0068 3178     		ldrb	r1, [r6]	@ zero_extendqisi2
 338 006a 2046     		mov	r0, r4
 339 006c FFF7FEFF 		bl	USBD_LL_PrepareReceive
 340              	.LVL26:
 341              	.L14:
 128:Middlewares/ST/STM32_USB_Device_Library/Class/MSC/Src/usbd_msc_bot.c **** 
 342              		.loc 1 128 1 view .LVU94
 343 0070 70BD     		pop	{r4, r5, r6, pc}
 344              	.LVL27:
 345              	.L18:
 128:Middlewares/ST/STM32_USB_Device_Library/Class/MSC/Src/usbd_msc_bot.c **** 
 346              		.loc 1 128 1 view .LVU95
 347 0072 00BF     		.align	2
 348              	.L17:
 349 0074 00000000 		.word	MSCInEpAdd
 350 0078 00000000 		.word	MSCOutEpAdd
 351              		.cfi_endproc
 352              	.LFE134:
 354              		.section	.text.MSC_BOT_Reset,"ax",%progbits
 355              		.align	1
 356              		.global	MSC_BOT_Reset
 357              		.syntax unified
 358              		.thumb
 359              		.thumb_func
 361              	MSC_BOT_Reset:
 362              	.LVL28:
 363              	.LFB135:
 137:Middlewares/ST/STM32_USB_Device_Library/Class/MSC/Src/usbd_msc_bot.c ****   USBD_MSC_BOT_HandleTypeDef *hmsc = (USBD_MSC_BOT_HandleTypeDef *)pdev->pClassDataCmsit[pdev->clas
 364              		.loc 1 137 1 is_stmt 1 view -0
 365              		.cfi_startproc
 366              		@ args = 0, pretend = 0, frame = 0
 367              		@ frame_needed = 0, uses_anonymous_args = 0
 137:Middlewares/ST/STM32_USB_Device_Library/Class/MSC/Src/usbd_msc_bot.c ****   USBD_MSC_BOT_HandleTypeDef *hmsc = (USBD_MSC_BOT_HandleTypeDef *)pdev->pClassDataCmsit[pdev->clas
 368              		.loc 1 137 1 is_stmt 0 view .LVU97
 369 0000 70B5     		push	{r4, r5, r6, lr}
 370              	.LCFI3:
 371              		.cfi_def_cfa_offset 16
 372              		.cfi_offset 4, -16
 373              		.cfi_offset 5, -12
 374              		.cfi_offset 6, -8
 375              		.cfi_offset 14, -4
 376 0002 0446     		mov	r4, r0
 138:Middlewares/ST/STM32_USB_Device_Library/Class/MSC/Src/usbd_msc_bot.c **** 
 377              		.loc 1 138 3 is_stmt 1 view .LVU98
 138:Middlewares/ST/STM32_USB_Device_Library/Class/MSC/Src/usbd_msc_bot.c **** 
 378              		.loc 1 138 94 is_stmt 0 view .LVU99
 379 0004 D0F8F832 		ldr	r3, [r0, #760]
 138:Middlewares/ST/STM32_USB_Device_Library/Class/MSC/Src/usbd_msc_bot.c **** 
 380              		.loc 1 138 31 view .LVU100
 381 0008 B233     		adds	r3, r3, #178
 382 000a 00EB8303 		add	r3, r0, r3, lsl #2
 383 000e 5D68     		ldr	r5, [r3, #4]
 384              	.LVL29:
 142:Middlewares/ST/STM32_USB_Device_Library/Class/MSC/Src/usbd_msc_bot.c ****   MSCOutEpAdd = USBD_CoreGetEPAdd(pdev, USBD_EP_OUT, USBD_EP_TYPE_BULK);
ARM GAS  C:\Users\ADMINI~1\AppData\Local\Temp\ccG84XQ1.s 			page 16


 385              		.loc 1 142 3 is_stmt 1 view .LVU101
 142:Middlewares/ST/STM32_USB_Device_Library/Class/MSC/Src/usbd_msc_bot.c ****   MSCOutEpAdd = USBD_CoreGetEPAdd(pdev, USBD_EP_OUT, USBD_EP_TYPE_BULK);
 386              		.loc 1 142 17 is_stmt 0 view .LVU102
 387 0010 0222     		movs	r2, #2
 388 0012 8021     		movs	r1, #128
 389 0014 FFF7FEFF 		bl	USBD_CoreGetEPAdd
 390              	.LVL30:
 142:Middlewares/ST/STM32_USB_Device_Library/Class/MSC/Src/usbd_msc_bot.c ****   MSCOutEpAdd = USBD_CoreGetEPAdd(pdev, USBD_EP_OUT, USBD_EP_TYPE_BULK);
 391              		.loc 1 142 15 view .LVU103
 392 0018 0F4B     		ldr	r3, .L22
 393 001a 1870     		strb	r0, [r3]
 143:Middlewares/ST/STM32_USB_Device_Library/Class/MSC/Src/usbd_msc_bot.c **** #endif /* USE_USBD_COMPOSITE */
 394              		.loc 1 143 3 is_stmt 1 view .LVU104
 143:Middlewares/ST/STM32_USB_Device_Library/Class/MSC/Src/usbd_msc_bot.c **** #endif /* USE_USBD_COMPOSITE */
 395              		.loc 1 143 17 is_stmt 0 view .LVU105
 396 001c 0222     		movs	r2, #2
 397 001e 0021     		movs	r1, #0
 398 0020 2046     		mov	r0, r4
 399 0022 FFF7FEFF 		bl	USBD_CoreGetEPAdd
 400              	.LVL31:
 143:Middlewares/ST/STM32_USB_Device_Library/Class/MSC/Src/usbd_msc_bot.c **** #endif /* USE_USBD_COMPOSITE */
 401              		.loc 1 143 15 view .LVU106
 402 0026 0D4B     		ldr	r3, .L22+4
 403 0028 1870     		strb	r0, [r3]
 146:Middlewares/ST/STM32_USB_Device_Library/Class/MSC/Src/usbd_msc_bot.c ****   {
 404              		.loc 1 146 3 is_stmt 1 view .LVU107
 146:Middlewares/ST/STM32_USB_Device_Library/Class/MSC/Src/usbd_msc_bot.c ****   {
 405              		.loc 1 146 6 is_stmt 0 view .LVU108
 406 002a A5B1     		cbz	r5, .L19
 151:Middlewares/ST/STM32_USB_Device_Library/Class/MSC/Src/usbd_msc_bot.c ****   hmsc->bot_status = USBD_BOT_STATUS_RECOVERY;
 407              		.loc 1 151 3 is_stmt 1 view .LVU109
 151:Middlewares/ST/STM32_USB_Device_Library/Class/MSC/Src/usbd_msc_bot.c ****   hmsc->bot_status = USBD_BOT_STATUS_RECOVERY;
 408              		.loc 1 151 20 is_stmt 0 view .LVU110
 409 002c 0023     		movs	r3, #0
 410 002e 2B72     		strb	r3, [r5, #8]
 152:Middlewares/ST/STM32_USB_Device_Library/Class/MSC/Src/usbd_msc_bot.c **** 
 411              		.loc 1 152 3 is_stmt 1 view .LVU111
 152:Middlewares/ST/STM32_USB_Device_Library/Class/MSC/Src/usbd_msc_bot.c **** 
 412              		.loc 1 152 20 is_stmt 0 view .LVU112
 413 0030 0123     		movs	r3, #1
 414 0032 6B72     		strb	r3, [r5, #9]
 154:Middlewares/ST/STM32_USB_Device_Library/Class/MSC/Src/usbd_msc_bot.c ****   (void)USBD_LL_ClearStallEP(pdev, MSCOutEpAdd);
 415              		.loc 1 154 3 is_stmt 1 view .LVU113
 154:Middlewares/ST/STM32_USB_Device_Library/Class/MSC/Src/usbd_msc_bot.c ****   (void)USBD_LL_ClearStallEP(pdev, MSCOutEpAdd);
 416              		.loc 1 154 9 is_stmt 0 view .LVU114
 417 0034 084B     		ldr	r3, .L22
 418 0036 1978     		ldrb	r1, [r3]	@ zero_extendqisi2
 419 0038 2046     		mov	r0, r4
 420 003a FFF7FEFF 		bl	USBD_LL_ClearStallEP
 421              	.LVL32:
 155:Middlewares/ST/STM32_USB_Device_Library/Class/MSC/Src/usbd_msc_bot.c **** 
 422              		.loc 1 155 3 is_stmt 1 view .LVU115
 423 003e 074E     		ldr	r6, .L22+4
 155:Middlewares/ST/STM32_USB_Device_Library/Class/MSC/Src/usbd_msc_bot.c **** 
 424              		.loc 1 155 9 is_stmt 0 view .LVU116
 425 0040 3178     		ldrb	r1, [r6]	@ zero_extendqisi2
 426 0042 2046     		mov	r0, r4
ARM GAS  C:\Users\ADMINI~1\AppData\Local\Temp\ccG84XQ1.s 			page 17


 427 0044 FFF7FEFF 		bl	USBD_LL_ClearStallEP
 428              	.LVL33:
 158:Middlewares/ST/STM32_USB_Device_Library/Class/MSC/Src/usbd_msc_bot.c ****                                USBD_BOT_CBW_LENGTH);
 429              		.loc 1 158 3 is_stmt 1 view .LVU117
 158:Middlewares/ST/STM32_USB_Device_Library/Class/MSC/Src/usbd_msc_bot.c ****                                USBD_BOT_CBW_LENGTH);
 430              		.loc 1 158 9 is_stmt 0 view .LVU118
 431 0048 1F23     		movs	r3, #31
 432 004a 05F50472 		add	r2, r5, #528
 433 004e 3178     		ldrb	r1, [r6]	@ zero_extendqisi2
 434 0050 2046     		mov	r0, r4
 435 0052 FFF7FEFF 		bl	USBD_LL_PrepareReceive
 436              	.LVL34:
 437              	.L19:
 160:Middlewares/ST/STM32_USB_Device_Library/Class/MSC/Src/usbd_msc_bot.c **** 
 438              		.loc 1 160 1 view .LVU119
 439 0056 70BD     		pop	{r4, r5, r6, pc}
 440              	.LVL35:
 441              	.L23:
 160:Middlewares/ST/STM32_USB_Device_Library/Class/MSC/Src/usbd_msc_bot.c **** 
 442              		.loc 1 160 1 view .LVU120
 443              		.align	2
 444              	.L22:
 445 0058 00000000 		.word	MSCInEpAdd
 446 005c 00000000 		.word	MSCOutEpAdd
 447              		.cfi_endproc
 448              	.LFE135:
 450              		.section	.text.MSC_BOT_DeInit,"ax",%progbits
 451              		.align	1
 452              		.global	MSC_BOT_DeInit
 453              		.syntax unified
 454              		.thumb
 455              		.thumb_func
 457              	MSC_BOT_DeInit:
 458              	.LVL36:
 459              	.LFB136:
 169:Middlewares/ST/STM32_USB_Device_Library/Class/MSC/Src/usbd_msc_bot.c ****   USBD_MSC_BOT_HandleTypeDef *hmsc = (USBD_MSC_BOT_HandleTypeDef *)pdev->pClassDataCmsit[pdev->clas
 460              		.loc 1 169 1 is_stmt 1 view -0
 461              		.cfi_startproc
 462              		@ args = 0, pretend = 0, frame = 0
 463              		@ frame_needed = 0, uses_anonymous_args = 0
 464              		@ link register save eliminated.
 170:Middlewares/ST/STM32_USB_Device_Library/Class/MSC/Src/usbd_msc_bot.c **** 
 465              		.loc 1 170 3 view .LVU122
 170:Middlewares/ST/STM32_USB_Device_Library/Class/MSC/Src/usbd_msc_bot.c **** 
 466              		.loc 1 170 94 is_stmt 0 view .LVU123
 467 0000 D0F8F832 		ldr	r3, [r0, #760]
 170:Middlewares/ST/STM32_USB_Device_Library/Class/MSC/Src/usbd_msc_bot.c **** 
 468              		.loc 1 170 31 view .LVU124
 469 0004 B233     		adds	r3, r3, #178
 470 0006 00EB8300 		add	r0, r0, r3, lsl #2
 471              	.LVL37:
 170:Middlewares/ST/STM32_USB_Device_Library/Class/MSC/Src/usbd_msc_bot.c **** 
 472              		.loc 1 170 31 view .LVU125
 473 000a 4368     		ldr	r3, [r0, #4]
 474              	.LVL38:
 172:Middlewares/ST/STM32_USB_Device_Library/Class/MSC/Src/usbd_msc_bot.c ****   {
 475              		.loc 1 172 3 is_stmt 1 view .LVU126
ARM GAS  C:\Users\ADMINI~1\AppData\Local\Temp\ccG84XQ1.s 			page 18


 172:Middlewares/ST/STM32_USB_Device_Library/Class/MSC/Src/usbd_msc_bot.c ****   {
 476              		.loc 1 172 6 is_stmt 0 view .LVU127
 477 000c 0BB1     		cbz	r3, .L24
 174:Middlewares/ST/STM32_USB_Device_Library/Class/MSC/Src/usbd_msc_bot.c ****   }
 478              		.loc 1 174 5 is_stmt 1 view .LVU128
 174:Middlewares/ST/STM32_USB_Device_Library/Class/MSC/Src/usbd_msc_bot.c ****   }
 479              		.loc 1 174 21 is_stmt 0 view .LVU129
 480 000e 0022     		movs	r2, #0
 481 0010 1A72     		strb	r2, [r3, #8]
 482              	.L24:
 176:Middlewares/ST/STM32_USB_Device_Library/Class/MSC/Src/usbd_msc_bot.c **** 
 483              		.loc 1 176 1 view .LVU130
 484 0012 7047     		bx	lr
 485              		.cfi_endproc
 486              	.LFE136:
 488              		.section	.text.MSC_BOT_SendCSW,"ax",%progbits
 489              		.align	1
 490              		.global	MSC_BOT_SendCSW
 491              		.syntax unified
 492              		.thumb
 493              		.thumb_func
 495              	MSC_BOT_SendCSW:
 496              	.LVL39:
 497              	.LFB141:
 366:Middlewares/ST/STM32_USB_Device_Library/Class/MSC/Src/usbd_msc_bot.c ****   USBD_MSC_BOT_HandleTypeDef *hmsc = (USBD_MSC_BOT_HandleTypeDef *)pdev->pClassDataCmsit[pdev->clas
 498              		.loc 1 366 1 is_stmt 1 view -0
 499              		.cfi_startproc
 500              		@ args = 0, pretend = 0, frame = 0
 501              		@ frame_needed = 0, uses_anonymous_args = 0
 366:Middlewares/ST/STM32_USB_Device_Library/Class/MSC/Src/usbd_msc_bot.c ****   USBD_MSC_BOT_HandleTypeDef *hmsc = (USBD_MSC_BOT_HandleTypeDef *)pdev->pClassDataCmsit[pdev->clas
 502              		.loc 1 366 1 is_stmt 0 view .LVU132
 503 0000 70B5     		push	{r4, r5, r6, lr}
 504              	.LCFI4:
 505              		.cfi_def_cfa_offset 16
 506              		.cfi_offset 4, -16
 507              		.cfi_offset 5, -12
 508              		.cfi_offset 6, -8
 509              		.cfi_offset 14, -4
 510 0002 0446     		mov	r4, r0
 511 0004 0E46     		mov	r6, r1
 367:Middlewares/ST/STM32_USB_Device_Library/Class/MSC/Src/usbd_msc_bot.c **** 
 512              		.loc 1 367 3 is_stmt 1 view .LVU133
 367:Middlewares/ST/STM32_USB_Device_Library/Class/MSC/Src/usbd_msc_bot.c **** 
 513              		.loc 1 367 94 is_stmt 0 view .LVU134
 514 0006 D0F8F832 		ldr	r3, [r0, #760]
 367:Middlewares/ST/STM32_USB_Device_Library/Class/MSC/Src/usbd_msc_bot.c **** 
 515              		.loc 1 367 31 view .LVU135
 516 000a B233     		adds	r3, r3, #178
 517 000c 00EB8303 		add	r3, r0, r3, lsl #2
 518 0010 5D68     		ldr	r5, [r3, #4]
 519              	.LVL40:
 371:Middlewares/ST/STM32_USB_Device_Library/Class/MSC/Src/usbd_msc_bot.c ****   MSCOutEpAdd = USBD_CoreGetEPAdd(pdev, USBD_EP_OUT, USBD_EP_TYPE_BULK);
 520              		.loc 1 371 3 is_stmt 1 view .LVU136
 371:Middlewares/ST/STM32_USB_Device_Library/Class/MSC/Src/usbd_msc_bot.c ****   MSCOutEpAdd = USBD_CoreGetEPAdd(pdev, USBD_EP_OUT, USBD_EP_TYPE_BULK);
 521              		.loc 1 371 17 is_stmt 0 view .LVU137
 522 0012 0222     		movs	r2, #2
 523 0014 8021     		movs	r1, #128
ARM GAS  C:\Users\ADMINI~1\AppData\Local\Temp\ccG84XQ1.s 			page 19


 524              	.LVL41:
 371:Middlewares/ST/STM32_USB_Device_Library/Class/MSC/Src/usbd_msc_bot.c ****   MSCOutEpAdd = USBD_CoreGetEPAdd(pdev, USBD_EP_OUT, USBD_EP_TYPE_BULK);
 525              		.loc 1 371 17 view .LVU138
 526 0016 FFF7FEFF 		bl	USBD_CoreGetEPAdd
 527              	.LVL42:
 371:Middlewares/ST/STM32_USB_Device_Library/Class/MSC/Src/usbd_msc_bot.c ****   MSCOutEpAdd = USBD_CoreGetEPAdd(pdev, USBD_EP_OUT, USBD_EP_TYPE_BULK);
 528              		.loc 1 371 15 view .LVU139
 529 001a 114B     		ldr	r3, .L29
 530 001c 1870     		strb	r0, [r3]
 372:Middlewares/ST/STM32_USB_Device_Library/Class/MSC/Src/usbd_msc_bot.c **** #endif /* USE_USBD_COMPOSITE */
 531              		.loc 1 372 3 is_stmt 1 view .LVU140
 372:Middlewares/ST/STM32_USB_Device_Library/Class/MSC/Src/usbd_msc_bot.c **** #endif /* USE_USBD_COMPOSITE */
 532              		.loc 1 372 17 is_stmt 0 view .LVU141
 533 001e 0222     		movs	r2, #2
 534 0020 0021     		movs	r1, #0
 535 0022 2046     		mov	r0, r4
 536 0024 FFF7FEFF 		bl	USBD_CoreGetEPAdd
 537              	.LVL43:
 372:Middlewares/ST/STM32_USB_Device_Library/Class/MSC/Src/usbd_msc_bot.c **** #endif /* USE_USBD_COMPOSITE */
 538              		.loc 1 372 15 view .LVU142
 539 0028 0E4B     		ldr	r3, .L29+4
 540 002a 1870     		strb	r0, [r3]
 375:Middlewares/ST/STM32_USB_Device_Library/Class/MSC/Src/usbd_msc_bot.c ****   {
 541              		.loc 1 375 3 is_stmt 1 view .LVU143
 375:Middlewares/ST/STM32_USB_Device_Library/Class/MSC/Src/usbd_msc_bot.c ****   {
 542              		.loc 1 375 6 is_stmt 0 view .LVU144
 543 002c B5B1     		cbz	r5, .L26
 380:Middlewares/ST/STM32_USB_Device_Library/Class/MSC/Src/usbd_msc_bot.c ****   hmsc->csw.bStatus = CSW_Status;
 544              		.loc 1 380 3 is_stmt 1 view .LVU145
 380:Middlewares/ST/STM32_USB_Device_Library/Class/MSC/Src/usbd_msc_bot.c ****   hmsc->csw.bStatus = CSW_Status;
 545              		.loc 1 380 24 is_stmt 0 view .LVU146
 546 002e 0E4B     		ldr	r3, .L29+8
 547 0030 C5F83032 		str	r3, [r5, #560]
 381:Middlewares/ST/STM32_USB_Device_Library/Class/MSC/Src/usbd_msc_bot.c ****   hmsc->bot_state = USBD_BOT_IDLE;
 548              		.loc 1 381 3 is_stmt 1 view .LVU147
 381:Middlewares/ST/STM32_USB_Device_Library/Class/MSC/Src/usbd_msc_bot.c ****   hmsc->bot_state = USBD_BOT_IDLE;
 549              		.loc 1 381 21 is_stmt 0 view .LVU148
 550 0034 85F83C62 		strb	r6, [r5, #572]
 382:Middlewares/ST/STM32_USB_Device_Library/Class/MSC/Src/usbd_msc_bot.c **** 
 551              		.loc 1 382 3 is_stmt 1 view .LVU149
 382:Middlewares/ST/STM32_USB_Device_Library/Class/MSC/Src/usbd_msc_bot.c **** 
 552              		.loc 1 382 19 is_stmt 0 view .LVU150
 553 0038 0023     		movs	r3, #0
 554 003a 2B72     		strb	r3, [r5, #8]
 384:Middlewares/ST/STM32_USB_Device_Library/Class/MSC/Src/usbd_msc_bot.c ****                          USBD_BOT_CSW_LENGTH);
 555              		.loc 1 384 3 is_stmt 1 view .LVU151
 384:Middlewares/ST/STM32_USB_Device_Library/Class/MSC/Src/usbd_msc_bot.c ****                          USBD_BOT_CSW_LENGTH);
 556              		.loc 1 384 9 is_stmt 0 view .LVU152
 557 003c 0D23     		movs	r3, #13
 558 003e 05F50C72 		add	r2, r5, #560
 559 0042 0749     		ldr	r1, .L29
 560 0044 0978     		ldrb	r1, [r1]	@ zero_extendqisi2
 561 0046 2046     		mov	r0, r4
 562 0048 FFF7FEFF 		bl	USBD_LL_Transmit
 563              	.LVL44:
 388:Middlewares/ST/STM32_USB_Device_Library/Class/MSC/Src/usbd_msc_bot.c ****                                USBD_BOT_CBW_LENGTH);
 564              		.loc 1 388 3 is_stmt 1 view .LVU153
ARM GAS  C:\Users\ADMINI~1\AppData\Local\Temp\ccG84XQ1.s 			page 20


 388:Middlewares/ST/STM32_USB_Device_Library/Class/MSC/Src/usbd_msc_bot.c ****                                USBD_BOT_CBW_LENGTH);
 565              		.loc 1 388 9 is_stmt 0 view .LVU154
 566 004c 1F23     		movs	r3, #31
 567 004e 05F50472 		add	r2, r5, #528
 568 0052 0449     		ldr	r1, .L29+4
 569 0054 0978     		ldrb	r1, [r1]	@ zero_extendqisi2
 570 0056 2046     		mov	r0, r4
 571 0058 FFF7FEFF 		bl	USBD_LL_PrepareReceive
 572              	.LVL45:
 573              	.L26:
 390:Middlewares/ST/STM32_USB_Device_Library/Class/MSC/Src/usbd_msc_bot.c **** 
 574              		.loc 1 390 1 view .LVU155
 575 005c 70BD     		pop	{r4, r5, r6, pc}
 576              	.LVL46:
 577              	.L30:
 390:Middlewares/ST/STM32_USB_Device_Library/Class/MSC/Src/usbd_msc_bot.c **** 
 578              		.loc 1 390 1 view .LVU156
 579 005e 00BF     		.align	2
 580              	.L29:
 581 0060 00000000 		.word	MSCInEpAdd
 582 0064 00000000 		.word	MSCOutEpAdd
 583 0068 55534253 		.word	1396855637
 584              		.cfi_endproc
 585              	.LFE141:
 587              		.section	.text.MSC_BOT_DataIn,"ax",%progbits
 588              		.align	1
 589              		.global	MSC_BOT_DataIn
 590              		.syntax unified
 591              		.thumb
 592              		.thumb_func
 594              	MSC_BOT_DataIn:
 595              	.LVL47:
 596              	.LFB137:
 186:Middlewares/ST/STM32_USB_Device_Library/Class/MSC/Src/usbd_msc_bot.c ****   UNUSED(epnum);
 597              		.loc 1 186 1 is_stmt 1 view -0
 598              		.cfi_startproc
 599              		@ args = 0, pretend = 0, frame = 0
 600              		@ frame_needed = 0, uses_anonymous_args = 0
 187:Middlewares/ST/STM32_USB_Device_Library/Class/MSC/Src/usbd_msc_bot.c **** 
 601              		.loc 1 187 3 view .LVU158
 189:Middlewares/ST/STM32_USB_Device_Library/Class/MSC/Src/usbd_msc_bot.c **** 
 602              		.loc 1 189 3 view .LVU159
 189:Middlewares/ST/STM32_USB_Device_Library/Class/MSC/Src/usbd_msc_bot.c **** 
 603              		.loc 1 189 94 is_stmt 0 view .LVU160
 604 0000 D0F8F832 		ldr	r3, [r0, #760]
 189:Middlewares/ST/STM32_USB_Device_Library/Class/MSC/Src/usbd_msc_bot.c **** 
 605              		.loc 1 189 31 view .LVU161
 606 0004 B233     		adds	r3, r3, #178
 607 0006 00EB8303 		add	r3, r0, r3, lsl #2
 608 000a 5968     		ldr	r1, [r3, #4]
 609              	.LVL48:
 191:Middlewares/ST/STM32_USB_Device_Library/Class/MSC/Src/usbd_msc_bot.c ****   {
 610              		.loc 1 191 3 is_stmt 1 view .LVU162
 191:Middlewares/ST/STM32_USB_Device_Library/Class/MSC/Src/usbd_msc_bot.c ****   {
 611              		.loc 1 191 6 is_stmt 0 view .LVU163
 612 000c D1B1     		cbz	r1, .L37
 186:Middlewares/ST/STM32_USB_Device_Library/Class/MSC/Src/usbd_msc_bot.c ****   UNUSED(epnum);
ARM GAS  C:\Users\ADMINI~1\AppData\Local\Temp\ccG84XQ1.s 			page 21


 613              		.loc 1 186 1 view .LVU164
 614 000e 10B5     		push	{r4, lr}
 615              	.LCFI5:
 616              		.cfi_def_cfa_offset 8
 617              		.cfi_offset 4, -8
 618              		.cfi_offset 14, -4
 619 0010 0446     		mov	r4, r0
 196:Middlewares/ST/STM32_USB_Device_Library/Class/MSC/Src/usbd_msc_bot.c ****   {
 620              		.loc 1 196 3 is_stmt 1 view .LVU165
 196:Middlewares/ST/STM32_USB_Device_Library/Class/MSC/Src/usbd_msc_bot.c ****   {
 621              		.loc 1 196 15 is_stmt 0 view .LVU166
 622 0012 0B7A     		ldrb	r3, [r1, #8]	@ zero_extendqisi2
 196:Middlewares/ST/STM32_USB_Device_Library/Class/MSC/Src/usbd_msc_bot.c ****   {
 623              		.loc 1 196 3 view .LVU167
 624 0014 022B     		cmp	r3, #2
 625 0016 08D0     		beq	.L33
 626 0018 06D3     		bcc	.L31
 627 001a 033B     		subs	r3, r3, #3
 628 001c DBB2     		uxtb	r3, r3
 629 001e 012B     		cmp	r3, #1
 630 0020 02D8     		bhi	.L31
 207:Middlewares/ST/STM32_USB_Device_Library/Class/MSC/Src/usbd_msc_bot.c ****       break;
 631              		.loc 1 207 7 is_stmt 1 view .LVU168
 632 0022 0021     		movs	r1, #0
 633              	.LVL49:
 207:Middlewares/ST/STM32_USB_Device_Library/Class/MSC/Src/usbd_msc_bot.c ****       break;
 634              		.loc 1 207 7 is_stmt 0 view .LVU169
 635 0024 FFF7FEFF 		bl	MSC_BOT_SendCSW
 636              	.LVL50:
 208:Middlewares/ST/STM32_USB_Device_Library/Class/MSC/Src/usbd_msc_bot.c **** 
 637              		.loc 1 208 7 is_stmt 1 view .LVU170
 638              	.L31:
 213:Middlewares/ST/STM32_USB_Device_Library/Class/MSC/Src/usbd_msc_bot.c **** /**
 639              		.loc 1 213 1 is_stmt 0 view .LVU171
 640 0028 10BD     		pop	{r4, pc}
 641              	.LVL51:
 642              	.L33:
 199:Middlewares/ST/STM32_USB_Device_Library/Class/MSC/Src/usbd_msc_bot.c ****       {
 643              		.loc 1 199 7 is_stmt 1 view .LVU172
 199:Middlewares/ST/STM32_USB_Device_Library/Class/MSC/Src/usbd_msc_bot.c ****       {
 644              		.loc 1 199 11 is_stmt 0 view .LVU173
 645 002a 01F21F22 		addw	r2, r1, #543
 646 002e 91F81D12 		ldrb	r1, [r1, #541]	@ zero_extendqisi2
 647              	.LVL52:
 199:Middlewares/ST/STM32_USB_Device_Library/Class/MSC/Src/usbd_msc_bot.c ****       {
 648              		.loc 1 199 11 view .LVU174
 649 0032 FFF7FEFF 		bl	SCSI_ProcessCmd
 650              	.LVL53:
 199:Middlewares/ST/STM32_USB_Device_Library/Class/MSC/Src/usbd_msc_bot.c ****       {
 651              		.loc 1 199 10 view .LVU175
 652 0036 0028     		cmp	r0, #0
 653 0038 F6DA     		bge	.L31
 201:Middlewares/ST/STM32_USB_Device_Library/Class/MSC/Src/usbd_msc_bot.c ****       }
 654              		.loc 1 201 9 is_stmt 1 view .LVU176
 655 003a 0121     		movs	r1, #1
 656 003c 2046     		mov	r0, r4
 657 003e FFF7FEFF 		bl	MSC_BOT_SendCSW
ARM GAS  C:\Users\ADMINI~1\AppData\Local\Temp\ccG84XQ1.s 			page 22


 658              	.LVL54:
 659 0042 F1E7     		b	.L31
 660              	.LVL55:
 661              	.L37:
 662              	.LCFI6:
 663              		.cfi_def_cfa_offset 0
 664              		.cfi_restore 4
 665              		.cfi_restore 14
 201:Middlewares/ST/STM32_USB_Device_Library/Class/MSC/Src/usbd_msc_bot.c ****       }
 666              		.loc 1 201 9 is_stmt 0 view .LVU177
 667 0044 7047     		bx	lr
 668              		.cfi_endproc
 669              	.LFE137:
 671              		.section	.text.MSC_BOT_CBW_Decode,"ax",%progbits
 672              		.align	1
 673              		.syntax unified
 674              		.thumb
 675              		.thumb_func
 677              	MSC_BOT_CBW_Decode:
 678              	.LVL56:
 679              	.LFB139:
 257:Middlewares/ST/STM32_USB_Device_Library/Class/MSC/Src/usbd_msc_bot.c ****   USBD_MSC_BOT_HandleTypeDef *hmsc = (USBD_MSC_BOT_HandleTypeDef *)pdev->pClassDataCmsit[pdev->clas
 680              		.loc 1 257 1 is_stmt 1 view -0
 681              		.cfi_startproc
 682              		@ args = 0, pretend = 0, frame = 0
 683              		@ frame_needed = 0, uses_anonymous_args = 0
 257:Middlewares/ST/STM32_USB_Device_Library/Class/MSC/Src/usbd_msc_bot.c ****   USBD_MSC_BOT_HandleTypeDef *hmsc = (USBD_MSC_BOT_HandleTypeDef *)pdev->pClassDataCmsit[pdev->clas
 684              		.loc 1 257 1 is_stmt 0 view .LVU179
 685 0000 38B5     		push	{r3, r4, r5, lr}
 686              	.LCFI7:
 687              		.cfi_def_cfa_offset 16
 688              		.cfi_offset 3, -16
 689              		.cfi_offset 4, -12
 690              		.cfi_offset 5, -8
 691              		.cfi_offset 14, -4
 692 0002 0446     		mov	r4, r0
 258:Middlewares/ST/STM32_USB_Device_Library/Class/MSC/Src/usbd_msc_bot.c **** 
 693              		.loc 1 258 3 is_stmt 1 view .LVU180
 258:Middlewares/ST/STM32_USB_Device_Library/Class/MSC/Src/usbd_msc_bot.c **** 
 694              		.loc 1 258 94 is_stmt 0 view .LVU181
 695 0004 D0F8F832 		ldr	r3, [r0, #760]
 258:Middlewares/ST/STM32_USB_Device_Library/Class/MSC/Src/usbd_msc_bot.c **** 
 696              		.loc 1 258 31 view .LVU182
 697 0008 B233     		adds	r3, r3, #178
 698 000a 00EB8303 		add	r3, r0, r3, lsl #2
 699 000e 5D68     		ldr	r5, [r3, #4]
 700              	.LVL57:
 262:Middlewares/ST/STM32_USB_Device_Library/Class/MSC/Src/usbd_msc_bot.c ****   MSCOutEpAdd = USBD_CoreGetEPAdd(pdev, USBD_EP_OUT, USBD_EP_TYPE_BULK);
 701              		.loc 1 262 3 is_stmt 1 view .LVU183
 262:Middlewares/ST/STM32_USB_Device_Library/Class/MSC/Src/usbd_msc_bot.c ****   MSCOutEpAdd = USBD_CoreGetEPAdd(pdev, USBD_EP_OUT, USBD_EP_TYPE_BULK);
 702              		.loc 1 262 17 is_stmt 0 view .LVU184
 703 0010 0222     		movs	r2, #2
 704 0012 8021     		movs	r1, #128
 705 0014 FFF7FEFF 		bl	USBD_CoreGetEPAdd
 706              	.LVL58:
 262:Middlewares/ST/STM32_USB_Device_Library/Class/MSC/Src/usbd_msc_bot.c ****   MSCOutEpAdd = USBD_CoreGetEPAdd(pdev, USBD_EP_OUT, USBD_EP_TYPE_BULK);
 707              		.loc 1 262 15 view .LVU185
ARM GAS  C:\Users\ADMINI~1\AppData\Local\Temp\ccG84XQ1.s 			page 23


 708 0018 2C4B     		ldr	r3, .L51
 709 001a 1870     		strb	r0, [r3]
 263:Middlewares/ST/STM32_USB_Device_Library/Class/MSC/Src/usbd_msc_bot.c **** #endif /* USE_USBD_COMPOSITE */
 710              		.loc 1 263 3 is_stmt 1 view .LVU186
 263:Middlewares/ST/STM32_USB_Device_Library/Class/MSC/Src/usbd_msc_bot.c **** #endif /* USE_USBD_COMPOSITE */
 711              		.loc 1 263 17 is_stmt 0 view .LVU187
 712 001c 0222     		movs	r2, #2
 713 001e 0021     		movs	r1, #0
 714 0020 2046     		mov	r0, r4
 715 0022 FFF7FEFF 		bl	USBD_CoreGetEPAdd
 716              	.LVL59:
 263:Middlewares/ST/STM32_USB_Device_Library/Class/MSC/Src/usbd_msc_bot.c **** #endif /* USE_USBD_COMPOSITE */
 717              		.loc 1 263 15 view .LVU188
 718 0026 2A4B     		ldr	r3, .L51+4
 719 0028 1870     		strb	r0, [r3]
 266:Middlewares/ST/STM32_USB_Device_Library/Class/MSC/Src/usbd_msc_bot.c ****   {
 720              		.loc 1 266 3 is_stmt 1 view .LVU189
 266:Middlewares/ST/STM32_USB_Device_Library/Class/MSC/Src/usbd_msc_bot.c ****   {
 721              		.loc 1 266 6 is_stmt 0 view .LVU190
 722 002a F5B1     		cbz	r5, .L40
 723 002c 0146     		mov	r1, r0
 271:Middlewares/ST/STM32_USB_Device_Library/Class/MSC/Src/usbd_msc_bot.c ****   hmsc->csw.dDataResidue = hmsc->cbw.dDataLength;
 724              		.loc 1 271 3 is_stmt 1 view .LVU191
 271:Middlewares/ST/STM32_USB_Device_Library/Class/MSC/Src/usbd_msc_bot.c ****   hmsc->csw.dDataResidue = hmsc->cbw.dDataLength;
 725              		.loc 1 271 29 is_stmt 0 view .LVU192
 726 002e D5F81432 		ldr	r3, [r5, #532]
 271:Middlewares/ST/STM32_USB_Device_Library/Class/MSC/Src/usbd_msc_bot.c ****   hmsc->csw.dDataResidue = hmsc->cbw.dDataLength;
 727              		.loc 1 271 18 view .LVU193
 728 0032 C5F83432 		str	r3, [r5, #564]
 272:Middlewares/ST/STM32_USB_Device_Library/Class/MSC/Src/usbd_msc_bot.c **** 
 729              		.loc 1 272 3 is_stmt 1 view .LVU194
 272:Middlewares/ST/STM32_USB_Device_Library/Class/MSC/Src/usbd_msc_bot.c **** 
 730              		.loc 1 272 37 is_stmt 0 view .LVU195
 731 0036 D5F81832 		ldr	r3, [r5, #536]
 272:Middlewares/ST/STM32_USB_Device_Library/Class/MSC/Src/usbd_msc_bot.c **** 
 732              		.loc 1 272 26 view .LVU196
 733 003a C5F83832 		str	r3, [r5, #568]
 274:Middlewares/ST/STM32_USB_Device_Library/Class/MSC/Src/usbd_msc_bot.c ****       (hmsc->cbw.dSignature != USBD_BOT_CBW_SIGNATURE) ||
 734              		.loc 1 274 3 is_stmt 1 view .LVU197
 274:Middlewares/ST/STM32_USB_Device_Library/Class/MSC/Src/usbd_msc_bot.c ****       (hmsc->cbw.dSignature != USBD_BOT_CBW_SIGNATURE) ||
 735              		.loc 1 274 8 is_stmt 0 view .LVU198
 736 003e 2046     		mov	r0, r4
 737 0040 FFF7FEFF 		bl	USBD_LL_GetRxDataSize
 738              	.LVL60:
 274:Middlewares/ST/STM32_USB_Device_Library/Class/MSC/Src/usbd_msc_bot.c ****       (hmsc->cbw.dSignature != USBD_BOT_CBW_SIGNATURE) ||
 739              		.loc 1 274 6 view .LVU199
 740 0044 1F28     		cmp	r0, #31
 741 0046 04D1     		bne	.L42
 275:Middlewares/ST/STM32_USB_Device_Library/Class/MSC/Src/usbd_msc_bot.c ****       (hmsc->cbw.bLUN > 1U) || (hmsc->cbw.bCBLength < 1U) ||
 742              		.loc 1 275 17 discriminator 1 view .LVU200
 743 0048 D5F81022 		ldr	r2, [r5, #528]
 274:Middlewares/ST/STM32_USB_Device_Library/Class/MSC/Src/usbd_msc_bot.c ****       (hmsc->cbw.dSignature != USBD_BOT_CBW_SIGNATURE) ||
 744              		.loc 1 274 73 discriminator 1 view .LVU201
 745 004c 214B     		ldr	r3, .L51+8
 746 004e 9A42     		cmp	r2, r3
 747 0050 0CD0     		beq	.L48
 748              	.L42:
ARM GAS  C:\Users\ADMINI~1\AppData\Local\Temp\ccG84XQ1.s 			page 24


 279:Middlewares/ST/STM32_USB_Device_Library/Class/MSC/Src/usbd_msc_bot.c **** 
 749              		.loc 1 279 5 is_stmt 1 view .LVU202
 750 0052 2023     		movs	r3, #32
 751 0054 0522     		movs	r2, #5
 752 0056 95F81D12 		ldrb	r1, [r5, #541]	@ zero_extendqisi2
 753 005a 2046     		mov	r0, r4
 754 005c FFF7FEFF 		bl	SCSI_SenseCode
 755              	.LVL61:
 281:Middlewares/ST/STM32_USB_Device_Library/Class/MSC/Src/usbd_msc_bot.c ****     MSC_BOT_Abort(pdev);
 756              		.loc 1 281 5 view .LVU203
 281:Middlewares/ST/STM32_USB_Device_Library/Class/MSC/Src/usbd_msc_bot.c ****     MSC_BOT_Abort(pdev);
 757              		.loc 1 281 22 is_stmt 0 view .LVU204
 758 0060 0223     		movs	r3, #2
 759 0062 6B72     		strb	r3, [r5, #9]
 282:Middlewares/ST/STM32_USB_Device_Library/Class/MSC/Src/usbd_msc_bot.c ****   }
 760              		.loc 1 282 5 is_stmt 1 view .LVU205
 761 0064 2046     		mov	r0, r4
 762 0066 FFF7FEFF 		bl	MSC_BOT_Abort
 763              	.LVL62:
 764              	.L40:
 322:Middlewares/ST/STM32_USB_Device_Library/Class/MSC/Src/usbd_msc_bot.c **** 
 765              		.loc 1 322 1 is_stmt 0 view .LVU206
 766 006a 38BD     		pop	{r3, r4, r5, pc}
 767              	.LVL63:
 768              	.L48:
 276:Middlewares/ST/STM32_USB_Device_Library/Class/MSC/Src/usbd_msc_bot.c ****       (hmsc->cbw.bCBLength > 16U))
 769              		.loc 1 276 17 view .LVU207
 770 006c 95F81D12 		ldrb	r1, [r5, #541]	@ zero_extendqisi2
 275:Middlewares/ST/STM32_USB_Device_Library/Class/MSC/Src/usbd_msc_bot.c ****       (hmsc->cbw.bLUN > 1U) || (hmsc->cbw.bCBLength < 1U) ||
 771              		.loc 1 275 56 view .LVU208
 772 0070 0129     		cmp	r1, #1
 773 0072 EED8     		bhi	.L42
 276:Middlewares/ST/STM32_USB_Device_Library/Class/MSC/Src/usbd_msc_bot.c ****       (hmsc->cbw.bCBLength > 16U))
 774              		.loc 1 276 42 view .LVU209
 775 0074 95F81E32 		ldrb	r3, [r5, #542]	@ zero_extendqisi2
 276:Middlewares/ST/STM32_USB_Device_Library/Class/MSC/Src/usbd_msc_bot.c ****       (hmsc->cbw.bCBLength > 16U))
 776              		.loc 1 276 29 view .LVU210
 777 0078 002B     		cmp	r3, #0
 778 007a EAD0     		beq	.L42
 276:Middlewares/ST/STM32_USB_Device_Library/Class/MSC/Src/usbd_msc_bot.c ****       (hmsc->cbw.bCBLength > 16U))
 779              		.loc 1 276 59 discriminator 1 view .LVU211
 780 007c 102B     		cmp	r3, #16
 781 007e E8D8     		bhi	.L42
 286:Middlewares/ST/STM32_USB_Device_Library/Class/MSC/Src/usbd_msc_bot.c ****     {
 782              		.loc 1 286 5 is_stmt 1 view .LVU212
 286:Middlewares/ST/STM32_USB_Device_Library/Class/MSC/Src/usbd_msc_bot.c ****     {
 783              		.loc 1 286 9 is_stmt 0 view .LVU213
 784 0080 05F21F22 		addw	r2, r5, #543
 785 0084 2046     		mov	r0, r4
 786 0086 FFF7FEFF 		bl	SCSI_ProcessCmd
 787              	.LVL64:
 286:Middlewares/ST/STM32_USB_Device_Library/Class/MSC/Src/usbd_msc_bot.c ****     {
 788              		.loc 1 286 8 view .LVU214
 789 008a 0028     		cmp	r0, #0
 790 008c 0CDB     		blt	.L49
 298:Middlewares/ST/STM32_USB_Device_Library/Class/MSC/Src/usbd_msc_bot.c ****              (hmsc->bot_state != USBD_BOT_DATA_OUT) &&
 791              		.loc 1 298 10 is_stmt 1 view .LVU215
ARM GAS  C:\Users\ADMINI~1\AppData\Local\Temp\ccG84XQ1.s 			page 25


 298:Middlewares/ST/STM32_USB_Device_Library/Class/MSC/Src/usbd_msc_bot.c ****              (hmsc->bot_state != USBD_BOT_DATA_OUT) &&
 792              		.loc 1 298 19 is_stmt 0 view .LVU216
 793 008e 2B7A     		ldrb	r3, [r5, #8]	@ zero_extendqisi2
 299:Middlewares/ST/STM32_USB_Device_Library/Class/MSC/Src/usbd_msc_bot.c ****              (hmsc->bot_state != USBD_BOT_LAST_DATA_IN))
 794              		.loc 1 299 53 view .LVU217
 795 0090 013B     		subs	r3, r3, #1
 796 0092 DBB2     		uxtb	r3, r3
 298:Middlewares/ST/STM32_USB_Device_Library/Class/MSC/Src/usbd_msc_bot.c ****              (hmsc->bot_state != USBD_BOT_DATA_OUT) &&
 797              		.loc 1 298 13 view .LVU218
 798 0094 022B     		cmp	r3, #2
 799 0096 E8D9     		bls	.L40
 303:Middlewares/ST/STM32_USB_Device_Library/Class/MSC/Src/usbd_msc_bot.c ****       {
 800              		.loc 1 303 7 is_stmt 1 view .LVU219
 303:Middlewares/ST/STM32_USB_Device_Library/Class/MSC/Src/usbd_msc_bot.c ****       {
 801              		.loc 1 303 15 is_stmt 0 view .LVU220
 802 0098 EA68     		ldr	r2, [r5, #12]
 303:Middlewares/ST/STM32_USB_Device_Library/Class/MSC/Src/usbd_msc_bot.c ****       {
 803              		.loc 1 303 10 view .LVU221
 804 009a 8AB1     		cbz	r2, .L46
 306:Middlewares/ST/STM32_USB_Device_Library/Class/MSC/Src/usbd_msc_bot.c ****       }
 805              		.loc 1 306 9 is_stmt 1 view .LVU222
 806 009c 05F11001 		add	r1, r5, #16
 807 00a0 2046     		mov	r0, r4
 808 00a2 FFF7FEFF 		bl	MSC_BOT_SendData
 809              	.LVL65:
 810 00a6 E0E7     		b	.L40
 811              	.L49:
 288:Middlewares/ST/STM32_USB_Device_Library/Class/MSC/Src/usbd_msc_bot.c ****       {
 812              		.loc 1 288 7 view .LVU223
 288:Middlewares/ST/STM32_USB_Device_Library/Class/MSC/Src/usbd_msc_bot.c ****       {
 813              		.loc 1 288 15 is_stmt 0 view .LVU224
 814 00a8 2B7A     		ldrb	r3, [r5, #8]	@ zero_extendqisi2
 288:Middlewares/ST/STM32_USB_Device_Library/Class/MSC/Src/usbd_msc_bot.c ****       {
 815              		.loc 1 288 10 view .LVU225
 816 00aa 052B     		cmp	r3, #5
 817 00ac 03D0     		beq	.L50
 294:Middlewares/ST/STM32_USB_Device_Library/Class/MSC/Src/usbd_msc_bot.c ****       }
 818              		.loc 1 294 9 is_stmt 1 view .LVU226
 819 00ae 2046     		mov	r0, r4
 820 00b0 FFF7FEFF 		bl	MSC_BOT_Abort
 821              	.LVL66:
 822 00b4 D9E7     		b	.L40
 823              	.L50:
 290:Middlewares/ST/STM32_USB_Device_Library/Class/MSC/Src/usbd_msc_bot.c ****       }
 824              		.loc 1 290 9 view .LVU227
 825 00b6 0121     		movs	r1, #1
 826 00b8 2046     		mov	r0, r4
 827 00ba FFF7FEFF 		bl	MSC_BOT_SendCSW
 828              	.LVL67:
 829 00be D4E7     		b	.L40
 830              	.L46:
 308:Middlewares/ST/STM32_USB_Device_Library/Class/MSC/Src/usbd_msc_bot.c ****       {
 831              		.loc 1 308 12 view .LVU228
 310:Middlewares/ST/STM32_USB_Device_Library/Class/MSC/Src/usbd_msc_bot.c ****       }
 832              		.loc 1 310 9 view .LVU229
 833 00c0 0021     		movs	r1, #0
 834 00c2 2046     		mov	r0, r4
ARM GAS  C:\Users\ADMINI~1\AppData\Local\Temp\ccG84XQ1.s 			page 26


 835 00c4 FFF7FEFF 		bl	MSC_BOT_SendCSW
 836              	.LVL68:
 837 00c8 CFE7     		b	.L40
 838              	.L52:
 839 00ca 00BF     		.align	2
 840              	.L51:
 841 00cc 00000000 		.word	MSCInEpAdd
 842 00d0 00000000 		.word	MSCOutEpAdd
 843 00d4 55534243 		.word	1128420181
 844              		.cfi_endproc
 845              	.LFE139:
 847              		.section	.text.MSC_BOT_DataOut,"ax",%progbits
 848              		.align	1
 849              		.global	MSC_BOT_DataOut
 850              		.syntax unified
 851              		.thumb
 852              		.thumb_func
 854              	MSC_BOT_DataOut:
 855              	.LVL69:
 856              	.LFB138:
 222:Middlewares/ST/STM32_USB_Device_Library/Class/MSC/Src/usbd_msc_bot.c ****   UNUSED(epnum);
 857              		.loc 1 222 1 view -0
 858              		.cfi_startproc
 859              		@ args = 0, pretend = 0, frame = 0
 860              		@ frame_needed = 0, uses_anonymous_args = 0
 223:Middlewares/ST/STM32_USB_Device_Library/Class/MSC/Src/usbd_msc_bot.c **** 
 861              		.loc 1 223 3 view .LVU231
 225:Middlewares/ST/STM32_USB_Device_Library/Class/MSC/Src/usbd_msc_bot.c ****   
 862              		.loc 1 225 3 view .LVU232
 225:Middlewares/ST/STM32_USB_Device_Library/Class/MSC/Src/usbd_msc_bot.c ****   
 863              		.loc 1 225 94 is_stmt 0 view .LVU233
 864 0000 D0F8F832 		ldr	r3, [r0, #760]
 225:Middlewares/ST/STM32_USB_Device_Library/Class/MSC/Src/usbd_msc_bot.c ****   
 865              		.loc 1 225 31 view .LVU234
 866 0004 B233     		adds	r3, r3, #178
 867 0006 00EB8303 		add	r3, r0, r3, lsl #2
 868 000a 5B68     		ldr	r3, [r3, #4]
 869              	.LVL70:
 227:Middlewares/ST/STM32_USB_Device_Library/Class/MSC/Src/usbd_msc_bot.c ****   {
 870              		.loc 1 227 3 is_stmt 1 view .LVU235
 227:Middlewares/ST/STM32_USB_Device_Library/Class/MSC/Src/usbd_msc_bot.c ****   {
 871              		.loc 1 227 6 is_stmt 0 view .LVU236
 872 000c B3B1     		cbz	r3, .L58
 222:Middlewares/ST/STM32_USB_Device_Library/Class/MSC/Src/usbd_msc_bot.c ****   UNUSED(epnum);
 873              		.loc 1 222 1 view .LVU237
 874 000e 10B5     		push	{r4, lr}
 875              	.LCFI8:
 876              		.cfi_def_cfa_offset 8
 877              		.cfi_offset 4, -8
 878              		.cfi_offset 14, -4
 879 0010 0446     		mov	r4, r0
 232:Middlewares/ST/STM32_USB_Device_Library/Class/MSC/Src/usbd_msc_bot.c ****   {
 880              		.loc 1 232 3 is_stmt 1 view .LVU238
 232:Middlewares/ST/STM32_USB_Device_Library/Class/MSC/Src/usbd_msc_bot.c ****   {
 881              		.loc 1 232 15 is_stmt 0 view .LVU239
 882 0012 1A7A     		ldrb	r2, [r3, #8]	@ zero_extendqisi2
 232:Middlewares/ST/STM32_USB_Device_Library/Class/MSC/Src/usbd_msc_bot.c ****   {
ARM GAS  C:\Users\ADMINI~1\AppData\Local\Temp\ccG84XQ1.s 			page 27


 883              		.loc 1 232 3 view .LVU240
 884 0014 12B1     		cbz	r2, .L55
 885 0016 012A     		cmp	r2, #1
 886 0018 03D0     		beq	.L56
 887              	.LVL71:
 888              	.L53:
 248:Middlewares/ST/STM32_USB_Device_Library/Class/MSC/Src/usbd_msc_bot.c **** 
 889              		.loc 1 248 1 view .LVU241
 890 001a 10BD     		pop	{r4, pc}
 891              	.LVL72:
 892              	.L55:
 235:Middlewares/ST/STM32_USB_Device_Library/Class/MSC/Src/usbd_msc_bot.c ****       break;
 893              		.loc 1 235 7 is_stmt 1 view .LVU242
 894 001c FFF7FEFF 		bl	MSC_BOT_CBW_Decode
 895              	.LVL73:
 236:Middlewares/ST/STM32_USB_Device_Library/Class/MSC/Src/usbd_msc_bot.c **** 
 896              		.loc 1 236 7 view .LVU243
 897 0020 FBE7     		b	.L53
 898              	.LVL74:
 899              	.L56:
 239:Middlewares/ST/STM32_USB_Device_Library/Class/MSC/Src/usbd_msc_bot.c ****       {
 900              		.loc 1 239 7 view .LVU244
 239:Middlewares/ST/STM32_USB_Device_Library/Class/MSC/Src/usbd_msc_bot.c ****       {
 901              		.loc 1 239 11 is_stmt 0 view .LVU245
 902 0022 03F21F22 		addw	r2, r3, #543
 903 0026 93F81D12 		ldrb	r1, [r3, #541]	@ zero_extendqisi2
 904              	.LVL75:
 239:Middlewares/ST/STM32_USB_Device_Library/Class/MSC/Src/usbd_msc_bot.c ****       {
 905              		.loc 1 239 11 view .LVU246
 906 002a FFF7FEFF 		bl	SCSI_ProcessCmd
 907              	.LVL76:
 239:Middlewares/ST/STM32_USB_Device_Library/Class/MSC/Src/usbd_msc_bot.c ****       {
 908              		.loc 1 239 10 view .LVU247
 909 002e 0028     		cmp	r0, #0
 910 0030 F3DA     		bge	.L53
 241:Middlewares/ST/STM32_USB_Device_Library/Class/MSC/Src/usbd_msc_bot.c ****       }
 911              		.loc 1 241 9 is_stmt 1 view .LVU248
 912 0032 0121     		movs	r1, #1
 913 0034 2046     		mov	r0, r4
 914 0036 FFF7FEFF 		bl	MSC_BOT_SendCSW
 915              	.LVL77:
 916 003a EEE7     		b	.L53
 917              	.LVL78:
 918              	.L58:
 919              	.LCFI9:
 920              		.cfi_def_cfa_offset 0
 921              		.cfi_restore 4
 922              		.cfi_restore 14
 241:Middlewares/ST/STM32_USB_Device_Library/Class/MSC/Src/usbd_msc_bot.c ****       }
 923              		.loc 1 241 9 is_stmt 0 view .LVU249
 924 003c 7047     		bx	lr
 925              		.cfi_endproc
 926              	.LFE138:
 928              		.section	.text.MSC_BOT_CplClrFeature,"ax",%progbits
 929              		.align	1
 930              		.global	MSC_BOT_CplClrFeature
 931              		.syntax unified
ARM GAS  C:\Users\ADMINI~1\AppData\Local\Temp\ccG84XQ1.s 			page 28


 932              		.thumb
 933              		.thumb_func
 935              	MSC_BOT_CplClrFeature:
 936              	.LVL79:
 937              	.LFB143:
 429:Middlewares/ST/STM32_USB_Device_Library/Class/MSC/Src/usbd_msc_bot.c **** 
 430:Middlewares/ST/STM32_USB_Device_Library/Class/MSC/Src/usbd_msc_bot.c **** /**
 431:Middlewares/ST/STM32_USB_Device_Library/Class/MSC/Src/usbd_msc_bot.c ****   * @brief  MSC_BOT_CplClrFeature
 432:Middlewares/ST/STM32_USB_Device_Library/Class/MSC/Src/usbd_msc_bot.c ****   *         Complete the clear feature request
 433:Middlewares/ST/STM32_USB_Device_Library/Class/MSC/Src/usbd_msc_bot.c ****   * @param  pdev: device instance
 434:Middlewares/ST/STM32_USB_Device_Library/Class/MSC/Src/usbd_msc_bot.c ****   * @param  epnum: endpoint index
 435:Middlewares/ST/STM32_USB_Device_Library/Class/MSC/Src/usbd_msc_bot.c ****   * @retval None
 436:Middlewares/ST/STM32_USB_Device_Library/Class/MSC/Src/usbd_msc_bot.c ****   */
 437:Middlewares/ST/STM32_USB_Device_Library/Class/MSC/Src/usbd_msc_bot.c **** 
 438:Middlewares/ST/STM32_USB_Device_Library/Class/MSC/Src/usbd_msc_bot.c **** void  MSC_BOT_CplClrFeature(USBD_HandleTypeDef *pdev, uint8_t epnum)
 439:Middlewares/ST/STM32_USB_Device_Library/Class/MSC/Src/usbd_msc_bot.c **** {
 938              		.loc 1 439 1 is_stmt 1 view -0
 939              		.cfi_startproc
 940              		@ args = 0, pretend = 0, frame = 0
 941              		@ frame_needed = 0, uses_anonymous_args = 0
 942              		.loc 1 439 1 is_stmt 0 view .LVU251
 943 0000 70B5     		push	{r4, r5, r6, lr}
 944              	.LCFI10:
 945              		.cfi_def_cfa_offset 16
 946              		.cfi_offset 4, -16
 947              		.cfi_offset 5, -12
 948              		.cfi_offset 6, -8
 949              		.cfi_offset 14, -4
 950 0002 0446     		mov	r4, r0
 951 0004 0D46     		mov	r5, r1
 440:Middlewares/ST/STM32_USB_Device_Library/Class/MSC/Src/usbd_msc_bot.c ****   USBD_MSC_BOT_HandleTypeDef *hmsc = (USBD_MSC_BOT_HandleTypeDef *)pdev->pClassDataCmsit[pdev->clas
 952              		.loc 1 440 3 is_stmt 1 view .LVU252
 953              		.loc 1 440 94 is_stmt 0 view .LVU253
 954 0006 D0F8F832 		ldr	r3, [r0, #760]
 955              		.loc 1 440 31 view .LVU254
 956 000a B233     		adds	r3, r3, #178
 957 000c 00EB8303 		add	r3, r0, r3, lsl #2
 958 0010 5E68     		ldr	r6, [r3, #4]
 959              	.LVL80:
 441:Middlewares/ST/STM32_USB_Device_Library/Class/MSC/Src/usbd_msc_bot.c **** 
 442:Middlewares/ST/STM32_USB_Device_Library/Class/MSC/Src/usbd_msc_bot.c **** #ifdef USE_USBD_COMPOSITE
 443:Middlewares/ST/STM32_USB_Device_Library/Class/MSC/Src/usbd_msc_bot.c ****   /* Get the Endpoints addresses allocated for this class instance */
 444:Middlewares/ST/STM32_USB_Device_Library/Class/MSC/Src/usbd_msc_bot.c ****   MSCInEpAdd  = USBD_CoreGetEPAdd(pdev, USBD_EP_IN, USBD_EP_TYPE_BULK);
 960              		.loc 1 444 3 is_stmt 1 view .LVU255
 961              		.loc 1 444 17 is_stmt 0 view .LVU256
 962 0012 0222     		movs	r2, #2
 963 0014 8021     		movs	r1, #128
 964              	.LVL81:
 965              		.loc 1 444 17 view .LVU257
 966 0016 FFF7FEFF 		bl	USBD_CoreGetEPAdd
 967              	.LVL82:
 968              		.loc 1 444 15 view .LVU258
 969 001a 114B     		ldr	r3, .L66
 970 001c 1870     		strb	r0, [r3]
 445:Middlewares/ST/STM32_USB_Device_Library/Class/MSC/Src/usbd_msc_bot.c ****   MSCOutEpAdd = USBD_CoreGetEPAdd(pdev, USBD_EP_OUT, USBD_EP_TYPE_BULK);
 971              		.loc 1 445 3 is_stmt 1 view .LVU259
 972              		.loc 1 445 17 is_stmt 0 view .LVU260
ARM GAS  C:\Users\ADMINI~1\AppData\Local\Temp\ccG84XQ1.s 			page 29


 973 001e 0222     		movs	r2, #2
 974 0020 0021     		movs	r1, #0
 975 0022 2046     		mov	r0, r4
 976 0024 FFF7FEFF 		bl	USBD_CoreGetEPAdd
 977              	.LVL83:
 978              		.loc 1 445 15 view .LVU261
 979 0028 0E4B     		ldr	r3, .L66+4
 980 002a 1870     		strb	r0, [r3]
 446:Middlewares/ST/STM32_USB_Device_Library/Class/MSC/Src/usbd_msc_bot.c **** #endif /* USE_USBD_COMPOSITE */
 447:Middlewares/ST/STM32_USB_Device_Library/Class/MSC/Src/usbd_msc_bot.c **** 
 448:Middlewares/ST/STM32_USB_Device_Library/Class/MSC/Src/usbd_msc_bot.c ****   if (hmsc == NULL)
 981              		.loc 1 448 3 is_stmt 1 view .LVU262
 982              		.loc 1 448 6 is_stmt 0 view .LVU263
 983 002c 5EB1     		cbz	r6, .L61
 449:Middlewares/ST/STM32_USB_Device_Library/Class/MSC/Src/usbd_msc_bot.c ****   {
 450:Middlewares/ST/STM32_USB_Device_Library/Class/MSC/Src/usbd_msc_bot.c ****     return;
 451:Middlewares/ST/STM32_USB_Device_Library/Class/MSC/Src/usbd_msc_bot.c ****   }
 452:Middlewares/ST/STM32_USB_Device_Library/Class/MSC/Src/usbd_msc_bot.c **** 
 453:Middlewares/ST/STM32_USB_Device_Library/Class/MSC/Src/usbd_msc_bot.c ****   if (hmsc->bot_status == USBD_BOT_STATUS_ERROR) /* Bad CBW Signature */
 984              		.loc 1 453 3 is_stmt 1 view .LVU264
 985              		.loc 1 453 11 is_stmt 0 view .LVU265
 986 002e 737A     		ldrb	r3, [r6, #9]	@ zero_extendqisi2
 987              		.loc 1 453 6 view .LVU266
 988 0030 022B     		cmp	r3, #2
 989 0032 09D0     		beq	.L65
 454:Middlewares/ST/STM32_USB_Device_Library/Class/MSC/Src/usbd_msc_bot.c ****   {
 455:Middlewares/ST/STM32_USB_Device_Library/Class/MSC/Src/usbd_msc_bot.c ****     (void)USBD_LL_StallEP(pdev, MSCInEpAdd);
 456:Middlewares/ST/STM32_USB_Device_Library/Class/MSC/Src/usbd_msc_bot.c ****     (void)USBD_LL_StallEP(pdev, MSCOutEpAdd);
 457:Middlewares/ST/STM32_USB_Device_Library/Class/MSC/Src/usbd_msc_bot.c ****   }
 458:Middlewares/ST/STM32_USB_Device_Library/Class/MSC/Src/usbd_msc_bot.c ****   else if (((epnum & 0x80U) == 0x80U) && (hmsc->bot_status != USBD_BOT_STATUS_RECOVERY))
 990              		.loc 1 458 8 is_stmt 1 view .LVU267
 991              		.loc 1 458 11 is_stmt 0 view .LVU268
 992 0034 15F0800F 		tst	r5, #128
 993 0038 05D0     		beq	.L61
 994              		.loc 1 458 39 discriminator 1 view .LVU269
 995 003a 012B     		cmp	r3, #1
 996 003c 03D0     		beq	.L61
 459:Middlewares/ST/STM32_USB_Device_Library/Class/MSC/Src/usbd_msc_bot.c ****   {
 460:Middlewares/ST/STM32_USB_Device_Library/Class/MSC/Src/usbd_msc_bot.c ****     MSC_BOT_SendCSW(pdev, USBD_CSW_CMD_FAILED);
 997              		.loc 1 460 5 is_stmt 1 view .LVU270
 998 003e 0121     		movs	r1, #1
 999 0040 2046     		mov	r0, r4
 1000 0042 FFF7FEFF 		bl	MSC_BOT_SendCSW
 1001              	.LVL84:
 1002              	.L61:
 461:Middlewares/ST/STM32_USB_Device_Library/Class/MSC/Src/usbd_msc_bot.c ****   }
 462:Middlewares/ST/STM32_USB_Device_Library/Class/MSC/Src/usbd_msc_bot.c ****   else
 463:Middlewares/ST/STM32_USB_Device_Library/Class/MSC/Src/usbd_msc_bot.c ****   {
 464:Middlewares/ST/STM32_USB_Device_Library/Class/MSC/Src/usbd_msc_bot.c ****     return;
 465:Middlewares/ST/STM32_USB_Device_Library/Class/MSC/Src/usbd_msc_bot.c ****   }
 466:Middlewares/ST/STM32_USB_Device_Library/Class/MSC/Src/usbd_msc_bot.c **** }
 1003              		.loc 1 466 1 is_stmt 0 view .LVU271
 1004 0046 70BD     		pop	{r4, r5, r6, pc}
 1005              	.LVL85:
 1006              	.L65:
 455:Middlewares/ST/STM32_USB_Device_Library/Class/MSC/Src/usbd_msc_bot.c ****     (void)USBD_LL_StallEP(pdev, MSCOutEpAdd);
 1007              		.loc 1 455 5 is_stmt 1 view .LVU272
ARM GAS  C:\Users\ADMINI~1\AppData\Local\Temp\ccG84XQ1.s 			page 30


 455:Middlewares/ST/STM32_USB_Device_Library/Class/MSC/Src/usbd_msc_bot.c ****     (void)USBD_LL_StallEP(pdev, MSCOutEpAdd);
 1008              		.loc 1 455 11 is_stmt 0 view .LVU273
 1009 0048 054B     		ldr	r3, .L66
 1010 004a 1978     		ldrb	r1, [r3]	@ zero_extendqisi2
 1011 004c 2046     		mov	r0, r4
 1012 004e FFF7FEFF 		bl	USBD_LL_StallEP
 1013              	.LVL86:
 456:Middlewares/ST/STM32_USB_Device_Library/Class/MSC/Src/usbd_msc_bot.c ****   }
 1014              		.loc 1 456 5 is_stmt 1 view .LVU274
 456:Middlewares/ST/STM32_USB_Device_Library/Class/MSC/Src/usbd_msc_bot.c ****   }
 1015              		.loc 1 456 11 is_stmt 0 view .LVU275
 1016 0052 044B     		ldr	r3, .L66+4
 1017 0054 1978     		ldrb	r1, [r3]	@ zero_extendqisi2
 1018 0056 2046     		mov	r0, r4
 1019 0058 FFF7FEFF 		bl	USBD_LL_StallEP
 1020              	.LVL87:
 1021 005c F3E7     		b	.L61
 1022              	.L67:
 1023 005e 00BF     		.align	2
 1024              	.L66:
 1025 0060 00000000 		.word	MSCInEpAdd
 1026 0064 00000000 		.word	MSCOutEpAdd
 1027              		.cfi_endproc
 1028              	.LFE143:
 1030              		.text
 1031              	.Letext0:
 1032              		.file 2 "e:\\program files (x86)\\gnu arm embedded toolchain\\10 2021.10\\arm-none-eabi\\include\\
 1033              		.file 3 "e:\\program files (x86)\\gnu arm embedded toolchain\\10 2021.10\\arm-none-eabi\\include\\
 1034              		.file 4 "Middlewares/ST/STM32_USB_Device_Library/Core/Inc/usbd_def.h"
 1035              		.file 5 "Middlewares/ST/STM32_USB_Device_Library/Class/MSC/Inc/usbd_msc_bot.h"
 1036              		.file 6 "Middlewares/ST/STM32_USB_Device_Library/Class/MSC/Inc/usbd_msc_scsi.h"
 1037              		.file 7 "Middlewares/ST/STM32_USB_Device_Library/Class/MSC/Inc/usbd_msc.h"
 1038              		.file 8 "Middlewares/ST/STM32_USB_Device_Library/Core/Inc/usbd_core.h"
ARM GAS  C:\Users\ADMINI~1\AppData\Local\Temp\ccG84XQ1.s 			page 31

