ARM GAS  C:\Users\ADMINI~1\AppData\Local\Temp\ccqzcoSo.s 			page 1


   1              		.cpu cortex-m4
   2              		.arch armv7e-m
   3              		.fpu fpv4-sp-d16
   4              		.eabi_attribute 27, 1
   5              		.eabi_attribute 28, 1
   6              		.eabi_attribute 20, 1
   7              		.eabi_attribute 21, 1
   8              		.eabi_attribute 23, 3
   9              		.eabi_attribute 24, 1
  10              		.eabi_attribute 25, 1
  11              		.eabi_attribute 26, 1
  12              		.eabi_attribute 30, 1
  13              		.eabi_attribute 34, 1
  14              		.eabi_attribute 18, 4
  15              		.file	"usbd_composite.c"
  16              		.text
  17              	.Ltext0:
  18              		.cfi_sections	.debug_frame
  19              		.section	.text.USBD_CMPSIT_FS_DeviceDescriptor,"ax",%progbits
  20              		.align	1
  21              		.global	USBD_CMPSIT_FS_DeviceDescriptor
  22              		.syntax unified
  23              		.thumb
  24              		.thumb_func
  26              	USBD_CMPSIT_FS_DeviceDescriptor:
  27              	.LVL0:
  28              	.LFB134:
  29              		.file 1 "Src/usbd_composite.c"
   1:Src/usbd_composite.c **** #include "usbd_composite.h"
   2:Src/usbd_composite.c **** #include "usbd_def.h"
   3:Src/usbd_composite.c **** #include "usbd_cdc.h"
   4:Src/usbd_composite.c **** #include "usbd_msc.h"
   5:Src/usbd_composite.c **** 
   6:Src/usbd_composite.c **** #include "usbd_core.h"
   7:Src/usbd_composite.c **** #include "usbd_desc.h"
   8:Src/usbd_composite.c **** #include "usbd_conf.h"
   9:Src/usbd_composite.c **** #include <stdio.h>
  10:Src/usbd_composite.c **** 
  11:Src/usbd_composite.c **** #define USBD_PRODUCT_XSTR(s) USBD_PRODUCT_STR(s)
  12:Src/usbd_composite.c **** #define USBD_PRODUCT_STR(s) #s
  13:Src/usbd_composite.c **** 
  14:Src/usbd_composite.c **** #define USBD_CMPSIT_VID     1155
  15:Src/usbd_composite.c **** #define USBD_CMPSIT_LANGID_STRING     1033
  16:Src/usbd_composite.c **** #define USBD_CMPSIT_MANUFACTURER_STRING     "wenyz@wolfGroup"
  17:Src/usbd_composite.c **** #define USBD_CMPSIT_PID_FS     22336
  18:Src/usbd_composite.c **** #define USBD_CMPSIT_PRODUCT_STRING_FS     "STM32 composite product"
  19:Src/usbd_composite.c **** #define USBD_CMPSIT_CONFIGURATION_STRING_FS     "Composite Config"
  20:Src/usbd_composite.c **** #define USBD_CMPSIT_INTERFACE_STRING_FS     "Composite Interface"
  21:Src/usbd_composite.c **** 
  22:Src/usbd_composite.c **** 
  23:Src/usbd_composite.c **** 
  24:Src/usbd_composite.c **** uint8_t * USBD_CMPSIT_FS_DeviceDescriptor(USBD_SpeedTypeDef speed, uint16_t *length);
  25:Src/usbd_composite.c **** uint8_t * USBD_CMPSIT_FS_LangIDStrDescriptor(USBD_SpeedTypeDef speed, uint16_t *length);
  26:Src/usbd_composite.c **** uint8_t * USBD_CMPSIT_FS_ManufacturerStrDescriptor(USBD_SpeedTypeDef speed, uint16_t *length);
  27:Src/usbd_composite.c **** uint8_t * USBD_CMPSIT_FS_ProductStrDescriptor(USBD_SpeedTypeDef speed, uint16_t *length);
  28:Src/usbd_composite.c **** uint8_t * USBD_CMPSIT_FS_SerialStrDescriptor(USBD_SpeedTypeDef speed, uint16_t *length);
  29:Src/usbd_composite.c **** uint8_t * USBD_CMPSIT_FS_ConfigStrDescriptor(USBD_SpeedTypeDef speed, uint16_t *length);
ARM GAS  C:\Users\ADMINI~1\AppData\Local\Temp\ccqzcoSo.s 			page 2


  30:Src/usbd_composite.c **** uint8_t * USBD_CMPSIT_FS_InterfaceStrDescriptor(USBD_SpeedTypeDef speed, uint16_t *length);
  31:Src/usbd_composite.c **** #if (USBD_LPM_ENABLED == 1)
  32:Src/usbd_composite.c **** uint8_t * USBD_CMPSIT_FS_USR_BOSDescriptor(USBD_SpeedTypeDef speed, uint16_t *length);
  33:Src/usbd_composite.c **** #endif /* (USBD_LPM_ENABLED == 1) */
  34:Src/usbd_composite.c **** 
  35:Src/usbd_composite.c **** 
  36:Src/usbd_composite.c **** USBD_DescriptorsTypeDef usbCmpsitFS_Desc =
  37:Src/usbd_composite.c **** {
  38:Src/usbd_composite.c ****   USBD_CMPSIT_FS_DeviceDescriptor
  39:Src/usbd_composite.c **** , USBD_CMPSIT_FS_LangIDStrDescriptor
  40:Src/usbd_composite.c **** , USBD_CMPSIT_FS_ManufacturerStrDescriptor
  41:Src/usbd_composite.c **** , USBD_CMPSIT_FS_ProductStrDescriptor
  42:Src/usbd_composite.c **** , USBD_CMPSIT_FS_SerialStrDescriptor
  43:Src/usbd_composite.c **** , USBD_CMPSIT_FS_ConfigStrDescriptor
  44:Src/usbd_composite.c **** , USBD_CMPSIT_FS_InterfaceStrDescriptor
  45:Src/usbd_composite.c **** #if (USBD_LPM_ENABLED == 1)
  46:Src/usbd_composite.c **** , USBD_CMPSIT_FS_USR_BOSDescriptor
  47:Src/usbd_composite.c **** #endif /* (USBD_LPM_ENABLED == 1) */
  48:Src/usbd_composite.c **** };
  49:Src/usbd_composite.c **** 
  50:Src/usbd_composite.c **** __ALIGN_BEGIN uint8_t USBD_CMPSIT_FS_DeviceDesc[USB_LEN_DEV_DESC] __ALIGN_END =
  51:Src/usbd_composite.c **** {
  52:Src/usbd_composite.c **** 	0x12,						/*bLength */
  53:Src/usbd_composite.c **** 	USB_DESC_TYPE_DEVICE, 	  /*bDescriptorType*/
  54:Src/usbd_composite.c **** #if (USBD_LPM_ENABLED == 1)
  55:Src/usbd_composite.c **** 	0x01, 					  /*bcdUSB */ /* changed to USB version 2.01
  56:Src/usbd_composite.c **** 											 in order to support LPM L1 suspend
  57:Src/usbd_composite.c **** 											 resume test of USBCV3.0*/
  58:Src/usbd_composite.c **** #else
  59:Src/usbd_composite.c **** 	0x00, 					  /*bcdUSB */
  60:Src/usbd_composite.c **** #endif /* (USBD_LPM_ENABLED == 1) */
  61:Src/usbd_composite.c **** 	0x02,
  62:Src/usbd_composite.c **** 	// Notify OS that this is a composite device
  63:Src/usbd_composite.c **** 	0xEF, 					  /*bDeviceClass*/
  64:Src/usbd_composite.c **** 	0x02, 					  /*bDeviceSubClass*/
  65:Src/usbd_composite.c **** 	0x01, 					  /*bDeviceProtocol*/
  66:Src/usbd_composite.c **** 	USB_MAX_EP0_SIZE, 		  /*bMaxPacketSize*/
  67:Src/usbd_composite.c **** 	LOBYTE(USBD_CMPSIT_VID), 		  /*idVendor*/
  68:Src/usbd_composite.c **** 	HIBYTE(USBD_CMPSIT_VID), 		  /*idVendor*/
  69:Src/usbd_composite.c **** 	LOBYTE(USBD_CMPSIT_PID_FS),		  /*idProduct*/
  70:Src/usbd_composite.c **** 	HIBYTE(USBD_CMPSIT_PID_FS),		  /*idProduct*/
  71:Src/usbd_composite.c **** 	0x00, 					  /*bcdDevice rel. 2.00*/
  72:Src/usbd_composite.c **** 	0x03, 					  /* bNumInterfaces */
  73:Src/usbd_composite.c **** 	USBD_IDX_MFC_STR, 		  /*Index of manufacturer  string*/
  74:Src/usbd_composite.c **** 	USBD_IDX_PRODUCT_STR, 	  /*Index of product string*/
  75:Src/usbd_composite.c **** 	USBD_IDX_SERIAL_STR,		  /*Index of serial number string*/
  76:Src/usbd_composite.c **** 	USBD_MAX_NUM_CONFIGURATION  /*bNumConfigurations*/
  77:Src/usbd_composite.c **** 
  78:Src/usbd_composite.c **** };
  79:Src/usbd_composite.c **** 
  80:Src/usbd_composite.c **** #if (USBD_LPM_ENABLED == 1)
  81:Src/usbd_composite.c **** __ALIGN_BEGIN uint8_t USBD_CMPSIT_FS_BOSDesc[USB_SIZ_BOS_DESC] __ALIGN_END =
  82:Src/usbd_composite.c **** {
  83:Src/usbd_composite.c ****   0x5,
  84:Src/usbd_composite.c ****   USB_DESC_TYPE_BOS,
  85:Src/usbd_composite.c ****   0xC,
  86:Src/usbd_composite.c ****   0x0,
ARM GAS  C:\Users\ADMINI~1\AppData\Local\Temp\ccqzcoSo.s 			page 3


  87:Src/usbd_composite.c ****   0x1,  /* 1 device capability*/
  88:Src/usbd_composite.c ****         /* device capability*/
  89:Src/usbd_composite.c ****   0x7,
  90:Src/usbd_composite.c ****   USB_DEVICE_CAPABITY_TYPE,
  91:Src/usbd_composite.c ****   0x2,
  92:Src/usbd_composite.c ****   0x2,  /* LPM capability bit set*/
  93:Src/usbd_composite.c ****   0x0,
  94:Src/usbd_composite.c ****   0x0,
  95:Src/usbd_composite.c ****   0x0
  96:Src/usbd_composite.c **** };
  97:Src/usbd_composite.c **** #endif /* (USBD_LPM_ENABLED == 1) */
  98:Src/usbd_composite.c **** 
  99:Src/usbd_composite.c **** /** USB lang identifier descriptor. */
 100:Src/usbd_composite.c **** __ALIGN_BEGIN uint8_t USBD_CMPSIT_LangIDDesc[USB_LEN_LANGID_STR_DESC] __ALIGN_END =
 101:Src/usbd_composite.c **** {
 102:Src/usbd_composite.c ****      USB_LEN_LANGID_STR_DESC,
 103:Src/usbd_composite.c ****      USB_DESC_TYPE_STRING,
 104:Src/usbd_composite.c ****      LOBYTE(USBD_CMPSIT_LANGID_STRING),
 105:Src/usbd_composite.c ****      HIBYTE(USBD_CMPSIT_LANGID_STRING)
 106:Src/usbd_composite.c **** };
 107:Src/usbd_composite.c **** 
 108:Src/usbd_composite.c **** 
 109:Src/usbd_composite.c **** /* Internal string descriptor. */
 110:Src/usbd_composite.c **** __ALIGN_BEGIN uint8_t USBD_CMPSIT_StrDesc[USBD_MAX_STR_DESC_SIZ] __ALIGN_END;
 111:Src/usbd_composite.c **** 
 112:Src/usbd_composite.c **** 
 113:Src/usbd_composite.c **** __ALIGN_BEGIN uint8_t USBD_CMPSIT_StringSerial[USB_SIZ_STRING_SERIAL] __ALIGN_END = {
 114:Src/usbd_composite.c ****   USB_SIZ_STRING_SERIAL,
 115:Src/usbd_composite.c ****   USB_DESC_TYPE_STRING,
 116:Src/usbd_composite.c **** };
 117:Src/usbd_composite.c ****  
 118:Src/usbd_composite.c **** 
 119:Src/usbd_composite.c **** uint8_t * USBD_CMPSIT_FS_DeviceDescriptor(USBD_SpeedTypeDef speed, uint16_t *length)
 120:Src/usbd_composite.c **** {
  30              		.loc 1 120 1 view -0
  31              		.cfi_startproc
  32              		@ args = 0, pretend = 0, frame = 0
  33              		@ frame_needed = 0, uses_anonymous_args = 0
  34              		@ link register save eliminated.
 121:Src/usbd_composite.c ****   UNUSED(speed);
  35              		.loc 1 121 3 view .LVU1
 122:Src/usbd_composite.c ****   *length = sizeof(USBD_CMPSIT_FS_DeviceDesc);
  36              		.loc 1 122 3 view .LVU2
  37              		.loc 1 122 11 is_stmt 0 view .LVU3
  38 0000 1223     		movs	r3, #18
  39 0002 0B80     		strh	r3, [r1]	@ movhi
 123:Src/usbd_composite.c ****   return USBD_CMPSIT_FS_DeviceDesc;
  40              		.loc 1 123 3 is_stmt 1 view .LVU4
 124:Src/usbd_composite.c **** }
  41              		.loc 1 124 1 is_stmt 0 view .LVU5
  42 0004 0048     		ldr	r0, .L2
  43              	.LVL1:
  44              		.loc 1 124 1 view .LVU6
  45 0006 7047     		bx	lr
  46              	.L3:
  47              		.align	2
  48              	.L2:
ARM GAS  C:\Users\ADMINI~1\AppData\Local\Temp\ccqzcoSo.s 			page 4


  49 0008 00000000 		.word	.LANCHOR0
  50              		.cfi_endproc
  51              	.LFE134:
  53              		.section	.text.USBD_CMPSIT_FS_LangIDStrDescriptor,"ax",%progbits
  54              		.align	1
  55              		.global	USBD_CMPSIT_FS_LangIDStrDescriptor
  56              		.syntax unified
  57              		.thumb
  58              		.thumb_func
  60              	USBD_CMPSIT_FS_LangIDStrDescriptor:
  61              	.LVL2:
  62              	.LFB135:
 125:Src/usbd_composite.c **** 
 126:Src/usbd_composite.c **** uint8_t * USBD_CMPSIT_FS_LangIDStrDescriptor(USBD_SpeedTypeDef speed, uint16_t *length)
 127:Src/usbd_composite.c **** {
  63              		.loc 1 127 1 is_stmt 1 view -0
  64              		.cfi_startproc
  65              		@ args = 0, pretend = 0, frame = 0
  66              		@ frame_needed = 0, uses_anonymous_args = 0
  67              		@ link register save eliminated.
 128:Src/usbd_composite.c ****   UNUSED(speed);
  68              		.loc 1 128 3 view .LVU8
 129:Src/usbd_composite.c ****   *length = sizeof(USBD_CMPSIT_LangIDDesc);
  69              		.loc 1 129 3 view .LVU9
  70              		.loc 1 129 11 is_stmt 0 view .LVU10
  71 0000 0423     		movs	r3, #4
  72 0002 0B80     		strh	r3, [r1]	@ movhi
 130:Src/usbd_composite.c ****   return USBD_CMPSIT_LangIDDesc;
  73              		.loc 1 130 3 is_stmt 1 view .LVU11
 131:Src/usbd_composite.c **** }
  74              		.loc 1 131 1 is_stmt 0 view .LVU12
  75 0004 0048     		ldr	r0, .L5
  76              	.LVL3:
  77              		.loc 1 131 1 view .LVU13
  78 0006 7047     		bx	lr
  79              	.L6:
  80              		.align	2
  81              	.L5:
  82 0008 00000000 		.word	.LANCHOR1
  83              		.cfi_endproc
  84              	.LFE135:
  86              		.section	.text.IntToUnicode,"ax",%progbits
  87              		.align	1
  88              		.syntax unified
  89              		.thumb
  90              		.thumb_func
  92              	IntToUnicode:
  93              	.LVL4:
  94              	.LFB138:
 132:Src/usbd_composite.c **** uint8_t * USBD_CMPSIT_FS_ManufacturerStrDescriptor(USBD_SpeedTypeDef speed, uint16_t *length)
 133:Src/usbd_composite.c **** {
 134:Src/usbd_composite.c ****   UNUSED(speed);
 135:Src/usbd_composite.c ****   USBD_GetString((uint8_t *)USBD_CMPSIT_MANUFACTURER_STRING, USBD_CMPSIT_StrDesc, length);
 136:Src/usbd_composite.c ****   return USBD_CMPSIT_StrDesc;
 137:Src/usbd_composite.c **** }
 138:Src/usbd_composite.c **** 
 139:Src/usbd_composite.c **** uint8_t * USBD_CMPSIT_FS_ProductStrDescriptor(USBD_SpeedTypeDef speed, uint16_t *length)
ARM GAS  C:\Users\ADMINI~1\AppData\Local\Temp\ccqzcoSo.s 			page 5


 140:Src/usbd_composite.c **** {
 141:Src/usbd_composite.c ****   if(speed == 0)
 142:Src/usbd_composite.c ****   {
 143:Src/usbd_composite.c ****     USBD_GetString((uint8_t *)USBD_CMPSIT_PRODUCT_STRING_FS, USBD_CMPSIT_StrDesc, length);
 144:Src/usbd_composite.c ****   }
 145:Src/usbd_composite.c ****   else
 146:Src/usbd_composite.c ****   {
 147:Src/usbd_composite.c ****     USBD_GetString((uint8_t *)USBD_CMPSIT_PRODUCT_STRING_FS, USBD_CMPSIT_StrDesc, length);
 148:Src/usbd_composite.c ****   }
 149:Src/usbd_composite.c ****   return USBD_CMPSIT_StrDesc;
 150:Src/usbd_composite.c **** }
 151:Src/usbd_composite.c **** 
 152:Src/usbd_composite.c **** static void IntToUnicode(uint32_t value, uint8_t * pbuf, uint8_t len)
 153:Src/usbd_composite.c **** {
  95              		.loc 1 153 1 is_stmt 1 view -0
  96              		.cfi_startproc
  97              		@ args = 0, pretend = 0, frame = 0
  98              		@ frame_needed = 0, uses_anonymous_args = 0
 154:Src/usbd_composite.c ****   uint8_t idx = 0;
  99              		.loc 1 154 3 view .LVU15
 155:Src/usbd_composite.c **** 
 156:Src/usbd_composite.c ****   for (idx = 0; idx < len; idx++)
 100              		.loc 1 156 3 view .LVU16
 101              		.loc 1 156 12 is_stmt 0 view .LVU17
 102 0000 0023     		movs	r3, #0
 103              	.LVL5:
 104              		.loc 1 156 17 is_stmt 1 view .LVU18
 105              		.loc 1 156 3 is_stmt 0 view .LVU19
 106 0002 9342     		cmp	r3, r2
 107 0004 1ED2     		bcs	.L15
 153:Src/usbd_composite.c ****   uint8_t idx = 0;
 108              		.loc 1 153 1 view .LVU20
 109 0006 00B5     		push	{lr}
 110              	.LCFI0:
 111              		.cfi_def_cfa_offset 4
 112              		.cfi_offset 14, -4
 113 0008 10E0     		b	.L11
 114              	.L9:
 157:Src/usbd_composite.c ****   {
 158:Src/usbd_composite.c ****     if (((value >> 28)) < 0xA)
 159:Src/usbd_composite.c ****     {
 160:Src/usbd_composite.c ****       pbuf[2 * idx] = (value >> 28) + '0';
 161:Src/usbd_composite.c ****     }
 162:Src/usbd_composite.c ****     else
 163:Src/usbd_composite.c ****     {
 164:Src/usbd_composite.c ****       pbuf[2 * idx] = (value >> 28) + 'A' - 10;
 115              		.loc 1 164 7 is_stmt 1 view .LVU21
 116              		.loc 1 164 43 is_stmt 0 view .LVU22
 117 000a 0CF1370C 		add	ip, ip, #55
 118              		.loc 1 164 21 view .LVU23
 119 000e 01F813C0 		strb	ip, [r1, r3, lsl #1]
 120              	.L10:
 165:Src/usbd_composite.c ****     }
 166:Src/usbd_composite.c **** 
 167:Src/usbd_composite.c ****     value = value << 4;
 121              		.loc 1 167 5 is_stmt 1 discriminator 2 view .LVU24
 122              		.loc 1 167 11 is_stmt 0 discriminator 2 view .LVU25
ARM GAS  C:\Users\ADMINI~1\AppData\Local\Temp\ccqzcoSo.s 			page 6


 123 0012 0001     		lsls	r0, r0, #4
 124              	.LVL6:
 168:Src/usbd_composite.c **** 
 169:Src/usbd_composite.c ****     pbuf[2 * idx + 1] = 0;
 125              		.loc 1 169 5 is_stmt 1 discriminator 2 view .LVU26
 126              		.loc 1 169 12 is_stmt 0 discriminator 2 view .LVU27
 127 0014 4FEA430C 		lsl	ip, r3, #1
 128              		.loc 1 169 9 discriminator 2 view .LVU28
 129 0018 0CF1010C 		add	ip, ip, #1
 130              		.loc 1 169 23 discriminator 2 view .LVU29
 131 001c 4FF0000E 		mov	lr, #0
 132 0020 01F80CE0 		strb	lr, [r1, ip]
 156:Src/usbd_composite.c ****   {
 133              		.loc 1 156 28 is_stmt 1 discriminator 2 view .LVU30
 156:Src/usbd_composite.c ****   {
 134              		.loc 1 156 31 is_stmt 0 discriminator 2 view .LVU31
 135 0024 0133     		adds	r3, r3, #1
 136              	.LVL7:
 156:Src/usbd_composite.c ****   {
 137              		.loc 1 156 31 discriminator 2 view .LVU32
 138 0026 DBB2     		uxtb	r3, r3
 139              	.LVL8:
 156:Src/usbd_composite.c ****   {
 140              		.loc 1 156 17 is_stmt 1 discriminator 2 view .LVU33
 156:Src/usbd_composite.c ****   {
 141              		.loc 1 156 3 is_stmt 0 discriminator 2 view .LVU34
 142 0028 9342     		cmp	r3, r2
 143 002a 09D2     		bcs	.L16
 144              	.L11:
 158:Src/usbd_composite.c ****     {
 145              		.loc 1 158 5 is_stmt 1 view .LVU35
 158:Src/usbd_composite.c ****     {
 146              		.loc 1 158 17 is_stmt 0 view .LVU36
 147 002c 4FEA107C 		lsr	ip, r0, #28
 158:Src/usbd_composite.c ****     {
 148              		.loc 1 158 8 view .LVU37
 149 0030 B0F1204F 		cmp	r0, #-1610612736
 150 0034 E9D2     		bcs	.L9
 160:Src/usbd_composite.c ****     }
 151              		.loc 1 160 7 is_stmt 1 view .LVU38
 160:Src/usbd_composite.c ****     }
 152              		.loc 1 160 37 is_stmt 0 view .LVU39
 153 0036 0CF1300C 		add	ip, ip, #48
 160:Src/usbd_composite.c ****     }
 154              		.loc 1 160 21 view .LVU40
 155 003a 01F813C0 		strb	ip, [r1, r3, lsl #1]
 156 003e E8E7     		b	.L10
 157              	.L16:
 170:Src/usbd_composite.c ****   }
 171:Src/usbd_composite.c **** }
 158              		.loc 1 171 1 view .LVU41
 159 0040 5DF804FB 		ldr	pc, [sp], #4
 160              	.L15:
 161              	.LCFI1:
 162              		.cfi_def_cfa_offset 0
 163              		.cfi_restore 14
 164              		.loc 1 171 1 view .LVU42
ARM GAS  C:\Users\ADMINI~1\AppData\Local\Temp\ccqzcoSo.s 			page 7


 165 0044 7047     		bx	lr
 166              		.cfi_endproc
 167              	.LFE138:
 169              		.section	.text.Get_CMPSIT_SerialNum,"ax",%progbits
 170              		.align	1
 171              		.syntax unified
 172              		.thumb
 173              		.thumb_func
 175              	Get_CMPSIT_SerialNum:
 176              	.LFB139:
 172:Src/usbd_composite.c **** static void Get_CMPSIT_SerialNum(void)
 173:Src/usbd_composite.c **** {
 177              		.loc 1 173 1 is_stmt 1 view -0
 178              		.cfi_startproc
 179              		@ args = 0, pretend = 0, frame = 0
 180              		@ frame_needed = 0, uses_anonymous_args = 0
 181 0000 38B5     		push	{r3, r4, r5, lr}
 182              	.LCFI2:
 183              		.cfi_def_cfa_offset 16
 184              		.cfi_offset 3, -16
 185              		.cfi_offset 4, -12
 186              		.cfi_offset 5, -8
 187              		.cfi_offset 14, -4
 174:Src/usbd_composite.c ****   uint32_t deviceserial0, deviceserial1, deviceserial2;
 188              		.loc 1 174 3 view .LVU44
 175:Src/usbd_composite.c **** 
 176:Src/usbd_composite.c ****   deviceserial0 = *(uint32_t *) DEVICE_ID1;
 189              		.loc 1 176 3 view .LVU45
 190              		.loc 1 176 17 is_stmt 0 view .LVU46
 191 0002 0B4B     		ldr	r3, .L21
 192 0004 D3F8100A 		ldr	r0, [r3, #2576]
 193              	.LVL9:
 177:Src/usbd_composite.c ****   deviceserial1 = *(uint32_t *) DEVICE_ID2;
 194              		.loc 1 177 3 is_stmt 1 view .LVU47
 195              		.loc 1 177 17 is_stmt 0 view .LVU48
 196 0008 D3F8144A 		ldr	r4, [r3, #2580]
 197              	.LVL10:
 178:Src/usbd_composite.c ****   deviceserial2 = *(uint32_t *) DEVICE_ID3;
 198              		.loc 1 178 3 is_stmt 1 view .LVU49
 199              		.loc 1 178 17 is_stmt 0 view .LVU50
 200 000c D3F8183A 		ldr	r3, [r3, #2584]
 201              	.LVL11:
 179:Src/usbd_composite.c **** 
 180:Src/usbd_composite.c ****   deviceserial0 += deviceserial2;
 202              		.loc 1 180 3 is_stmt 1 view .LVU51
 181:Src/usbd_composite.c **** 
 182:Src/usbd_composite.c ****   if (deviceserial0 != 0)
 203              		.loc 1 182 3 view .LVU52
 204              		.loc 1 182 6 is_stmt 0 view .LVU53
 205 0010 C018     		adds	r0, r0, r3
 206              	.LVL12:
 207              		.loc 1 182 6 view .LVU54
 208 0012 00D1     		bne	.L20
 209              	.LVL13:
 210              	.L17:
 183:Src/usbd_composite.c ****   {
 184:Src/usbd_composite.c ****     IntToUnicode(deviceserial0, &USBD_CMPSIT_StringSerial[2], 8);
ARM GAS  C:\Users\ADMINI~1\AppData\Local\Temp\ccqzcoSo.s 			page 8


 185:Src/usbd_composite.c ****     IntToUnicode(deviceserial1, &USBD_CMPSIT_StringSerial[18], 4);
 186:Src/usbd_composite.c ****   }
 187:Src/usbd_composite.c **** }
 211              		.loc 1 187 1 view .LVU55
 212 0014 38BD     		pop	{r3, r4, r5, pc}
 213              	.LVL14:
 214              	.L20:
 184:Src/usbd_composite.c ****     IntToUnicode(deviceserial1, &USBD_CMPSIT_StringSerial[18], 4);
 215              		.loc 1 184 5 is_stmt 1 view .LVU56
 216 0016 074D     		ldr	r5, .L21+4
 217 0018 0822     		movs	r2, #8
 218 001a A91C     		adds	r1, r5, #2
 219 001c FFF7FEFF 		bl	IntToUnicode
 220              	.LVL15:
 185:Src/usbd_composite.c ****   }
 221              		.loc 1 185 5 view .LVU57
 222 0020 0422     		movs	r2, #4
 223 0022 05F11201 		add	r1, r5, #18
 224 0026 2046     		mov	r0, r4
 225 0028 FFF7FEFF 		bl	IntToUnicode
 226              	.LVL16:
 227              		.loc 1 187 1 is_stmt 0 view .LVU58
 228 002c F2E7     		b	.L17
 229              	.L22:
 230 002e 00BF     		.align	2
 231              	.L21:
 232 0030 0070FF1F 		.word	536834048
 233 0034 00000000 		.word	.LANCHOR2
 234              		.cfi_endproc
 235              	.LFE139:
 237              		.section	.text.USBD_CMPSIT_FS_SerialStrDescriptor,"ax",%progbits
 238              		.align	1
 239              		.global	USBD_CMPSIT_FS_SerialStrDescriptor
 240              		.syntax unified
 241              		.thumb
 242              		.thumb_func
 244              	USBD_CMPSIT_FS_SerialStrDescriptor:
 245              	.LVL17:
 246              	.LFB140:
 188:Src/usbd_composite.c **** uint8_t * USBD_CMPSIT_FS_SerialStrDescriptor(USBD_SpeedTypeDef speed, uint16_t *length)
 189:Src/usbd_composite.c **** {
 247              		.loc 1 189 1 is_stmt 1 view -0
 248              		.cfi_startproc
 249              		@ args = 0, pretend = 0, frame = 0
 250              		@ frame_needed = 0, uses_anonymous_args = 0
 251              		.loc 1 189 1 is_stmt 0 view .LVU60
 252 0000 08B5     		push	{r3, lr}
 253              	.LCFI3:
 254              		.cfi_def_cfa_offset 8
 255              		.cfi_offset 3, -8
 256              		.cfi_offset 14, -4
 190:Src/usbd_composite.c ****   UNUSED(speed);
 257              		.loc 1 190 3 is_stmt 1 view .LVU61
 191:Src/usbd_composite.c ****   *length = USB_SIZ_STRING_SERIAL;
 258              		.loc 1 191 3 view .LVU62
 259              		.loc 1 191 11 is_stmt 0 view .LVU63
 260 0002 1A23     		movs	r3, #26
ARM GAS  C:\Users\ADMINI~1\AppData\Local\Temp\ccqzcoSo.s 			page 9


 261 0004 0B80     		strh	r3, [r1]	@ movhi
 192:Src/usbd_composite.c **** 
 193:Src/usbd_composite.c ****   /* Update the serial number string descriptor with the data from the unique
 194:Src/usbd_composite.c ****    * ID */
 195:Src/usbd_composite.c ****   Get_CMPSIT_SerialNum();
 262              		.loc 1 195 3 is_stmt 1 view .LVU64
 263 0006 FFF7FEFF 		bl	Get_CMPSIT_SerialNum
 264              	.LVL18:
 196:Src/usbd_composite.c ****   /* USER CODE BEGIN USBD_FS_SerialStrDescriptor */
 197:Src/usbd_composite.c **** 
 198:Src/usbd_composite.c ****   /* USER CODE END USBD_FS_SerialStrDescriptor */
 199:Src/usbd_composite.c ****   return (uint8_t *) USBD_CMPSIT_StringSerial;
 265              		.loc 1 199 3 view .LVU65
 200:Src/usbd_composite.c **** }
 266              		.loc 1 200 1 is_stmt 0 view .LVU66
 267 000a 0148     		ldr	r0, .L25
 268 000c 08BD     		pop	{r3, pc}
 269              	.L26:
 270 000e 00BF     		.align	2
 271              	.L25:
 272 0010 00000000 		.word	.LANCHOR2
 273              		.cfi_endproc
 274              	.LFE140:
 276              		.section	.text.USBD_CMPSIT_GetFSCfgDesc,"ax",%progbits
 277              		.align	1
 278              		.syntax unified
 279              		.thumb
 280              		.thumb_func
 282              	USBD_CMPSIT_GetFSCfgDesc:
 283              	.LVL19:
 284              	.LFB144:
 201:Src/usbd_composite.c **** 
 202:Src/usbd_composite.c **** uint8_t * USBD_CMPSIT_FS_InterfaceStrDescriptor(USBD_SpeedTypeDef speed, uint16_t *length)
 203:Src/usbd_composite.c **** {
 204:Src/usbd_composite.c ****   if(speed == 0)
 205:Src/usbd_composite.c ****   {
 206:Src/usbd_composite.c ****     USBD_GetString((uint8_t *)USBD_CMPSIT_INTERFACE_STRING_FS, USBD_CMPSIT_StrDesc, length);
 207:Src/usbd_composite.c ****   }
 208:Src/usbd_composite.c ****   else
 209:Src/usbd_composite.c ****   {
 210:Src/usbd_composite.c ****     USBD_GetString((uint8_t *)USBD_CMPSIT_INTERFACE_STRING_FS, USBD_CMPSIT_StrDesc, length);
 211:Src/usbd_composite.c ****   }
 212:Src/usbd_composite.c ****   return USBD_CMPSIT_StrDesc;
 213:Src/usbd_composite.c **** }
 214:Src/usbd_composite.c **** 
 215:Src/usbd_composite.c **** 
 216:Src/usbd_composite.c **** uint8_t * USBD_CMPSIT_FS_ConfigStrDescriptor(USBD_SpeedTypeDef speed, uint16_t *length)
 217:Src/usbd_composite.c **** {
 218:Src/usbd_composite.c ****   if(speed == USBD_SPEED_HIGH)
 219:Src/usbd_composite.c ****   {
 220:Src/usbd_composite.c ****     USBD_GetString((uint8_t *)USBD_CMPSIT_CONFIGURATION_STRING_FS, USBD_CMPSIT_StrDesc, length);
 221:Src/usbd_composite.c ****   }
 222:Src/usbd_composite.c ****   else
 223:Src/usbd_composite.c ****   {
 224:Src/usbd_composite.c ****     USBD_GetString((uint8_t *)USBD_CMPSIT_CONFIGURATION_STRING_FS, USBD_CMPSIT_StrDesc, length);
 225:Src/usbd_composite.c ****   }
 226:Src/usbd_composite.c ****   return USBD_CMPSIT_StrDesc;
ARM GAS  C:\Users\ADMINI~1\AppData\Local\Temp\ccqzcoSo.s 			page 10


 227:Src/usbd_composite.c **** }
 228:Src/usbd_composite.c **** 
 229:Src/usbd_composite.c **** 
 230:Src/usbd_composite.c **** #if (USBD_LPM_ENABLED == 1)
 231:Src/usbd_composite.c **** /**
 232:Src/usbd_composite.c ****   * @brief  Return the BOS descriptor
 233:Src/usbd_composite.c ****   * @param  speed : Current device speed
 234:Src/usbd_composite.c ****   * @param  length : Pointer to data length variable
 235:Src/usbd_composite.c ****   * @retval Pointer to descriptor buffer
 236:Src/usbd_composite.c ****   */
 237:Src/usbd_composite.c **** uint8_t * USBD_CMPSIT_FS_USR_BOSDescriptor(USBD_SpeedTypeDef speed, uint16_t *length)
 238:Src/usbd_composite.c **** {
 239:Src/usbd_composite.c ****   UNUSED(speed);
 240:Src/usbd_composite.c ****   *length = sizeof(USBD_CMPSIT_FS_BOSDesc);
 241:Src/usbd_composite.c ****   return (uint8_t*)USBD_CMPSIT_FS_BOSDesc;
 242:Src/usbd_composite.c **** }
 243:Src/usbd_composite.c **** #endif /* (USBD_LPM_ENABLED == 1) */
 244:Src/usbd_composite.c **** 
 245:Src/usbd_composite.c **** 
 246:Src/usbd_composite.c **** __ALIGN_BEGIN static uint8_t USBD_CMPSIT_CfgDesc[USB_CMPSIT_CONFIG_DESC_SIZ] __ALIGN_END =
 247:Src/usbd_composite.c **** {
 248:Src/usbd_composite.c ****   /* Configuration Descriptor */
 249:Src/usbd_composite.c ****   0x09,                                       /* bLength: Configuration Descriptor size */
 250:Src/usbd_composite.c ****   USB_DESC_TYPE_CONFIGURATION,                /* bDescriptorType: Configuration */
 251:Src/usbd_composite.c ****   USB_CDC_CONFIG_DESC_SIZ,                    /* wTotalLength */
 252:Src/usbd_composite.c ****   0x00,
 253:Src/usbd_composite.c ****   0x02,                                       /* bNumInterfaces: 2 interfaces */
 254:Src/usbd_composite.c ****   0x01,                                       /* bConfigurationValue: Configuration value */
 255:Src/usbd_composite.c ****   0x00,                                       /* iConfiguration: Index of string descriptor
 256:Src/usbd_composite.c ****                                                  describing the configuration */
 257:Src/usbd_composite.c **** #if (USBD_SELF_POWERED == 1U)
 258:Src/usbd_composite.c ****   0xC0,                                       /* bmAttributes: Bus Powered according to user config
 259:Src/usbd_composite.c **** #else
 260:Src/usbd_composite.c ****   0x80,                                       /* bmAttributes: Bus Powered according to user config
 261:Src/usbd_composite.c **** #endif /* USBD_SELF_POWERED */
 262:Src/usbd_composite.c ****   USBD_MAX_POWER,                             /* MaxPower (mA) */
 263:Src/usbd_composite.c **** 
 264:Src/usbd_composite.c ****   /*---------------------------------------------------------------------------*/
 265:Src/usbd_composite.c **** 
 266:Src/usbd_composite.c ****   /* Interface Association Descriptor: CDC device (virtual com port) */
 267:Src/usbd_composite.c ****   0x08,   /* bLength: IAD size */
 268:Src/usbd_composite.c ****   0x0B,   /* bDescriptorType: Interface Association Descriptor */
 269:Src/usbd_composite.c ****   0x00,   /* bFirstInterface */
 270:Src/usbd_composite.c ****   0x02,   /* bInterfaceCount */
 271:Src/usbd_composite.c ****   0x02,   /* bFunctionClass: Communication Interface Class */
 272:Src/usbd_composite.c ****   0x02,   /* bFunctionSubClass: Abstract Control Model */
 273:Src/usbd_composite.c ****   0x01,   /* bFunctionProtocol: Common AT commands */
 274:Src/usbd_composite.c ****   0x00,   /* iFunction */
 275:Src/usbd_composite.c **** 
 276:Src/usbd_composite.c ****   /* Interface Descriptor */
 277:Src/usbd_composite.c ****   0x09,                                       /* bLength: Interface Descriptor size */
 278:Src/usbd_composite.c ****   USB_DESC_TYPE_INTERFACE,                    /* bDescriptorType: Interface */
 279:Src/usbd_composite.c ****   /* Interface descriptor type */
 280:Src/usbd_composite.c ****   0x00,                                       /* bInterfaceNumber: Number of Interface */
 281:Src/usbd_composite.c ****   0x00,                                       /* bAlternateSetting: Alternate setting */
 282:Src/usbd_composite.c ****   0x01,                                       /* bNumEndpoints: One endpoint used */
 283:Src/usbd_composite.c ****   0x02,                                       /* bInterfaceClass: Communication Interface Class */
ARM GAS  C:\Users\ADMINI~1\AppData\Local\Temp\ccqzcoSo.s 			page 11


 284:Src/usbd_composite.c ****   0x02,                                       /* bInterfaceSubClass: Abstract Control Model */
 285:Src/usbd_composite.c ****   0x01,                                       /* bInterfaceProtocol: Common AT commands */
 286:Src/usbd_composite.c ****   0x00,                                       /* iInterface */
 287:Src/usbd_composite.c **** 
 288:Src/usbd_composite.c ****   /* Header Functional Descriptor */
 289:Src/usbd_composite.c ****   0x05,                                       /* bLength: Endpoint Descriptor size */
 290:Src/usbd_composite.c ****   0x24,                                       /* bDescriptorType: CS_INTERFACE */
 291:Src/usbd_composite.c ****   0x00,                                       /* bDescriptorSubtype: Header Func Desc */
 292:Src/usbd_composite.c ****   0x10,                                       /* bcdCDC: spec release number */
 293:Src/usbd_composite.c ****   0x01,
 294:Src/usbd_composite.c **** 
 295:Src/usbd_composite.c ****   /* Call Management Functional Descriptor */
 296:Src/usbd_composite.c ****   0x05,                                       /* bFunctionLength */
 297:Src/usbd_composite.c ****   0x24,                                       /* bDescriptorType: CS_INTERFACE */
 298:Src/usbd_composite.c ****   0x01,                                       /* bDescriptorSubtype: Call Management Func Desc */
 299:Src/usbd_composite.c ****   0x00,                                       /* bmCapabilities: D0+D1 */
 300:Src/usbd_composite.c ****   0x01,                                       /* bDataInterface */
 301:Src/usbd_composite.c **** 
 302:Src/usbd_composite.c ****   /* ACM Functional Descriptor */
 303:Src/usbd_composite.c ****   0x04,                                       /* bFunctionLength */
 304:Src/usbd_composite.c ****   0x24,                                       /* bDescriptorType: CS_INTERFACE */
 305:Src/usbd_composite.c ****   0x02,                                       /* bDescriptorSubtype: Abstract Control Management de
 306:Src/usbd_composite.c ****   0x02,                                       /* bmCapabilities */
 307:Src/usbd_composite.c **** 
 308:Src/usbd_composite.c ****   /* Union Functional Descriptor */
 309:Src/usbd_composite.c ****   0x05,                                       /* bFunctionLength */
 310:Src/usbd_composite.c ****   0x24,                                       /* bDescriptorType: CS_INTERFACE */
 311:Src/usbd_composite.c ****   0x06,                                       /* bDescriptorSubtype: Union func desc */
 312:Src/usbd_composite.c ****   0x00,                                       /* bMasterInterface: Communication class interface */
 313:Src/usbd_composite.c ****   0x01,                                       /* bSlaveInterface0: Data Class Interface */
 314:Src/usbd_composite.c **** 
 315:Src/usbd_composite.c ****   /* Endpoint 2 Descriptor */
 316:Src/usbd_composite.c ****   0x07,                                       /* bLength: Endpoint Descriptor size */
 317:Src/usbd_composite.c ****   USB_DESC_TYPE_ENDPOINT,                     /* bDescriptorType: Endpoint */
 318:Src/usbd_composite.c ****   CDC_CMD_EP,                                 /* bEndpointAddress */
 319:Src/usbd_composite.c ****   0x03,                                       /* bmAttributes: Interrupt */
 320:Src/usbd_composite.c ****   LOBYTE(CDC_CMD_PACKET_SIZE),                /* wMaxPacketSize */
 321:Src/usbd_composite.c ****   HIBYTE(CDC_CMD_PACKET_SIZE),
 322:Src/usbd_composite.c ****   CDC_FS_BINTERVAL,                           /* bInterval */
 323:Src/usbd_composite.c ****   /*---------------------------------------------------------------------------*/
 324:Src/usbd_composite.c **** 
 325:Src/usbd_composite.c ****   /* Data class interface descriptor */
 326:Src/usbd_composite.c ****   0x09,                                       /* bLength: Endpoint Descriptor size */
 327:Src/usbd_composite.c ****   USB_DESC_TYPE_INTERFACE,                    /* bDescriptorType: */
 328:Src/usbd_composite.c ****   0x01,                                       /* bInterfaceNumber: Number of Interface */
 329:Src/usbd_composite.c ****   0x00,                                       /* bAlternateSetting: Alternate setting */
 330:Src/usbd_composite.c ****   0x02,                                       /* bNumEndpoints: Two endpoints used */
 331:Src/usbd_composite.c ****   0x0A,                                       /* bInterfaceClass: CDC */
 332:Src/usbd_composite.c ****   0x00,                                       /* bInterfaceSubClass */
 333:Src/usbd_composite.c ****   0x00,                                       /* bInterfaceProtocol */
 334:Src/usbd_composite.c ****   0x00,                                       /* iInterface */
 335:Src/usbd_composite.c **** 
 336:Src/usbd_composite.c ****   /* Endpoint OUT Descriptor */
 337:Src/usbd_composite.c ****   0x07,                                       /* bLength: Endpoint Descriptor size */
 338:Src/usbd_composite.c ****   USB_DESC_TYPE_ENDPOINT,                     /* bDescriptorType: Endpoint */
 339:Src/usbd_composite.c ****   CDC_OUT_EP,                                 /* bEndpointAddress */
 340:Src/usbd_composite.c ****   0x02,                                       /* bmAttributes: Bulk */
ARM GAS  C:\Users\ADMINI~1\AppData\Local\Temp\ccqzcoSo.s 			page 12


 341:Src/usbd_composite.c ****   LOBYTE(CDC_DATA_FS_MAX_PACKET_SIZE),        /* wMaxPacketSize */
 342:Src/usbd_composite.c ****   HIBYTE(CDC_DATA_FS_MAX_PACKET_SIZE),
 343:Src/usbd_composite.c ****   0x00,                                       /* bInterval */
 344:Src/usbd_composite.c **** 
 345:Src/usbd_composite.c ****   /* Endpoint IN Descriptor */
 346:Src/usbd_composite.c ****   0x07,                                       /* bLength: Endpoint Descriptor size */
 347:Src/usbd_composite.c ****   USB_DESC_TYPE_ENDPOINT,                     /* bDescriptorType: Endpoint */
 348:Src/usbd_composite.c ****   CDC_IN_EP,                                  /* bEndpointAddress */
 349:Src/usbd_composite.c ****   0x02,                                       /* bmAttributes: Bulk */
 350:Src/usbd_composite.c ****   LOBYTE(CDC_DATA_FS_MAX_PACKET_SIZE),        /* wMaxPacketSize */
 351:Src/usbd_composite.c ****   HIBYTE(CDC_DATA_FS_MAX_PACKET_SIZE),
 352:Src/usbd_composite.c ****   0x00,                                        /* bInterval */
 353:Src/usbd_composite.c **** 
 354:Src/usbd_composite.c ****   /* Interface Association Descriptor: Mass Storage device */
 355:Src/usbd_composite.c ****   0x08,   /* bLength: IAD size */
 356:Src/usbd_composite.c ****   0x0B,   /* bDescriptorType: Interface Association Descriptor */
 357:Src/usbd_composite.c ****   0x02,   /* bFirstInterface */
 358:Src/usbd_composite.c ****   0x01,   /* bInterfaceCount */
 359:Src/usbd_composite.c ****   0x08,   /* bFunctionClass: */
 360:Src/usbd_composite.c ****   0x06,   /* bFunctionSubClass: */
 361:Src/usbd_composite.c ****   0x50,   /* bFunctionProtocol: */
 362:Src/usbd_composite.c ****   0x05,   /* iFunction */
 363:Src/usbd_composite.c **** 
 364:Src/usbd_composite.c ****   /********************  Mass Storage interface ********************/
 365:Src/usbd_composite.c ****   0x09,                                            /* bLength: Interface Descriptor size */
 366:Src/usbd_composite.c ****   0x04,                                            /* bDescriptorType: */
 367:Src/usbd_composite.c ****   0x02,                                            /* bInterfaceNumber: Number of Interface */
 368:Src/usbd_composite.c ****   0x00,                                            /* bAlternateSetting: Alternate setting */
 369:Src/usbd_composite.c ****   0x02,                                            /* bNumEndpoints */
 370:Src/usbd_composite.c ****   0x08,                                            /* bInterfaceClass: MSC Class */
 371:Src/usbd_composite.c ****   0x06,                                            /* bInterfaceSubClass : SCSI transparent*/
 372:Src/usbd_composite.c ****   0x50,                                            /* nInterfaceProtocol */
 373:Src/usbd_composite.c ****   0x05,                                            /* iInterface: */
 374:Src/usbd_composite.c ****   /********************  Mass Storage Endpoints ********************/
 375:Src/usbd_composite.c ****   0x07,                                            /* Endpoint descriptor length = 7 */
 376:Src/usbd_composite.c ****   0x05,                                            /* Endpoint descriptor type */
 377:Src/usbd_composite.c ****   MSC_EPIN_ADDR,                                   /* Endpoint address (IN, address 1) */
 378:Src/usbd_composite.c ****   0x02,                                            /* Bulk endpoint type */
 379:Src/usbd_composite.c ****   LOBYTE(MSC_MAX_FS_PACKET),
 380:Src/usbd_composite.c ****   HIBYTE(MSC_MAX_FS_PACKET),
 381:Src/usbd_composite.c ****   0x00,                                            /* Polling interval in milliseconds */
 382:Src/usbd_composite.c **** 
 383:Src/usbd_composite.c ****   0x07,                                            /* Endpoint descriptor length = 7 */
 384:Src/usbd_composite.c ****   0x05,                                            /* Endpoint descriptor type */
 385:Src/usbd_composite.c ****   MSC_EPOUT_ADDR,                                  /* Endpoint address (OUT, address 1) */
 386:Src/usbd_composite.c ****   0x02,                                            /* Bulk endpoint type */
 387:Src/usbd_composite.c ****   LOBYTE(MSC_MAX_FS_PACKET),
 388:Src/usbd_composite.c ****   HIBYTE(MSC_MAX_FS_PACKET),
 389:Src/usbd_composite.c ****   0x00                                             /* Polling interval in milliseconds */
 390:Src/usbd_composite.c **** };
 391:Src/usbd_composite.c **** __ALIGN_BEGIN static uint8_t USBD_CMPSIT_DeviceQualifierDesc[USB_LEN_DEV_QUALIFIER_DESC] __ALIGN_EN
 392:Src/usbd_composite.c **** {
 393:Src/usbd_composite.c ****   USB_LEN_DEV_QUALIFIER_DESC,
 394:Src/usbd_composite.c ****   USB_DESC_TYPE_DEVICE_QUALIFIER,
 395:Src/usbd_composite.c ****   0x00,
 396:Src/usbd_composite.c ****   0x02,
 397:Src/usbd_composite.c ****   0x00,
ARM GAS  C:\Users\ADMINI~1\AppData\Local\Temp\ccqzcoSo.s 			page 13


 398:Src/usbd_composite.c ****   0x00,
 399:Src/usbd_composite.c ****   0x00,
 400:Src/usbd_composite.c ****   0x40,
 401:Src/usbd_composite.c ****   0x01,
 402:Src/usbd_composite.c ****   0x00,
 403:Src/usbd_composite.c **** };
 404:Src/usbd_composite.c **** 
 405:Src/usbd_composite.c **** static uint8_t *USBD_CMPSIT_GetFSCfgDesc(uint16_t *length);
 406:Src/usbd_composite.c **** static uint8_t *USBD_CMPSIT_GetHSCfgDesc(uint16_t *length);
 407:Src/usbd_composite.c **** static uint8_t *USBD_CMPSIT_GetOtherSpeedCfgDesc(uint16_t *length);
 408:Src/usbd_composite.c **** uint8_t *USBD_CMPSIT_GetDeviceQualifierDescriptor(uint16_t *length);
 409:Src/usbd_composite.c **** 
 410:Src/usbd_composite.c **** 
 411:Src/usbd_composite.c **** 
 412:Src/usbd_composite.c **** USBD_ClassTypeDef USBD_CMPSIT=
 413:Src/usbd_composite.c **** {
 414:Src/usbd_composite.c ****   NULL,
 415:Src/usbd_composite.c ****   NULL,
 416:Src/usbd_composite.c ****   NULL,
 417:Src/usbd_composite.c ****   NULL,                 /* EP0_TxSent */
 418:Src/usbd_composite.c ****   NULL,
 419:Src/usbd_composite.c ****   NULL,
 420:Src/usbd_composite.c ****   NULL,
 421:Src/usbd_composite.c ****   NULL,
 422:Src/usbd_composite.c ****   NULL,
 423:Src/usbd_composite.c ****   NULL,
 424:Src/usbd_composite.c ****   USBD_CMPSIT_GetHSCfgDesc,
 425:Src/usbd_composite.c ****   USBD_CMPSIT_GetFSCfgDesc,  
 426:Src/usbd_composite.c ****   USBD_CMPSIT_GetOtherSpeedCfgDesc,
 427:Src/usbd_composite.c ****   USBD_CMPSIT_GetDeviceQualifierDescriptor
 428:Src/usbd_composite.c **** };
 429:Src/usbd_composite.c **** 
 430:Src/usbd_composite.c **** #ifdef USE_USBD_COMPOSITE
 431:Src/usbd_composite.c **** void USBD_CMPSIT_AddClass(USBD_HandleTypeDef *pdev, USBD_ClassTypeDef *pclass, USBD_CompositeClassT
 432:Src/usbd_composite.c **** {
 433:Src/usbd_composite.c **** }
 434:Src/usbd_composite.c **** #endif
 435:Src/usbd_composite.c **** static uint8_t *USBD_CMPSIT_GetFSCfgDesc(uint16_t *length)
 436:Src/usbd_composite.c **** {
 285              		.loc 1 436 1 is_stmt 1 view -0
 286              		.cfi_startproc
 287              		@ args = 0, pretend = 0, frame = 0
 288              		@ frame_needed = 0, uses_anonymous_args = 0
 289              		@ link register save eliminated.
 437:Src/usbd_composite.c **** 	// printf("%s:%s:%d",__FILE__,__FUNCTION__,__LINE__);
 438:Src/usbd_composite.c **** 	*length = (uint16_t)sizeof(USBD_CMPSIT_CfgDesc);
 290              		.loc 1 438 2 view .LVU68
 291              		.loc 1 438 10 is_stmt 0 view .LVU69
 292 0000 6A23     		movs	r3, #106
 293 0002 0380     		strh	r3, [r0]	@ movhi
 439:Src/usbd_composite.c **** 	return USBD_CMPSIT_CfgDesc;
 294              		.loc 1 439 2 is_stmt 1 view .LVU70
 440:Src/usbd_composite.c **** }
 295              		.loc 1 440 1 is_stmt 0 view .LVU71
 296 0004 0048     		ldr	r0, .L28
 297              	.LVL20:
 298              		.loc 1 440 1 view .LVU72
ARM GAS  C:\Users\ADMINI~1\AppData\Local\Temp\ccqzcoSo.s 			page 14


 299 0006 7047     		bx	lr
 300              	.L29:
 301              		.align	2
 302              	.L28:
 303 0008 00000000 		.word	.LANCHOR3
 304              		.cfi_endproc
 305              	.LFE144:
 307              		.section	.text.USBD_CMPSIT_GetHSCfgDesc,"ax",%progbits
 308              		.align	1
 309              		.syntax unified
 310              		.thumb
 311              		.thumb_func
 313              	USBD_CMPSIT_GetHSCfgDesc:
 314              	.LVL21:
 315              	.LFB145:
 441:Src/usbd_composite.c **** static uint8_t *USBD_CMPSIT_GetHSCfgDesc(uint16_t *length)
 442:Src/usbd_composite.c **** {
 316              		.loc 1 442 1 is_stmt 1 view -0
 317              		.cfi_startproc
 318              		@ args = 0, pretend = 0, frame = 0
 319              		@ frame_needed = 0, uses_anonymous_args = 0
 320              		@ link register save eliminated.
 443:Src/usbd_composite.c **** }
 321              		.loc 1 443 1 view .LVU74
 322              	.LVL22:
 323              		.loc 1 443 1 is_stmt 0 view .LVU75
 324 0000 7047     		bx	lr
 325              		.cfi_endproc
 326              	.LFE145:
 328              		.section	.text.USBD_CMPSIT_GetOtherSpeedCfgDesc,"ax",%progbits
 329              		.align	1
 330              		.syntax unified
 331              		.thumb
 332              		.thumb_func
 334              	USBD_CMPSIT_GetOtherSpeedCfgDesc:
 335              	.LVL23:
 336              	.LFB146:
 444:Src/usbd_composite.c **** static uint8_t *USBD_CMPSIT_GetOtherSpeedCfgDesc(uint16_t *length)
 445:Src/usbd_composite.c **** {
 337              		.loc 1 445 1 is_stmt 1 view -0
 338              		.cfi_startproc
 339              		@ args = 0, pretend = 0, frame = 0
 340              		@ frame_needed = 0, uses_anonymous_args = 0
 341              		@ link register save eliminated.
 446:Src/usbd_composite.c **** }
 342              		.loc 1 446 1 view .LVU77
 343              	.LVL24:
 344              		.loc 1 446 1 is_stmt 0 view .LVU78
 345 0000 7047     		bx	lr
 346              		.cfi_endproc
 347              	.LFE146:
 349              		.section	.text.USBD_CMPSIT_GetDeviceQualifierDescriptor,"ax",%progbits
 350              		.align	1
 351              		.global	USBD_CMPSIT_GetDeviceQualifierDescriptor
 352              		.syntax unified
 353              		.thumb
 354              		.thumb_func
ARM GAS  C:\Users\ADMINI~1\AppData\Local\Temp\ccqzcoSo.s 			page 15


 356              	USBD_CMPSIT_GetDeviceQualifierDescriptor:
 357              	.LVL25:
 358              	.LFB147:
 447:Src/usbd_composite.c **** uint8_t *USBD_CMPSIT_GetDeviceQualifierDescriptor(uint16_t *length)
 448:Src/usbd_composite.c **** {
 359              		.loc 1 448 1 is_stmt 1 view -0
 360              		.cfi_startproc
 361              		@ args = 0, pretend = 0, frame = 0
 362              		@ frame_needed = 0, uses_anonymous_args = 0
 363              		@ link register save eliminated.
 449:Src/usbd_composite.c ****   *length = (uint16_t)sizeof(USBD_CMPSIT_DeviceQualifierDesc);
 364              		.loc 1 449 3 view .LVU80
 365              		.loc 1 449 11 is_stmt 0 view .LVU81
 366 0000 0A23     		movs	r3, #10
 367 0002 0380     		strh	r3, [r0]	@ movhi
 450:Src/usbd_composite.c ****   return USBD_CMPSIT_DeviceQualifierDesc;
 368              		.loc 1 450 3 is_stmt 1 view .LVU82
 451:Src/usbd_composite.c **** }
 369              		.loc 1 451 1 is_stmt 0 view .LVU83
 370 0004 0048     		ldr	r0, .L33
 371              	.LVL26:
 372              		.loc 1 451 1 view .LVU84
 373 0006 7047     		bx	lr
 374              	.L34:
 375              		.align	2
 376              	.L33:
 377 0008 00000000 		.word	.LANCHOR4
 378              		.cfi_endproc
 379              	.LFE147:
 381              		.section	.rodata.USBD_CMPSIT_FS_ManufacturerStrDescriptor.str1.4,"aMS",%progbits,1
 382              		.align	2
 383              	.LC0:
 384 0000 77656E79 		.ascii	"wenyz@wolfGroup\000"
 384      7A40776F 
 384      6C664772 
 384      6F757000 
 385              		.section	.text.USBD_CMPSIT_FS_ManufacturerStrDescriptor,"ax",%progbits
 386              		.align	1
 387              		.global	USBD_CMPSIT_FS_ManufacturerStrDescriptor
 388              		.syntax unified
 389              		.thumb
 390              		.thumb_func
 392              	USBD_CMPSIT_FS_ManufacturerStrDescriptor:
 393              	.LVL27:
 394              	.LFB136:
 133:Src/usbd_composite.c ****   UNUSED(speed);
 395              		.loc 1 133 1 is_stmt 1 view -0
 396              		.cfi_startproc
 397              		@ args = 0, pretend = 0, frame = 0
 398              		@ frame_needed = 0, uses_anonymous_args = 0
 133:Src/usbd_composite.c ****   UNUSED(speed);
 399              		.loc 1 133 1 is_stmt 0 view .LVU86
 400 0000 10B5     		push	{r4, lr}
 401              	.LCFI4:
 402              		.cfi_def_cfa_offset 8
 403              		.cfi_offset 4, -8
 404              		.cfi_offset 14, -4
ARM GAS  C:\Users\ADMINI~1\AppData\Local\Temp\ccqzcoSo.s 			page 16


 405 0002 0A46     		mov	r2, r1
 134:Src/usbd_composite.c ****   USBD_GetString((uint8_t *)USBD_CMPSIT_MANUFACTURER_STRING, USBD_CMPSIT_StrDesc, length);
 406              		.loc 1 134 3 is_stmt 1 view .LVU87
 135:Src/usbd_composite.c ****   return USBD_CMPSIT_StrDesc;
 407              		.loc 1 135 3 view .LVU88
 408 0004 034C     		ldr	r4, .L37
 409 0006 2146     		mov	r1, r4
 410              	.LVL28:
 135:Src/usbd_composite.c ****   return USBD_CMPSIT_StrDesc;
 411              		.loc 1 135 3 is_stmt 0 view .LVU89
 412 0008 0348     		ldr	r0, .L37+4
 413              	.LVL29:
 135:Src/usbd_composite.c ****   return USBD_CMPSIT_StrDesc;
 414              		.loc 1 135 3 view .LVU90
 415 000a FFF7FEFF 		bl	USBD_GetString
 416              	.LVL30:
 136:Src/usbd_composite.c **** }
 417              		.loc 1 136 3 is_stmt 1 view .LVU91
 137:Src/usbd_composite.c **** 
 418              		.loc 1 137 1 is_stmt 0 view .LVU92
 419 000e 2046     		mov	r0, r4
 420 0010 10BD     		pop	{r4, pc}
 421              	.L38:
 422 0012 00BF     		.align	2
 423              	.L37:
 424 0014 00000000 		.word	.LANCHOR5
 425 0018 00000000 		.word	.LC0
 426              		.cfi_endproc
 427              	.LFE136:
 429              		.section	.rodata.USBD_CMPSIT_FS_ProductStrDescriptor.str1.4,"aMS",%progbits,1
 430              		.align	2
 431              	.LC1:
 432 0000 53544D33 		.ascii	"STM32 composite product\000"
 432      3220636F 
 432      6D706F73 
 432      69746520 
 432      70726F64 
 433              		.section	.text.USBD_CMPSIT_FS_ProductStrDescriptor,"ax",%progbits
 434              		.align	1
 435              		.global	USBD_CMPSIT_FS_ProductStrDescriptor
 436              		.syntax unified
 437              		.thumb
 438              		.thumb_func
 440              	USBD_CMPSIT_FS_ProductStrDescriptor:
 441              	.LVL31:
 442              	.LFB137:
 140:Src/usbd_composite.c ****   if(speed == 0)
 443              		.loc 1 140 1 is_stmt 1 view -0
 444              		.cfi_startproc
 445              		@ args = 0, pretend = 0, frame = 0
 446              		@ frame_needed = 0, uses_anonymous_args = 0
 140:Src/usbd_composite.c ****   if(speed == 0)
 447              		.loc 1 140 1 is_stmt 0 view .LVU94
 448 0000 08B5     		push	{r3, lr}
 449              	.LCFI5:
 450              		.cfi_def_cfa_offset 8
 451              		.cfi_offset 3, -8
ARM GAS  C:\Users\ADMINI~1\AppData\Local\Temp\ccqzcoSo.s 			page 17


 452              		.cfi_offset 14, -4
 453 0002 0A46     		mov	r2, r1
 141:Src/usbd_composite.c ****   {
 454              		.loc 1 141 3 is_stmt 1 view .LVU95
 141:Src/usbd_composite.c ****   {
 455              		.loc 1 141 5 is_stmt 0 view .LVU96
 456 0004 28B9     		cbnz	r0, .L40
 143:Src/usbd_composite.c ****   }
 457              		.loc 1 143 5 is_stmt 1 view .LVU97
 458 0006 0549     		ldr	r1, .L43
 459              	.LVL32:
 143:Src/usbd_composite.c ****   }
 460              		.loc 1 143 5 is_stmt 0 view .LVU98
 461 0008 0548     		ldr	r0, .L43+4
 462              	.LVL33:
 143:Src/usbd_composite.c ****   }
 463              		.loc 1 143 5 view .LVU99
 464 000a FFF7FEFF 		bl	USBD_GetString
 465              	.LVL34:
 466              	.L41:
 149:Src/usbd_composite.c **** }
 467              		.loc 1 149 3 is_stmt 1 view .LVU100
 150:Src/usbd_composite.c **** 
 468              		.loc 1 150 1 is_stmt 0 view .LVU101
 469 000e 0348     		ldr	r0, .L43
 470 0010 08BD     		pop	{r3, pc}
 471              	.LVL35:
 472              	.L40:
 147:Src/usbd_composite.c ****   }
 473              		.loc 1 147 5 is_stmt 1 view .LVU102
 474 0012 0249     		ldr	r1, .L43
 475              	.LVL36:
 147:Src/usbd_composite.c ****   }
 476              		.loc 1 147 5 is_stmt 0 view .LVU103
 477 0014 0248     		ldr	r0, .L43+4
 478              	.LVL37:
 147:Src/usbd_composite.c ****   }
 479              		.loc 1 147 5 view .LVU104
 480 0016 FFF7FEFF 		bl	USBD_GetString
 481              	.LVL38:
 147:Src/usbd_composite.c ****   }
 482              		.loc 1 147 5 view .LVU105
 483 001a F8E7     		b	.L41
 484              	.L44:
 485              		.align	2
 486              	.L43:
 487 001c 00000000 		.word	.LANCHOR5
 488 0020 00000000 		.word	.LC1
 489              		.cfi_endproc
 490              	.LFE137:
 492              		.section	.rodata.USBD_CMPSIT_FS_InterfaceStrDescriptor.str1.4,"aMS",%progbits,1
 493              		.align	2
 494              	.LC2:
 495 0000 436F6D70 		.ascii	"Composite Interface\000"
 495      6F736974 
 495      6520496E 
 495      74657266 
ARM GAS  C:\Users\ADMINI~1\AppData\Local\Temp\ccqzcoSo.s 			page 18


 495      61636500 
 496              		.section	.text.USBD_CMPSIT_FS_InterfaceStrDescriptor,"ax",%progbits
 497              		.align	1
 498              		.global	USBD_CMPSIT_FS_InterfaceStrDescriptor
 499              		.syntax unified
 500              		.thumb
 501              		.thumb_func
 503              	USBD_CMPSIT_FS_InterfaceStrDescriptor:
 504              	.LVL39:
 505              	.LFB141:
 203:Src/usbd_composite.c ****   if(speed == 0)
 506              		.loc 1 203 1 is_stmt 1 view -0
 507              		.cfi_startproc
 508              		@ args = 0, pretend = 0, frame = 0
 509              		@ frame_needed = 0, uses_anonymous_args = 0
 203:Src/usbd_composite.c ****   if(speed == 0)
 510              		.loc 1 203 1 is_stmt 0 view .LVU107
 511 0000 08B5     		push	{r3, lr}
 512              	.LCFI6:
 513              		.cfi_def_cfa_offset 8
 514              		.cfi_offset 3, -8
 515              		.cfi_offset 14, -4
 516 0002 0A46     		mov	r2, r1
 204:Src/usbd_composite.c ****   {
 517              		.loc 1 204 3 is_stmt 1 view .LVU108
 204:Src/usbd_composite.c ****   {
 518              		.loc 1 204 5 is_stmt 0 view .LVU109
 519 0004 28B9     		cbnz	r0, .L46
 206:Src/usbd_composite.c ****   }
 520              		.loc 1 206 5 is_stmt 1 view .LVU110
 521 0006 0549     		ldr	r1, .L49
 522              	.LVL40:
 206:Src/usbd_composite.c ****   }
 523              		.loc 1 206 5 is_stmt 0 view .LVU111
 524 0008 0548     		ldr	r0, .L49+4
 525              	.LVL41:
 206:Src/usbd_composite.c ****   }
 526              		.loc 1 206 5 view .LVU112
 527 000a FFF7FEFF 		bl	USBD_GetString
 528              	.LVL42:
 529              	.L47:
 212:Src/usbd_composite.c **** }
 530              		.loc 1 212 3 is_stmt 1 view .LVU113
 213:Src/usbd_composite.c **** 
 531              		.loc 1 213 1 is_stmt 0 view .LVU114
 532 000e 0348     		ldr	r0, .L49
 533 0010 08BD     		pop	{r3, pc}
 534              	.LVL43:
 535              	.L46:
 210:Src/usbd_composite.c ****   }
 536              		.loc 1 210 5 is_stmt 1 view .LVU115
 537 0012 0249     		ldr	r1, .L49
 538              	.LVL44:
 210:Src/usbd_composite.c ****   }
 539              		.loc 1 210 5 is_stmt 0 view .LVU116
 540 0014 0248     		ldr	r0, .L49+4
 541              	.LVL45:
ARM GAS  C:\Users\ADMINI~1\AppData\Local\Temp\ccqzcoSo.s 			page 19


 210:Src/usbd_composite.c ****   }
 542              		.loc 1 210 5 view .LVU117
 543 0016 FFF7FEFF 		bl	USBD_GetString
 544              	.LVL46:
 210:Src/usbd_composite.c ****   }
 545              		.loc 1 210 5 view .LVU118
 546 001a F8E7     		b	.L47
 547              	.L50:
 548              		.align	2
 549              	.L49:
 550 001c 00000000 		.word	.LANCHOR5
 551 0020 00000000 		.word	.LC2
 552              		.cfi_endproc
 553              	.LFE141:
 555              		.section	.rodata.USBD_CMPSIT_FS_ConfigStrDescriptor.str1.4,"aMS",%progbits,1
 556              		.align	2
 557              	.LC3:
 558 0000 436F6D70 		.ascii	"Composite Config\000"
 558      6F736974 
 558      6520436F 
 558      6E666967 
 558      00
 559              		.section	.text.USBD_CMPSIT_FS_ConfigStrDescriptor,"ax",%progbits
 560              		.align	1
 561              		.global	USBD_CMPSIT_FS_ConfigStrDescriptor
 562              		.syntax unified
 563              		.thumb
 564              		.thumb_func
 566              	USBD_CMPSIT_FS_ConfigStrDescriptor:
 567              	.LVL47:
 568              	.LFB142:
 217:Src/usbd_composite.c ****   if(speed == USBD_SPEED_HIGH)
 569              		.loc 1 217 1 is_stmt 1 view -0
 570              		.cfi_startproc
 571              		@ args = 0, pretend = 0, frame = 0
 572              		@ frame_needed = 0, uses_anonymous_args = 0
 217:Src/usbd_composite.c ****   if(speed == USBD_SPEED_HIGH)
 573              		.loc 1 217 1 is_stmt 0 view .LVU120
 574 0000 08B5     		push	{r3, lr}
 575              	.LCFI7:
 576              		.cfi_def_cfa_offset 8
 577              		.cfi_offset 3, -8
 578              		.cfi_offset 14, -4
 579 0002 0A46     		mov	r2, r1
 218:Src/usbd_composite.c ****   {
 580              		.loc 1 218 3 is_stmt 1 view .LVU121
 218:Src/usbd_composite.c ****   {
 581              		.loc 1 218 5 is_stmt 0 view .LVU122
 582 0004 28B9     		cbnz	r0, .L52
 220:Src/usbd_composite.c ****   }
 583              		.loc 1 220 5 is_stmt 1 view .LVU123
 584 0006 0549     		ldr	r1, .L55
 585              	.LVL48:
 220:Src/usbd_composite.c ****   }
 586              		.loc 1 220 5 is_stmt 0 view .LVU124
 587 0008 0548     		ldr	r0, .L55+4
 588              	.LVL49:
ARM GAS  C:\Users\ADMINI~1\AppData\Local\Temp\ccqzcoSo.s 			page 20


 220:Src/usbd_composite.c ****   }
 589              		.loc 1 220 5 view .LVU125
 590 000a FFF7FEFF 		bl	USBD_GetString
 591              	.LVL50:
 592              	.L53:
 226:Src/usbd_composite.c **** }
 593              		.loc 1 226 3 is_stmt 1 view .LVU126
 227:Src/usbd_composite.c **** 
 594              		.loc 1 227 1 is_stmt 0 view .LVU127
 595 000e 0348     		ldr	r0, .L55
 596 0010 08BD     		pop	{r3, pc}
 597              	.LVL51:
 598              	.L52:
 224:Src/usbd_composite.c ****   }
 599              		.loc 1 224 5 is_stmt 1 view .LVU128
 600 0012 0249     		ldr	r1, .L55
 601              	.LVL52:
 224:Src/usbd_composite.c ****   }
 602              		.loc 1 224 5 is_stmt 0 view .LVU129
 603 0014 0248     		ldr	r0, .L55+4
 604              	.LVL53:
 224:Src/usbd_composite.c ****   }
 605              		.loc 1 224 5 view .LVU130
 606 0016 FFF7FEFF 		bl	USBD_GetString
 607              	.LVL54:
 224:Src/usbd_composite.c ****   }
 608              		.loc 1 224 5 view .LVU131
 609 001a F8E7     		b	.L53
 610              	.L56:
 611              		.align	2
 612              	.L55:
 613 001c 00000000 		.word	.LANCHOR5
 614 0020 00000000 		.word	.LC3
 615              		.cfi_endproc
 616              	.LFE142:
 618              		.section	.text.USBD_CMPSIT_AddClass,"ax",%progbits
 619              		.align	1
 620              		.global	USBD_CMPSIT_AddClass
 621              		.syntax unified
 622              		.thumb
 623              		.thumb_func
 625              	USBD_CMPSIT_AddClass:
 626              	.LVL55:
 627              	.LFB143:
 432:Src/usbd_composite.c **** }
 628              		.loc 1 432 1 is_stmt 1 view -0
 629              		.cfi_startproc
 630              		@ args = 0, pretend = 0, frame = 0
 631              		@ frame_needed = 0, uses_anonymous_args = 0
 632              		@ link register save eliminated.
 433:Src/usbd_composite.c **** #endif
 633              		.loc 1 433 1 view .LVU133
 634 0000 7047     		bx	lr
 635              		.cfi_endproc
 636              	.LFE143:
 638              		.global	USBD_CMPSIT
 639              		.global	USBD_CMPSIT_StringSerial
ARM GAS  C:\Users\ADMINI~1\AppData\Local\Temp\ccqzcoSo.s 			page 21


 640              		.global	USBD_CMPSIT_StrDesc
 641              		.global	USBD_CMPSIT_LangIDDesc
 642              		.global	USBD_CMPSIT_FS_DeviceDesc
 643              		.global	usbCmpsitFS_Desc
 644              		.section	.bss.USBD_CMPSIT_StrDesc,"aw",%nobits
 645              		.align	2
 646              		.set	.LANCHOR5,. + 0
 649              	USBD_CMPSIT_StrDesc:
 650 0000 00000000 		.space	512
 650      00000000 
 650      00000000 
 650      00000000 
 650      00000000 
 651              		.section	.data.USBD_CMPSIT,"aw"
 652              		.align	2
 655              	USBD_CMPSIT:
 656 0000 00000000 		.word	0
 657 0004 00000000 		.word	0
 658 0008 00000000 		.word	0
 659 000c 00000000 		.word	0
 660 0010 00000000 		.word	0
 661 0014 00000000 		.word	0
 662 0018 00000000 		.word	0
 663 001c 00000000 		.word	0
 664 0020 00000000 		.word	0
 665 0024 00000000 		.word	0
 666 0028 00000000 		.word	USBD_CMPSIT_GetHSCfgDesc
 667 002c 00000000 		.word	USBD_CMPSIT_GetFSCfgDesc
 668 0030 00000000 		.word	USBD_CMPSIT_GetOtherSpeedCfgDesc
 669 0034 00000000 		.word	USBD_CMPSIT_GetDeviceQualifierDescriptor
 670              		.section	.data.USBD_CMPSIT_CfgDesc,"aw"
 671              		.align	2
 672              		.set	.LANCHOR3,. + 0
 675              	USBD_CMPSIT_CfgDesc:
 676 0000 09024300 		.ascii	"\011\002C\000\002\001\000\3002\010\013\000\002\002\002"
 676      020100C0 
 676      32080B00 
 676      020202
 677 000f 01000904 		.ascii	"\001\000\011\004\000\000\001\002\002\001\000\005$\000"
 677      00000102 
 677      02010005 
 677      2400
 678 001d 10010524 		.ascii	"\020\001\005$\001\000\001\004$\002\002\005$\006\000"
 678      01000104 
 678      24020205 
 678      240600
 679 002c 01070582 		.ascii	"\001\007\005\202\003\010\000\020\011\004\001\000\002"
 679      03080010 
 679      09040100 
 679      02
 680 0039 0A000000 		.ascii	"\012\000\000\000\007\005\001\002@\000\000\007\005\201"
 680      07050102 
 680      40000007 
 680      0581
 681 0047 02400000 		.ascii	"\002@\000\000\010\013\002\001\010\006P\005\011\004\002"
 681      080B0201 
 681      08065005 
ARM GAS  C:\Users\ADMINI~1\AppData\Local\Temp\ccqzcoSo.s 			page 22


 681      090402
 682 0056 00020806 		.ascii	"\000\002\010\006P\005\007\005\203\002@\000\000\007\005"
 682      50050705 
 682      83024000 
 682      000705
 683 0065 03024000 		.ascii	"\003\002@\000\000"
 683      00
 684              		.section	.data.USBD_CMPSIT_DeviceQualifierDesc,"aw"
 685              		.align	2
 686              		.set	.LANCHOR4,. + 0
 689              	USBD_CMPSIT_DeviceQualifierDesc:
 690 0000 0A060002 		.ascii	"\012\006\000\002\000\000\000@\001\000"
 690      00000040 
 690      0100
 691              		.section	.data.USBD_CMPSIT_FS_DeviceDesc,"aw"
 692              		.align	2
 693              		.set	.LANCHOR0,. + 0
 696              	USBD_CMPSIT_FS_DeviceDesc:
 697 0000 12010002 		.ascii	"\022\001\000\002\357\002\001@\203\004@W\000\003\001"
 697      EF020140 
 697      83044057 
 697      000301
 698 000f 020301   		.ascii	"\002\003\001"
 699              		.section	.data.USBD_CMPSIT_LangIDDesc,"aw"
 700              		.align	2
 701              		.set	.LANCHOR1,. + 0
 704              	USBD_CMPSIT_LangIDDesc:
 705 0000 04030904 		.ascii	"\004\003\011\004"
 706              		.section	.data.USBD_CMPSIT_StringSerial,"aw"
 707              		.align	2
 708              		.set	.LANCHOR2,. + 0
 711              	USBD_CMPSIT_StringSerial:
 712 0000 1A0300   		.ascii	"\032\003\000"
 713 0003 00000000 		.space	23
 713      00000000 
 713      00000000 
 713      00000000 
 713      00000000 
 714              		.section	.data.usbCmpsitFS_Desc,"aw"
 715              		.align	2
 718              	usbCmpsitFS_Desc:
 719 0000 00000000 		.word	USBD_CMPSIT_FS_DeviceDescriptor
 720 0004 00000000 		.word	USBD_CMPSIT_FS_LangIDStrDescriptor
 721 0008 00000000 		.word	USBD_CMPSIT_FS_ManufacturerStrDescriptor
 722 000c 00000000 		.word	USBD_CMPSIT_FS_ProductStrDescriptor
 723 0010 00000000 		.word	USBD_CMPSIT_FS_SerialStrDescriptor
 724 0014 00000000 		.word	USBD_CMPSIT_FS_ConfigStrDescriptor
 725 0018 00000000 		.word	USBD_CMPSIT_FS_InterfaceStrDescriptor
 726              		.text
 727              	.Letext0:
 728              		.file 2 "e:\\program files (x86)\\gnu arm embedded toolchain\\10 2021.10\\arm-none-eabi\\include\\
 729              		.file 3 "e:\\program files (x86)\\gnu arm embedded toolchain\\10 2021.10\\arm-none-eabi\\include\\
 730              		.file 4 "Middlewares/ST/STM32_USB_Device_Library/Core/Inc/usbd_def.h"
 731              		.file 5 "Inc/usbd_composite.h"
 732              		.file 6 "Middlewares/ST/STM32_USB_Device_Library/Core/Inc/usbd_ctlreq.h"
ARM GAS  C:\Users\ADMINI~1\AppData\Local\Temp\ccqzcoSo.s 			page 23

