ARM GAS  C:\Users\ADMINI~1\AppData\Local\Temp\cczL7LlO.s 			page 1


   1              		.cpu cortex-m4
   2              		.arch armv7e-m
   3              		.fpu fpv4-sp-d16
   4              		.eabi_attribute 27, 1
   5              		.eabi_attribute 28, 1
   6              		.eabi_attribute 20, 1
   7              		.eabi_attribute 21, 1
   8              		.eabi_attribute 23, 3
   9              		.eabi_attribute 24, 1
  10              		.eabi_attribute 25, 1
  11              		.eabi_attribute 26, 1
  12              		.eabi_attribute 30, 1
  13              		.eabi_attribute 34, 1
  14              		.eabi_attribute 18, 4
  15              		.file	"usbd_core.c"
  16              		.text
  17              	.Ltext0:
  18              		.cfi_sections	.debug_frame
  19              		.section	.text.USBD_Init,"ax",%progbits
  20              		.align	1
  21              		.global	USBD_Init
  22              		.syntax unified
  23              		.thumb
  24              		.thumb_func
  26              	USBD_Init:
  27              	.LVL0:
  28              	.LFB134:
  29              		.file 1 "Middlewares/ST/STM32_USB_Device_Library/Core/Src/usbd_core.c"
   1:Middlewares/ST/STM32_USB_Device_Library/Core/Src/usbd_core.c **** /**
   2:Middlewares/ST/STM32_USB_Device_Library/Core/Src/usbd_core.c ****   ******************************************************************************
   3:Middlewares/ST/STM32_USB_Device_Library/Core/Src/usbd_core.c ****   * @file    usbd_core.c
   4:Middlewares/ST/STM32_USB_Device_Library/Core/Src/usbd_core.c ****   * @author  MCD Application Team
   5:Middlewares/ST/STM32_USB_Device_Library/Core/Src/usbd_core.c ****   * @brief   This file provides all the USBD core functions.
   6:Middlewares/ST/STM32_USB_Device_Library/Core/Src/usbd_core.c ****   ******************************************************************************
   7:Middlewares/ST/STM32_USB_Device_Library/Core/Src/usbd_core.c ****   * @attention
   8:Middlewares/ST/STM32_USB_Device_Library/Core/Src/usbd_core.c ****   *
   9:Middlewares/ST/STM32_USB_Device_Library/Core/Src/usbd_core.c ****   * Copyright (c) 2015 STMicroelectronics.
  10:Middlewares/ST/STM32_USB_Device_Library/Core/Src/usbd_core.c ****   * All rights reserved.
  11:Middlewares/ST/STM32_USB_Device_Library/Core/Src/usbd_core.c ****   *
  12:Middlewares/ST/STM32_USB_Device_Library/Core/Src/usbd_core.c ****   * This software is licensed under terms that can be found in the LICENSE file
  13:Middlewares/ST/STM32_USB_Device_Library/Core/Src/usbd_core.c ****   * in the root directory of this software component.
  14:Middlewares/ST/STM32_USB_Device_Library/Core/Src/usbd_core.c ****   * If no LICENSE file comes with this software, it is provided AS-IS.
  15:Middlewares/ST/STM32_USB_Device_Library/Core/Src/usbd_core.c ****   *
  16:Middlewares/ST/STM32_USB_Device_Library/Core/Src/usbd_core.c ****   ******************************************************************************
  17:Middlewares/ST/STM32_USB_Device_Library/Core/Src/usbd_core.c ****   */
  18:Middlewares/ST/STM32_USB_Device_Library/Core/Src/usbd_core.c **** 
  19:Middlewares/ST/STM32_USB_Device_Library/Core/Src/usbd_core.c **** /* Includes ------------------------------------------------------------------*/
  20:Middlewares/ST/STM32_USB_Device_Library/Core/Src/usbd_core.c **** #include "usbd_core.h"
  21:Middlewares/ST/STM32_USB_Device_Library/Core/Src/usbd_core.c **** 
  22:Middlewares/ST/STM32_USB_Device_Library/Core/Src/usbd_core.c **** #ifdef USE_USBD_COMPOSITE
  23:Middlewares/ST/STM32_USB_Device_Library/Core/Src/usbd_core.c **** #include "usbd_composite.h"
  24:Middlewares/ST/STM32_USB_Device_Library/Core/Src/usbd_core.c **** #endif /* USE_USBD_COMPOSITE */
  25:Middlewares/ST/STM32_USB_Device_Library/Core/Src/usbd_core.c **** #include <stdio.h>
  26:Middlewares/ST/STM32_USB_Device_Library/Core/Src/usbd_core.c **** /** @addtogroup STM32_USBD_DEVICE_LIBRARY
  27:Middlewares/ST/STM32_USB_Device_Library/Core/Src/usbd_core.c ****   * @{
  28:Middlewares/ST/STM32_USB_Device_Library/Core/Src/usbd_core.c ****   */
  29:Middlewares/ST/STM32_USB_Device_Library/Core/Src/usbd_core.c **** 
ARM GAS  C:\Users\ADMINI~1\AppData\Local\Temp\cczL7LlO.s 			page 2


  30:Middlewares/ST/STM32_USB_Device_Library/Core/Src/usbd_core.c **** 
  31:Middlewares/ST/STM32_USB_Device_Library/Core/Src/usbd_core.c **** /** @defgroup USBD_CORE
  32:Middlewares/ST/STM32_USB_Device_Library/Core/Src/usbd_core.c ****   * @brief usbd core module
  33:Middlewares/ST/STM32_USB_Device_Library/Core/Src/usbd_core.c ****   * @{
  34:Middlewares/ST/STM32_USB_Device_Library/Core/Src/usbd_core.c ****   */
  35:Middlewares/ST/STM32_USB_Device_Library/Core/Src/usbd_core.c **** 
  36:Middlewares/ST/STM32_USB_Device_Library/Core/Src/usbd_core.c **** /** @defgroup USBD_CORE_Private_TypesDefinitions
  37:Middlewares/ST/STM32_USB_Device_Library/Core/Src/usbd_core.c ****   * @{
  38:Middlewares/ST/STM32_USB_Device_Library/Core/Src/usbd_core.c ****   */
  39:Middlewares/ST/STM32_USB_Device_Library/Core/Src/usbd_core.c **** 
  40:Middlewares/ST/STM32_USB_Device_Library/Core/Src/usbd_core.c **** /**
  41:Middlewares/ST/STM32_USB_Device_Library/Core/Src/usbd_core.c ****   * @}
  42:Middlewares/ST/STM32_USB_Device_Library/Core/Src/usbd_core.c ****   */
  43:Middlewares/ST/STM32_USB_Device_Library/Core/Src/usbd_core.c **** 
  44:Middlewares/ST/STM32_USB_Device_Library/Core/Src/usbd_core.c **** 
  45:Middlewares/ST/STM32_USB_Device_Library/Core/Src/usbd_core.c **** /** @defgroup USBD_CORE_Private_Defines
  46:Middlewares/ST/STM32_USB_Device_Library/Core/Src/usbd_core.c ****   * @{
  47:Middlewares/ST/STM32_USB_Device_Library/Core/Src/usbd_core.c ****   */
  48:Middlewares/ST/STM32_USB_Device_Library/Core/Src/usbd_core.c **** 
  49:Middlewares/ST/STM32_USB_Device_Library/Core/Src/usbd_core.c **** /**
  50:Middlewares/ST/STM32_USB_Device_Library/Core/Src/usbd_core.c ****   * @}
  51:Middlewares/ST/STM32_USB_Device_Library/Core/Src/usbd_core.c ****   */
  52:Middlewares/ST/STM32_USB_Device_Library/Core/Src/usbd_core.c **** 
  53:Middlewares/ST/STM32_USB_Device_Library/Core/Src/usbd_core.c **** 
  54:Middlewares/ST/STM32_USB_Device_Library/Core/Src/usbd_core.c **** /** @defgroup USBD_CORE_Private_Macros
  55:Middlewares/ST/STM32_USB_Device_Library/Core/Src/usbd_core.c ****   * @{
  56:Middlewares/ST/STM32_USB_Device_Library/Core/Src/usbd_core.c ****   */
  57:Middlewares/ST/STM32_USB_Device_Library/Core/Src/usbd_core.c **** 
  58:Middlewares/ST/STM32_USB_Device_Library/Core/Src/usbd_core.c **** /**
  59:Middlewares/ST/STM32_USB_Device_Library/Core/Src/usbd_core.c ****   * @}
  60:Middlewares/ST/STM32_USB_Device_Library/Core/Src/usbd_core.c ****   */
  61:Middlewares/ST/STM32_USB_Device_Library/Core/Src/usbd_core.c **** 
  62:Middlewares/ST/STM32_USB_Device_Library/Core/Src/usbd_core.c **** 
  63:Middlewares/ST/STM32_USB_Device_Library/Core/Src/usbd_core.c **** /** @defgroup USBD_CORE_Private_FunctionPrototypes
  64:Middlewares/ST/STM32_USB_Device_Library/Core/Src/usbd_core.c ****   * @{
  65:Middlewares/ST/STM32_USB_Device_Library/Core/Src/usbd_core.c ****   */
  66:Middlewares/ST/STM32_USB_Device_Library/Core/Src/usbd_core.c **** 
  67:Middlewares/ST/STM32_USB_Device_Library/Core/Src/usbd_core.c **** /**
  68:Middlewares/ST/STM32_USB_Device_Library/Core/Src/usbd_core.c ****   * @}
  69:Middlewares/ST/STM32_USB_Device_Library/Core/Src/usbd_core.c ****   */
  70:Middlewares/ST/STM32_USB_Device_Library/Core/Src/usbd_core.c **** 
  71:Middlewares/ST/STM32_USB_Device_Library/Core/Src/usbd_core.c **** /** @defgroup USBD_CORE_Private_Variables
  72:Middlewares/ST/STM32_USB_Device_Library/Core/Src/usbd_core.c ****   * @{
  73:Middlewares/ST/STM32_USB_Device_Library/Core/Src/usbd_core.c ****   */
  74:Middlewares/ST/STM32_USB_Device_Library/Core/Src/usbd_core.c **** 
  75:Middlewares/ST/STM32_USB_Device_Library/Core/Src/usbd_core.c **** /**
  76:Middlewares/ST/STM32_USB_Device_Library/Core/Src/usbd_core.c ****   * @}
  77:Middlewares/ST/STM32_USB_Device_Library/Core/Src/usbd_core.c ****   */
  78:Middlewares/ST/STM32_USB_Device_Library/Core/Src/usbd_core.c **** 
  79:Middlewares/ST/STM32_USB_Device_Library/Core/Src/usbd_core.c **** 
  80:Middlewares/ST/STM32_USB_Device_Library/Core/Src/usbd_core.c **** /** @defgroup USBD_CORE_Private_Functions
  81:Middlewares/ST/STM32_USB_Device_Library/Core/Src/usbd_core.c ****   * @{
  82:Middlewares/ST/STM32_USB_Device_Library/Core/Src/usbd_core.c ****   */
  83:Middlewares/ST/STM32_USB_Device_Library/Core/Src/usbd_core.c **** 
  84:Middlewares/ST/STM32_USB_Device_Library/Core/Src/usbd_core.c **** /**
  85:Middlewares/ST/STM32_USB_Device_Library/Core/Src/usbd_core.c ****   * @brief  USBD_Init
  86:Middlewares/ST/STM32_USB_Device_Library/Core/Src/usbd_core.c ****   *         Initializes the device stack and load the class driver
ARM GAS  C:\Users\ADMINI~1\AppData\Local\Temp\cczL7LlO.s 			page 3


  87:Middlewares/ST/STM32_USB_Device_Library/Core/Src/usbd_core.c ****   * @param  pdev: device instance
  88:Middlewares/ST/STM32_USB_Device_Library/Core/Src/usbd_core.c ****   * @param  pdesc: Descriptor structure address
  89:Middlewares/ST/STM32_USB_Device_Library/Core/Src/usbd_core.c ****   * @param  id: Low level core index
  90:Middlewares/ST/STM32_USB_Device_Library/Core/Src/usbd_core.c ****   * @retval None
  91:Middlewares/ST/STM32_USB_Device_Library/Core/Src/usbd_core.c ****   */
  92:Middlewares/ST/STM32_USB_Device_Library/Core/Src/usbd_core.c **** USBD_StatusTypeDef USBD_Init(USBD_HandleTypeDef *pdev,
  93:Middlewares/ST/STM32_USB_Device_Library/Core/Src/usbd_core.c ****                              USBD_DescriptorsTypeDef *pdesc, uint8_t id)
  94:Middlewares/ST/STM32_USB_Device_Library/Core/Src/usbd_core.c **** {
  30              		.loc 1 94 1 view -0
  31              		.cfi_startproc
  32              		@ args = 0, pretend = 0, frame = 0
  33              		@ frame_needed = 0, uses_anonymous_args = 0
  95:Middlewares/ST/STM32_USB_Device_Library/Core/Src/usbd_core.c ****   USBD_StatusTypeDef ret;
  34              		.loc 1 95 3 view .LVU1
  96:Middlewares/ST/STM32_USB_Device_Library/Core/Src/usbd_core.c **** 
  97:Middlewares/ST/STM32_USB_Device_Library/Core/Src/usbd_core.c ****   /* Check whether the USB Host handle is valid */
  98:Middlewares/ST/STM32_USB_Device_Library/Core/Src/usbd_core.c ****   if (pdev == NULL)
  35              		.loc 1 98 3 view .LVU2
  36              		.loc 1 98 6 is_stmt 0 view .LVU3
  37 0000 50B3     		cbz	r0, .L6
  94:Middlewares/ST/STM32_USB_Device_Library/Core/Src/usbd_core.c ****   USBD_StatusTypeDef ret;
  38              		.loc 1 94 1 view .LVU4
  39 0002 08B5     		push	{r3, lr}
  40              	.LCFI0:
  41              		.cfi_def_cfa_offset 8
  42              		.cfi_offset 3, -8
  43              		.cfi_offset 14, -4
  44 0004 8446     		mov	ip, r0
  45              	.LBB2:
  99:Middlewares/ST/STM32_USB_Device_Library/Core/Src/usbd_core.c ****   {
 100:Middlewares/ST/STM32_USB_Device_Library/Core/Src/usbd_core.c **** #if (USBD_DEBUG_LEVEL > 1U)
 101:Middlewares/ST/STM32_USB_Device_Library/Core/Src/usbd_core.c ****     USBD_ErrLog("Invalid Device handle");
 102:Middlewares/ST/STM32_USB_Device_Library/Core/Src/usbd_core.c **** #endif /* (USBD_DEBUG_LEVEL > 1U) */
 103:Middlewares/ST/STM32_USB_Device_Library/Core/Src/usbd_core.c ****     return USBD_FAIL;
 104:Middlewares/ST/STM32_USB_Device_Library/Core/Src/usbd_core.c ****   }
 105:Middlewares/ST/STM32_USB_Device_Library/Core/Src/usbd_core.c **** 
 106:Middlewares/ST/STM32_USB_Device_Library/Core/Src/usbd_core.c **** #ifdef USE_USBD_COMPOSITE
 107:Middlewares/ST/STM32_USB_Device_Library/Core/Src/usbd_core.c ****   /* Parse the table of classes in use */
 108:Middlewares/ST/STM32_USB_Device_Library/Core/Src/usbd_core.c ****   for (uint32_t i = 0; i < USBD_MAX_SUPPORTED_CLASS; i++)
  46              		.loc 1 108 17 view .LVU5
  47 0006 0023     		movs	r3, #0
  48 0008 15E0     		b	.L3
  49              	.LVL1:
  50              	.L4:
 109:Middlewares/ST/STM32_USB_Device_Library/Core/Src/usbd_core.c ****   {
 110:Middlewares/ST/STM32_USB_Device_Library/Core/Src/usbd_core.c ****     /* Unlink previous class*/
 111:Middlewares/ST/STM32_USB_Device_Library/Core/Src/usbd_core.c ****     pdev->pClass[i] = NULL;
  51              		.loc 1 111 5 is_stmt 1 discriminator 3 view .LVU6
  52              		.loc 1 111 21 is_stmt 0 discriminator 3 view .LVU7
  53 000a 03F1AE0E 		add	lr, r3, #174
  54 000e 0020     		movs	r0, #0
  55 0010 4CF82E00 		str	r0, [ip, lr, lsl #2]
 112:Middlewares/ST/STM32_USB_Device_Library/Core/Src/usbd_core.c ****     pdev->pUserData[i] = NULL;
  56              		.loc 1 112 5 is_stmt 1 discriminator 3 view .LVU8
  57              		.loc 1 112 24 is_stmt 0 discriminator 3 view .LVU9
  58 0014 03F1B60E 		add	lr, r3, #182
  59 0018 0CEB8E0E 		add	lr, ip, lr, lsl #2
ARM GAS  C:\Users\ADMINI~1\AppData\Local\Temp\cczL7LlO.s 			page 4


  60 001c CEF80400 		str	r0, [lr, #4]
 113:Middlewares/ST/STM32_USB_Device_Library/Core/Src/usbd_core.c **** 
 114:Middlewares/ST/STM32_USB_Device_Library/Core/Src/usbd_core.c ****     /* Set class as inactive */
 115:Middlewares/ST/STM32_USB_Device_Library/Core/Src/usbd_core.c ****     pdev->tclasslist[i].Active = 0;
  61              		.loc 1 115 5 is_stmt 1 discriminator 3 view .LVU10
  62              		.loc 1 115 32 is_stmt 0 discriminator 3 view .LVU11
  63 0020 C3EBC30E 		rsb	lr, r3, r3, lsl #3
  64 0024 0CEBCE0E 		add	lr, ip, lr, lsl #3
  65 0028 CEF80803 		str	r0, [lr, #776]
 116:Middlewares/ST/STM32_USB_Device_Library/Core/Src/usbd_core.c ****     pdev->NumClasses = 0;
  66              		.loc 1 116 5 is_stmt 1 discriminator 3 view .LVU12
  67              		.loc 1 116 22 is_stmt 0 discriminator 3 view .LVU13
  68 002c CCF8FC02 		str	r0, [ip, #764]
 117:Middlewares/ST/STM32_USB_Device_Library/Core/Src/usbd_core.c ****     pdev->classId = 0;
  69              		.loc 1 117 5 is_stmt 1 discriminator 3 view .LVU14
  70              		.loc 1 117 19 is_stmt 0 discriminator 3 view .LVU15
  71 0030 CCF8F802 		str	r0, [ip, #760]
 108:Middlewares/ST/STM32_USB_Device_Library/Core/Src/usbd_core.c ****   {
  72              		.loc 1 108 54 is_stmt 1 discriminator 3 view .LVU16
 108:Middlewares/ST/STM32_USB_Device_Library/Core/Src/usbd_core.c ****   {
  73              		.loc 1 108 55 is_stmt 0 discriminator 3 view .LVU17
  74 0034 0133     		adds	r3, r3, #1
  75              	.LVL2:
  76              	.L3:
 108:Middlewares/ST/STM32_USB_Device_Library/Core/Src/usbd_core.c ****   {
  77              		.loc 1 108 24 is_stmt 1 discriminator 1 view .LVU18
 108:Middlewares/ST/STM32_USB_Device_Library/Core/Src/usbd_core.c ****   {
  78              		.loc 1 108 3 is_stmt 0 discriminator 1 view .LVU19
  79 0036 032B     		cmp	r3, #3
  80 0038 E7D9     		bls	.L4
  81              	.LBE2:
 118:Middlewares/ST/STM32_USB_Device_Library/Core/Src/usbd_core.c ****   }
 119:Middlewares/ST/STM32_USB_Device_Library/Core/Src/usbd_core.c **** #else
 120:Middlewares/ST/STM32_USB_Device_Library/Core/Src/usbd_core.c ****   /* Unlink previous class*/
 121:Middlewares/ST/STM32_USB_Device_Library/Core/Src/usbd_core.c ****   pdev->pClass[0] = NULL;
 122:Middlewares/ST/STM32_USB_Device_Library/Core/Src/usbd_core.c ****   pdev->pUserData[0] = NULL;
 123:Middlewares/ST/STM32_USB_Device_Library/Core/Src/usbd_core.c **** #endif /* USE_USBD_COMPOSITE */
 124:Middlewares/ST/STM32_USB_Device_Library/Core/Src/usbd_core.c **** 
 125:Middlewares/ST/STM32_USB_Device_Library/Core/Src/usbd_core.c ****   pdev->pConfDesc = NULL;
  82              		.loc 1 125 3 is_stmt 1 view .LVU20
  83              		.loc 1 125 19 is_stmt 0 view .LVU21
  84 003a 0023     		movs	r3, #0
  85              	.LVL3:
  86              		.loc 1 125 19 view .LVU22
  87 003c CCF8F432 		str	r3, [ip, #756]
 126:Middlewares/ST/STM32_USB_Device_Library/Core/Src/usbd_core.c **** 
 127:Middlewares/ST/STM32_USB_Device_Library/Core/Src/usbd_core.c ****   /* Assign USBD Descriptors */
 128:Middlewares/ST/STM32_USB_Device_Library/Core/Src/usbd_core.c ****   if (pdesc != NULL)
  88              		.loc 1 128 3 is_stmt 1 view .LVU23
  89              		.loc 1 128 6 is_stmt 0 view .LVU24
  90 0040 09B1     		cbz	r1, .L5
 129:Middlewares/ST/STM32_USB_Device_Library/Core/Src/usbd_core.c ****   {
 130:Middlewares/ST/STM32_USB_Device_Library/Core/Src/usbd_core.c ****     pdev->pDesc = pdesc;
  91              		.loc 1 130 5 is_stmt 1 view .LVU25
  92              		.loc 1 130 17 is_stmt 0 view .LVU26
  93 0042 CCF8B412 		str	r1, [ip, #692]
  94              	.L5:
ARM GAS  C:\Users\ADMINI~1\AppData\Local\Temp\cczL7LlO.s 			page 5


 131:Middlewares/ST/STM32_USB_Device_Library/Core/Src/usbd_core.c ****   }
 132:Middlewares/ST/STM32_USB_Device_Library/Core/Src/usbd_core.c **** 
 133:Middlewares/ST/STM32_USB_Device_Library/Core/Src/usbd_core.c ****   /* Set Device initial State */
 134:Middlewares/ST/STM32_USB_Device_Library/Core/Src/usbd_core.c ****   pdev->dev_state = USBD_STATE_DEFAULT;
  95              		.loc 1 134 3 is_stmt 1 view .LVU27
  96              		.loc 1 134 19 is_stmt 0 view .LVU28
  97 0046 0123     		movs	r3, #1
  98 0048 8CF89C32 		strb	r3, [ip, #668]
 135:Middlewares/ST/STM32_USB_Device_Library/Core/Src/usbd_core.c ****   pdev->id = id;
  99              		.loc 1 135 3 is_stmt 1 view .LVU29
 100              		.loc 1 135 12 is_stmt 0 view .LVU30
 101 004c 8CF80020 		strb	r2, [ip]
 136:Middlewares/ST/STM32_USB_Device_Library/Core/Src/usbd_core.c **** 
 137:Middlewares/ST/STM32_USB_Device_Library/Core/Src/usbd_core.c ****   /* Initialize low level driver */
 138:Middlewares/ST/STM32_USB_Device_Library/Core/Src/usbd_core.c ****   ret = USBD_LL_Init(pdev);
 102              		.loc 1 138 3 is_stmt 1 view .LVU31
 103              		.loc 1 138 9 is_stmt 0 view .LVU32
 104 0050 6046     		mov	r0, ip
 105 0052 FFF7FEFF 		bl	USBD_LL_Init
 106              	.LVL4:
 139:Middlewares/ST/STM32_USB_Device_Library/Core/Src/usbd_core.c **** 
 140:Middlewares/ST/STM32_USB_Device_Library/Core/Src/usbd_core.c ****   return ret;
 107              		.loc 1 140 3 is_stmt 1 view .LVU33
 141:Middlewares/ST/STM32_USB_Device_Library/Core/Src/usbd_core.c **** }
 108              		.loc 1 141 1 is_stmt 0 view .LVU34
 109 0056 08BD     		pop	{r3, pc}
 110              	.LVL5:
 111              	.L6:
 112              	.LCFI1:
 113              		.cfi_def_cfa_offset 0
 114              		.cfi_restore 3
 115              		.cfi_restore 14
 103:Middlewares/ST/STM32_USB_Device_Library/Core/Src/usbd_core.c ****   }
 116              		.loc 1 103 12 view .LVU35
 117 0058 0320     		movs	r0, #3
 118              	.LVL6:
 119              		.loc 1 141 1 view .LVU36
 120 005a 7047     		bx	lr
 121              		.cfi_endproc
 122              	.LFE134:
 124              		.section	.text.USBD_DeInit,"ax",%progbits
 125              		.align	1
 126              		.global	USBD_DeInit
 127              		.syntax unified
 128              		.thumb
 129              		.thumb_func
 131              	USBD_DeInit:
 132              	.LVL7:
 133              	.LFB135:
 142:Middlewares/ST/STM32_USB_Device_Library/Core/Src/usbd_core.c **** 
 143:Middlewares/ST/STM32_USB_Device_Library/Core/Src/usbd_core.c **** /**
 144:Middlewares/ST/STM32_USB_Device_Library/Core/Src/usbd_core.c ****   * @brief  USBD_DeInit
 145:Middlewares/ST/STM32_USB_Device_Library/Core/Src/usbd_core.c ****   *         Re-Initialize the device library
 146:Middlewares/ST/STM32_USB_Device_Library/Core/Src/usbd_core.c ****   * @param  pdev: device instance
 147:Middlewares/ST/STM32_USB_Device_Library/Core/Src/usbd_core.c ****   * @retval status: status
 148:Middlewares/ST/STM32_USB_Device_Library/Core/Src/usbd_core.c ****   */
 149:Middlewares/ST/STM32_USB_Device_Library/Core/Src/usbd_core.c **** USBD_StatusTypeDef USBD_DeInit(USBD_HandleTypeDef *pdev)
ARM GAS  C:\Users\ADMINI~1\AppData\Local\Temp\cczL7LlO.s 			page 6


 150:Middlewares/ST/STM32_USB_Device_Library/Core/Src/usbd_core.c **** {
 134              		.loc 1 150 1 is_stmt 1 view -0
 135              		.cfi_startproc
 136              		@ args = 0, pretend = 0, frame = 0
 137              		@ frame_needed = 0, uses_anonymous_args = 0
 138              		.loc 1 150 1 is_stmt 0 view .LVU38
 139 0000 38B5     		push	{r3, r4, r5, lr}
 140              	.LCFI2:
 141              		.cfi_def_cfa_offset 16
 142              		.cfi_offset 3, -16
 143              		.cfi_offset 4, -12
 144              		.cfi_offset 5, -8
 145              		.cfi_offset 14, -4
 146 0002 0546     		mov	r5, r0
 151:Middlewares/ST/STM32_USB_Device_Library/Core/Src/usbd_core.c ****   USBD_StatusTypeDef ret;
 147              		.loc 1 151 3 is_stmt 1 view .LVU39
 152:Middlewares/ST/STM32_USB_Device_Library/Core/Src/usbd_core.c **** 
 153:Middlewares/ST/STM32_USB_Device_Library/Core/Src/usbd_core.c ****   /* Disconnect the USB Device */
 154:Middlewares/ST/STM32_USB_Device_Library/Core/Src/usbd_core.c ****   (void)USBD_LL_Stop(pdev);
 148              		.loc 1 154 3 view .LVU40
 149              		.loc 1 154 9 is_stmt 0 view .LVU41
 150 0004 FFF7FEFF 		bl	USBD_LL_Stop
 151              	.LVL8:
 155:Middlewares/ST/STM32_USB_Device_Library/Core/Src/usbd_core.c **** 
 156:Middlewares/ST/STM32_USB_Device_Library/Core/Src/usbd_core.c ****   /* Set Default State */
 157:Middlewares/ST/STM32_USB_Device_Library/Core/Src/usbd_core.c ****   pdev->dev_state = USBD_STATE_DEFAULT;
 152              		.loc 1 157 3 is_stmt 1 view .LVU42
 153              		.loc 1 157 19 is_stmt 0 view .LVU43
 154 0008 0123     		movs	r3, #1
 155 000a 85F89C32 		strb	r3, [r5, #668]
 158:Middlewares/ST/STM32_USB_Device_Library/Core/Src/usbd_core.c **** 
 159:Middlewares/ST/STM32_USB_Device_Library/Core/Src/usbd_core.c **** #ifdef USE_USBD_COMPOSITE
 160:Middlewares/ST/STM32_USB_Device_Library/Core/Src/usbd_core.c ****   /* Parse the table of classes in use */
 161:Middlewares/ST/STM32_USB_Device_Library/Core/Src/usbd_core.c ****   for (uint32_t i = 0; i < USBD_MAX_SUPPORTED_CLASS; i++)
 156              		.loc 1 161 3 is_stmt 1 view .LVU44
 157              	.LBB3:
 158              		.loc 1 161 8 view .LVU45
 159              	.LVL9:
 160              		.loc 1 161 17 is_stmt 0 view .LVU46
 161 000e 0024     		movs	r4, #0
 162              		.loc 1 161 3 view .LVU47
 163 0010 06E0     		b	.L12
 164              	.LVL10:
 165              	.L17:
 162:Middlewares/ST/STM32_USB_Device_Library/Core/Src/usbd_core.c ****   {
 163:Middlewares/ST/STM32_USB_Device_Library/Core/Src/usbd_core.c ****     /* Check if current class is in use */
 164:Middlewares/ST/STM32_USB_Device_Library/Core/Src/usbd_core.c ****     if ((pdev->tclasslist[i].Active) == 1U)
 165:Middlewares/ST/STM32_USB_Device_Library/Core/Src/usbd_core.c ****     {
 166:Middlewares/ST/STM32_USB_Device_Library/Core/Src/usbd_core.c ****       if (pdev->pClass[i] != NULL)
 167:Middlewares/ST/STM32_USB_Device_Library/Core/Src/usbd_core.c ****       {
 168:Middlewares/ST/STM32_USB_Device_Library/Core/Src/usbd_core.c ****         pdev->classId = i;
 166              		.loc 1 168 9 is_stmt 1 view .LVU48
 167              		.loc 1 168 23 is_stmt 0 view .LVU49
 168 0012 C5F8F842 		str	r4, [r5, #760]
 169:Middlewares/ST/STM32_USB_Device_Library/Core/Src/usbd_core.c ****         /* Free Class Resources */
 170:Middlewares/ST/STM32_USB_Device_Library/Core/Src/usbd_core.c ****         pdev->pClass[i]->DeInit(pdev, (uint8_t)pdev->dev_config);
 169              		.loc 1 170 9 is_stmt 1 view .LVU50
ARM GAS  C:\Users\ADMINI~1\AppData\Local\Temp\cczL7LlO.s 			page 7


 170              		.loc 1 170 24 is_stmt 0 view .LVU51
 171 0016 5B68     		ldr	r3, [r3, #4]
 172              		.loc 1 170 9 view .LVU52
 173 0018 2979     		ldrb	r1, [r5, #4]	@ zero_extendqisi2
 174 001a 2846     		mov	r0, r5
 175 001c 9847     		blx	r3
 176              	.LVL11:
 177              	.L13:
 161:Middlewares/ST/STM32_USB_Device_Library/Core/Src/usbd_core.c ****   {
 178              		.loc 1 161 54 is_stmt 1 discriminator 2 view .LVU53
 161:Middlewares/ST/STM32_USB_Device_Library/Core/Src/usbd_core.c ****   {
 179              		.loc 1 161 55 is_stmt 0 discriminator 2 view .LVU54
 180 001e 0134     		adds	r4, r4, #1
 181              	.LVL12:
 182              	.L12:
 161:Middlewares/ST/STM32_USB_Device_Library/Core/Src/usbd_core.c ****   {
 183              		.loc 1 161 24 is_stmt 1 discriminator 1 view .LVU55
 161:Middlewares/ST/STM32_USB_Device_Library/Core/Src/usbd_core.c ****   {
 184              		.loc 1 161 3 is_stmt 0 discriminator 1 view .LVU56
 185 0020 032C     		cmp	r4, #3
 186 0022 0ED8     		bhi	.L16
 164:Middlewares/ST/STM32_USB_Device_Library/Core/Src/usbd_core.c ****     {
 187              		.loc 1 164 5 is_stmt 1 view .LVU57
 164:Middlewares/ST/STM32_USB_Device_Library/Core/Src/usbd_core.c ****     {
 188              		.loc 1 164 29 is_stmt 0 view .LVU58
 189 0024 C4EBC403 		rsb	r3, r4, r4, lsl #3
 190 0028 05EBC303 		add	r3, r5, r3, lsl #3
 191 002c D3F80833 		ldr	r3, [r3, #776]
 164:Middlewares/ST/STM32_USB_Device_Library/Core/Src/usbd_core.c ****     {
 192              		.loc 1 164 8 view .LVU59
 193 0030 012B     		cmp	r3, #1
 194 0032 F4D1     		bne	.L13
 166:Middlewares/ST/STM32_USB_Device_Library/Core/Src/usbd_core.c ****       {
 195              		.loc 1 166 7 is_stmt 1 view .LVU60
 166:Middlewares/ST/STM32_USB_Device_Library/Core/Src/usbd_core.c ****       {
 196              		.loc 1 166 23 is_stmt 0 view .LVU61
 197 0034 04F1AE03 		add	r3, r4, #174
 198 0038 55F82330 		ldr	r3, [r5, r3, lsl #2]
 166:Middlewares/ST/STM32_USB_Device_Library/Core/Src/usbd_core.c ****       {
 199              		.loc 1 166 10 view .LVU62
 200 003c 002B     		cmp	r3, #0
 201 003e E8D1     		bne	.L17
 202 0040 EDE7     		b	.L13
 203              	.L16:
 166:Middlewares/ST/STM32_USB_Device_Library/Core/Src/usbd_core.c ****       {
 204              		.loc 1 166 10 view .LVU63
 205              	.LBE3:
 171:Middlewares/ST/STM32_USB_Device_Library/Core/Src/usbd_core.c ****       }
 172:Middlewares/ST/STM32_USB_Device_Library/Core/Src/usbd_core.c ****     }
 173:Middlewares/ST/STM32_USB_Device_Library/Core/Src/usbd_core.c ****   }
 174:Middlewares/ST/STM32_USB_Device_Library/Core/Src/usbd_core.c **** #else
 175:Middlewares/ST/STM32_USB_Device_Library/Core/Src/usbd_core.c ****   /* Free Class Resources */
 176:Middlewares/ST/STM32_USB_Device_Library/Core/Src/usbd_core.c ****   if (pdev->pClass[0] != NULL)
 177:Middlewares/ST/STM32_USB_Device_Library/Core/Src/usbd_core.c ****   {
 178:Middlewares/ST/STM32_USB_Device_Library/Core/Src/usbd_core.c ****     pdev->pClass[0]->DeInit(pdev, (uint8_t)pdev->dev_config);
 179:Middlewares/ST/STM32_USB_Device_Library/Core/Src/usbd_core.c ****   }
 180:Middlewares/ST/STM32_USB_Device_Library/Core/Src/usbd_core.c **** 
ARM GAS  C:\Users\ADMINI~1\AppData\Local\Temp\cczL7LlO.s 			page 8


 181:Middlewares/ST/STM32_USB_Device_Library/Core/Src/usbd_core.c ****   pdev->pUserData[0] = NULL;
 182:Middlewares/ST/STM32_USB_Device_Library/Core/Src/usbd_core.c **** 
 183:Middlewares/ST/STM32_USB_Device_Library/Core/Src/usbd_core.c **** #endif /* USE_USBD_COMPOSITE */
 184:Middlewares/ST/STM32_USB_Device_Library/Core/Src/usbd_core.c **** 
 185:Middlewares/ST/STM32_USB_Device_Library/Core/Src/usbd_core.c ****   /* Free Device descriptors resources */
 186:Middlewares/ST/STM32_USB_Device_Library/Core/Src/usbd_core.c ****   pdev->pDesc = NULL;
 206              		.loc 1 186 3 is_stmt 1 view .LVU64
 207              		.loc 1 186 15 is_stmt 0 view .LVU65
 208 0042 0023     		movs	r3, #0
 209 0044 C5F8B432 		str	r3, [r5, #692]
 187:Middlewares/ST/STM32_USB_Device_Library/Core/Src/usbd_core.c ****   pdev->pConfDesc = NULL;
 210              		.loc 1 187 3 is_stmt 1 view .LVU66
 211              		.loc 1 187 19 is_stmt 0 view .LVU67
 212 0048 C5F8F432 		str	r3, [r5, #756]
 188:Middlewares/ST/STM32_USB_Device_Library/Core/Src/usbd_core.c **** 
 189:Middlewares/ST/STM32_USB_Device_Library/Core/Src/usbd_core.c ****   /* DeInitialize low level driver */
 190:Middlewares/ST/STM32_USB_Device_Library/Core/Src/usbd_core.c ****   ret = USBD_LL_DeInit(pdev);
 213              		.loc 1 190 3 is_stmt 1 view .LVU68
 214              		.loc 1 190 9 is_stmt 0 view .LVU69
 215 004c 2846     		mov	r0, r5
 216 004e FFF7FEFF 		bl	USBD_LL_DeInit
 217              	.LVL13:
 191:Middlewares/ST/STM32_USB_Device_Library/Core/Src/usbd_core.c **** 
 192:Middlewares/ST/STM32_USB_Device_Library/Core/Src/usbd_core.c ****   return ret;
 218              		.loc 1 192 3 is_stmt 1 view .LVU70
 193:Middlewares/ST/STM32_USB_Device_Library/Core/Src/usbd_core.c **** }
 219              		.loc 1 193 1 is_stmt 0 view .LVU71
 220 0052 38BD     		pop	{r3, r4, r5, pc}
 221              		.loc 1 193 1 view .LVU72
 222              		.cfi_endproc
 223              	.LFE135:
 225              		.section	.text.USBD_RegisterClass,"ax",%progbits
 226              		.align	1
 227              		.global	USBD_RegisterClass
 228              		.syntax unified
 229              		.thumb
 230              		.thumb_func
 232              	USBD_RegisterClass:
 233              	.LVL14:
 234              	.LFB136:
 194:Middlewares/ST/STM32_USB_Device_Library/Core/Src/usbd_core.c **** 
 195:Middlewares/ST/STM32_USB_Device_Library/Core/Src/usbd_core.c **** /**
 196:Middlewares/ST/STM32_USB_Device_Library/Core/Src/usbd_core.c ****   * @brief  USBD_RegisterClass
 197:Middlewares/ST/STM32_USB_Device_Library/Core/Src/usbd_core.c ****   *         Link class driver to Device Core.
 198:Middlewares/ST/STM32_USB_Device_Library/Core/Src/usbd_core.c ****   * @param  pDevice : Device Handle
 199:Middlewares/ST/STM32_USB_Device_Library/Core/Src/usbd_core.c ****   * @param  pclass: Class handle
 200:Middlewares/ST/STM32_USB_Device_Library/Core/Src/usbd_core.c ****   * @retval USBD Status
 201:Middlewares/ST/STM32_USB_Device_Library/Core/Src/usbd_core.c ****   */
 202:Middlewares/ST/STM32_USB_Device_Library/Core/Src/usbd_core.c **** USBD_StatusTypeDef USBD_RegisterClass(USBD_HandleTypeDef *pdev, USBD_ClassTypeDef *pclass)
 203:Middlewares/ST/STM32_USB_Device_Library/Core/Src/usbd_core.c **** {
 235              		.loc 1 203 1 is_stmt 1 view -0
 236              		.cfi_startproc
 237              		@ args = 0, pretend = 0, frame = 8
 238              		@ frame_needed = 0, uses_anonymous_args = 0
 239              		.loc 1 203 1 is_stmt 0 view .LVU74
 240 0000 10B5     		push	{r4, lr}
 241              	.LCFI3:
ARM GAS  C:\Users\ADMINI~1\AppData\Local\Temp\cczL7LlO.s 			page 9


 242              		.cfi_def_cfa_offset 8
 243              		.cfi_offset 4, -8
 244              		.cfi_offset 14, -4
 245 0002 82B0     		sub	sp, sp, #8
 246              	.LCFI4:
 247              		.cfi_def_cfa_offset 16
 204:Middlewares/ST/STM32_USB_Device_Library/Core/Src/usbd_core.c ****   uint16_t len = 0U;
 248              		.loc 1 204 3 is_stmt 1 view .LVU75
 249              		.loc 1 204 12 is_stmt 0 view .LVU76
 250 0004 0023     		movs	r3, #0
 251 0006 ADF80630 		strh	r3, [sp, #6]	@ movhi
 205:Middlewares/ST/STM32_USB_Device_Library/Core/Src/usbd_core.c **** 
 206:Middlewares/ST/STM32_USB_Device_Library/Core/Src/usbd_core.c ****   if (pclass == NULL)
 252              		.loc 1 206 3 is_stmt 1 view .LVU77
 253              		.loc 1 206 6 is_stmt 0 view .LVU78
 254 000a B1B1     		cbz	r1, .L21
 255 000c 0446     		mov	r4, r0
 207:Middlewares/ST/STM32_USB_Device_Library/Core/Src/usbd_core.c ****   {
 208:Middlewares/ST/STM32_USB_Device_Library/Core/Src/usbd_core.c **** #if (USBD_DEBUG_LEVEL > 1U)
 209:Middlewares/ST/STM32_USB_Device_Library/Core/Src/usbd_core.c ****     USBD_ErrLog("Invalid Class handle");
 210:Middlewares/ST/STM32_USB_Device_Library/Core/Src/usbd_core.c **** #endif /* (USBD_DEBUG_LEVEL > 1U) */
 211:Middlewares/ST/STM32_USB_Device_Library/Core/Src/usbd_core.c ****     return USBD_FAIL;
 212:Middlewares/ST/STM32_USB_Device_Library/Core/Src/usbd_core.c ****   }
 213:Middlewares/ST/STM32_USB_Device_Library/Core/Src/usbd_core.c **** 
 214:Middlewares/ST/STM32_USB_Device_Library/Core/Src/usbd_core.c ****   /* link the class to the USB Device handle */
 215:Middlewares/ST/STM32_USB_Device_Library/Core/Src/usbd_core.c ****   pdev->pClass[0] = pclass;
 256              		.loc 1 215 3 is_stmt 1 view .LVU79
 257              		.loc 1 215 19 is_stmt 0 view .LVU80
 258 000e C0F8B812 		str	r1, [r0, #696]
 216:Middlewares/ST/STM32_USB_Device_Library/Core/Src/usbd_core.c **** 
 217:Middlewares/ST/STM32_USB_Device_Library/Core/Src/usbd_core.c ****   /* Get Device Configuration Descriptor */
 218:Middlewares/ST/STM32_USB_Device_Library/Core/Src/usbd_core.c **** #ifdef USE_USB_HS
 219:Middlewares/ST/STM32_USB_Device_Library/Core/Src/usbd_core.c ****   if (pdev->pClass[pdev->classId]->GetHSConfigDescriptor != NULL)
 220:Middlewares/ST/STM32_USB_Device_Library/Core/Src/usbd_core.c ****   {
 221:Middlewares/ST/STM32_USB_Device_Library/Core/Src/usbd_core.c ****     pdev->pConfDesc = (void *)pdev->pClass[pdev->classId]->GetHSConfigDescriptor(&len);
 222:Middlewares/ST/STM32_USB_Device_Library/Core/Src/usbd_core.c ****   }
 223:Middlewares/ST/STM32_USB_Device_Library/Core/Src/usbd_core.c **** #else /* Default USE_USB_FS */
 224:Middlewares/ST/STM32_USB_Device_Library/Core/Src/usbd_core.c ****   if (pdev->pClass[pdev->classId]->GetFSConfigDescriptor != NULL)
 259              		.loc 1 224 3 is_stmt 1 view .LVU81
 260              		.loc 1 224 24 is_stmt 0 view .LVU82
 261 0012 D0F8F832 		ldr	r3, [r0, #760]
 262              		.loc 1 224 19 view .LVU83
 263 0016 AE33     		adds	r3, r3, #174
 264 0018 50F82330 		ldr	r3, [r0, r3, lsl #2]
 265              		.loc 1 224 34 view .LVU84
 266 001c DB6A     		ldr	r3, [r3, #44]
 267              		.loc 1 224 6 view .LVU85
 268 001e 23B1     		cbz	r3, .L20
 225:Middlewares/ST/STM32_USB_Device_Library/Core/Src/usbd_core.c ****   {
 226:Middlewares/ST/STM32_USB_Device_Library/Core/Src/usbd_core.c ****     pdev->pConfDesc = (void *)pdev->pClass[pdev->classId]->GetFSConfigDescriptor(&len);
 269              		.loc 1 226 5 is_stmt 1 view .LVU86
 270              		.loc 1 226 31 is_stmt 0 view .LVU87
 271 0020 0DF10600 		add	r0, sp, #6
 272              	.LVL15:
 273              		.loc 1 226 31 view .LVU88
 274 0024 9847     		blx	r3
 275              	.LVL16:
ARM GAS  C:\Users\ADMINI~1\AppData\Local\Temp\cczL7LlO.s 			page 10


 276              		.loc 1 226 21 view .LVU89
 277 0026 C4F8F402 		str	r0, [r4, #756]
 278              	.L20:
 227:Middlewares/ST/STM32_USB_Device_Library/Core/Src/usbd_core.c ****   }
 228:Middlewares/ST/STM32_USB_Device_Library/Core/Src/usbd_core.c **** #endif /* USE_USB_FS */
 229:Middlewares/ST/STM32_USB_Device_Library/Core/Src/usbd_core.c **** 
 230:Middlewares/ST/STM32_USB_Device_Library/Core/Src/usbd_core.c ****   /* Increment the NumClasses */
 231:Middlewares/ST/STM32_USB_Device_Library/Core/Src/usbd_core.c ****   pdev->NumClasses ++;
 279              		.loc 1 231 3 is_stmt 1 view .LVU90
 280              		.loc 1 231 7 is_stmt 0 view .LVU91
 281 002a D4F8FC32 		ldr	r3, [r4, #764]
 282              		.loc 1 231 20 view .LVU92
 283 002e 0133     		adds	r3, r3, #1
 284 0030 C4F8FC32 		str	r3, [r4, #764]
 232:Middlewares/ST/STM32_USB_Device_Library/Core/Src/usbd_core.c **** 
 233:Middlewares/ST/STM32_USB_Device_Library/Core/Src/usbd_core.c ****   return USBD_OK;
 285              		.loc 1 233 3 is_stmt 1 view .LVU93
 286              		.loc 1 233 10 is_stmt 0 view .LVU94
 287 0034 0020     		movs	r0, #0
 288              	.LVL17:
 289              	.L19:
 234:Middlewares/ST/STM32_USB_Device_Library/Core/Src/usbd_core.c **** }
 290              		.loc 1 234 1 view .LVU95
 291 0036 02B0     		add	sp, sp, #8
 292              	.LCFI5:
 293              		.cfi_remember_state
 294              		.cfi_def_cfa_offset 8
 295              		@ sp needed
 296 0038 10BD     		pop	{r4, pc}
 297              	.LVL18:
 298              	.L21:
 299              	.LCFI6:
 300              		.cfi_restore_state
 211:Middlewares/ST/STM32_USB_Device_Library/Core/Src/usbd_core.c ****   }
 301              		.loc 1 211 12 view .LVU96
 302 003a 0320     		movs	r0, #3
 303              	.LVL19:
 211:Middlewares/ST/STM32_USB_Device_Library/Core/Src/usbd_core.c ****   }
 304              		.loc 1 211 12 view .LVU97
 305 003c FBE7     		b	.L19
 306              		.cfi_endproc
 307              	.LFE136:
 309              		.section	.text.USBD_RegisterClassComposite,"ax",%progbits
 310              		.align	1
 311              		.global	USBD_RegisterClassComposite
 312              		.syntax unified
 313              		.thumb
 314              		.thumb_func
 316              	USBD_RegisterClassComposite:
 317              	.LVL20:
 318              	.LFB137:
 235:Middlewares/ST/STM32_USB_Device_Library/Core/Src/usbd_core.c **** 
 236:Middlewares/ST/STM32_USB_Device_Library/Core/Src/usbd_core.c **** #ifdef USE_USBD_COMPOSITE
 237:Middlewares/ST/STM32_USB_Device_Library/Core/Src/usbd_core.c **** /**
 238:Middlewares/ST/STM32_USB_Device_Library/Core/Src/usbd_core.c ****   * @brief  USBD_RegisterClassComposite
 239:Middlewares/ST/STM32_USB_Device_Library/Core/Src/usbd_core.c ****   *         Link class driver to Device Core.
 240:Middlewares/ST/STM32_USB_Device_Library/Core/Src/usbd_core.c ****   * @param  pdev : Device Handle
ARM GAS  C:\Users\ADMINI~1\AppData\Local\Temp\cczL7LlO.s 			page 11


 241:Middlewares/ST/STM32_USB_Device_Library/Core/Src/usbd_core.c ****   * @param  pclass: Class handle
 242:Middlewares/ST/STM32_USB_Device_Library/Core/Src/usbd_core.c ****   * @param  classtype: Class type
 243:Middlewares/ST/STM32_USB_Device_Library/Core/Src/usbd_core.c ****   * @param  EpAddr: Endpoint Address handle
 244:Middlewares/ST/STM32_USB_Device_Library/Core/Src/usbd_core.c ****   * @retval USBD Status
 245:Middlewares/ST/STM32_USB_Device_Library/Core/Src/usbd_core.c ****   */
 246:Middlewares/ST/STM32_USB_Device_Library/Core/Src/usbd_core.c **** USBD_StatusTypeDef  USBD_RegisterClassComposite(USBD_HandleTypeDef *pdev, USBD_ClassTypeDef *pclass
 247:Middlewares/ST/STM32_USB_Device_Library/Core/Src/usbd_core.c ****                                                 USBD_CompositeClassTypeDef classtype, uint8_t *EpAd
 248:Middlewares/ST/STM32_USB_Device_Library/Core/Src/usbd_core.c **** {
 319              		.loc 1 248 1 is_stmt 1 view -0
 320              		.cfi_startproc
 321              		@ args = 0, pretend = 0, frame = 8
 322              		@ frame_needed = 0, uses_anonymous_args = 0
 323              		.loc 1 248 1 is_stmt 0 view .LVU99
 324 0000 30B5     		push	{r4, r5, lr}
 325              	.LCFI7:
 326              		.cfi_def_cfa_offset 12
 327              		.cfi_offset 4, -12
 328              		.cfi_offset 5, -8
 329              		.cfi_offset 14, -4
 330 0002 83B0     		sub	sp, sp, #12
 331              	.LCFI8:
 332              		.cfi_def_cfa_offset 24
 333 0004 0446     		mov	r4, r0
 249:Middlewares/ST/STM32_USB_Device_Library/Core/Src/usbd_core.c ****   USBD_StatusTypeDef   ret = USBD_OK;
 334              		.loc 1 249 3 is_stmt 1 view .LVU100
 335              	.LVL21:
 250:Middlewares/ST/STM32_USB_Device_Library/Core/Src/usbd_core.c ****   uint16_t len = 0U;
 336              		.loc 1 250 3 view .LVU101
 337              		.loc 1 250 12 is_stmt 0 view .LVU102
 338 0006 0020     		movs	r0, #0
 339              	.LVL22:
 340              		.loc 1 250 12 view .LVU103
 341 0008 ADF80600 		strh	r0, [sp, #6]	@ movhi
 251:Middlewares/ST/STM32_USB_Device_Library/Core/Src/usbd_core.c **** 
 252:Middlewares/ST/STM32_USB_Device_Library/Core/Src/usbd_core.c ****   if ((pdev->classId < USBD_MAX_SUPPORTED_CLASS) && (pdev->NumClasses < USBD_MAX_SUPPORTED_CLASS))
 342              		.loc 1 252 3 is_stmt 1 view .LVU104
 343              		.loc 1 252 12 is_stmt 0 view .LVU105
 344 000c D4F8F802 		ldr	r0, [r4, #760]
 345              		.loc 1 252 6 view .LVU106
 346 0010 0328     		cmp	r0, #3
 347 0012 1CD8     		bhi	.L24
 348              		.loc 1 252 50 discriminator 1 view .LVU107
 349 0014 D4F8FC52 		ldr	r5, [r4, #764]
 350 0018 032D     		cmp	r5, #3
 351 001a 18D8     		bhi	.L24
 253:Middlewares/ST/STM32_USB_Device_Library/Core/Src/usbd_core.c ****   {
 254:Middlewares/ST/STM32_USB_Device_Library/Core/Src/usbd_core.c ****     if ((uint32_t)pclass != 0U)
 352              		.loc 1 254 5 is_stmt 1 view .LVU108
 353              		.loc 1 254 8 is_stmt 0 view .LVU109
 354 001c 09B3     		cbz	r1, .L26
 255:Middlewares/ST/STM32_USB_Device_Library/Core/Src/usbd_core.c ****     {
 256:Middlewares/ST/STM32_USB_Device_Library/Core/Src/usbd_core.c ****       /* Link the class to the USB Device handle */
 257:Middlewares/ST/STM32_USB_Device_Library/Core/Src/usbd_core.c ****       pdev->pClass[pdev->classId] = pclass;
 355              		.loc 1 257 7 is_stmt 1 view .LVU110
 356              		.loc 1 257 35 is_stmt 0 view .LVU111
 357 001e 00F1AE0C 		add	ip, r0, #174
 358 0022 44F82C10 		str	r1, [r4, ip, lsl #2]
ARM GAS  C:\Users\ADMINI~1\AppData\Local\Temp\cczL7LlO.s 			page 12


 258:Middlewares/ST/STM32_USB_Device_Library/Core/Src/usbd_core.c ****       ret = USBD_OK;
 359              		.loc 1 258 7 is_stmt 1 view .LVU112
 259:Middlewares/ST/STM32_USB_Device_Library/Core/Src/usbd_core.c **** 
 260:Middlewares/ST/STM32_USB_Device_Library/Core/Src/usbd_core.c ****       pdev->tclasslist[pdev->classId].EpAdd = EpAddr;
 360              		.loc 1 260 7 view .LVU113
 361              		.loc 1 260 45 is_stmt 0 view .LVU114
 362 0026 C0EBC000 		rsb	r0, r0, r0, lsl #3
 363 002a 04EBC000 		add	r0, r4, r0, lsl #3
 364 002e C0F82433 		str	r3, [r0, #804]
 261:Middlewares/ST/STM32_USB_Device_Library/Core/Src/usbd_core.c **** 
 262:Middlewares/ST/STM32_USB_Device_Library/Core/Src/usbd_core.c ****       /* Call the composite class builder */
 263:Middlewares/ST/STM32_USB_Device_Library/Core/Src/usbd_core.c ****       (void)USBD_CMPSIT_AddClass(pdev, pclass, classtype, 0);
 365              		.loc 1 263 7 is_stmt 1 view .LVU115
 366 0032 0023     		movs	r3, #0
 367              	.LVL23:
 368              		.loc 1 263 7 is_stmt 0 view .LVU116
 369 0034 2046     		mov	r0, r4
 370              	.LVL24:
 371              		.loc 1 263 7 view .LVU117
 372 0036 FFF7FEFF 		bl	USBD_CMPSIT_AddClass
 373              	.LVL25:
 264:Middlewares/ST/STM32_USB_Device_Library/Core/Src/usbd_core.c **** 
 265:Middlewares/ST/STM32_USB_Device_Library/Core/Src/usbd_core.c ****       /* Increment the ClassId for the next occurrence */
 266:Middlewares/ST/STM32_USB_Device_Library/Core/Src/usbd_core.c ****       pdev->classId ++;
 374              		.loc 1 266 7 is_stmt 1 view .LVU118
 375              		.loc 1 266 11 is_stmt 0 view .LVU119
 376 003a D4F8F832 		ldr	r3, [r4, #760]
 377              		.loc 1 266 21 view .LVU120
 378 003e 0133     		adds	r3, r3, #1
 379 0040 C4F8F832 		str	r3, [r4, #760]
 267:Middlewares/ST/STM32_USB_Device_Library/Core/Src/usbd_core.c ****       pdev->NumClasses ++;
 380              		.loc 1 267 7 is_stmt 1 view .LVU121
 381              		.loc 1 267 11 is_stmt 0 view .LVU122
 382 0044 D4F8FC32 		ldr	r3, [r4, #764]
 383              		.loc 1 267 24 view .LVU123
 384 0048 0133     		adds	r3, r3, #1
 385 004a C4F8FC32 		str	r3, [r4, #764]
 268:Middlewares/ST/STM32_USB_Device_Library/Core/Src/usbd_core.c ****     }
 269:Middlewares/ST/STM32_USB_Device_Library/Core/Src/usbd_core.c ****     else
 270:Middlewares/ST/STM32_USB_Device_Library/Core/Src/usbd_core.c ****     {
 271:Middlewares/ST/STM32_USB_Device_Library/Core/Src/usbd_core.c **** #if (USBD_DEBUG_LEVEL > 1U)
 272:Middlewares/ST/STM32_USB_Device_Library/Core/Src/usbd_core.c ****       USBD_ErrLog("Invalid Class handle");
 273:Middlewares/ST/STM32_USB_Device_Library/Core/Src/usbd_core.c **** #endif /* (USBD_DEBUG_LEVEL > 1U) */
 274:Middlewares/ST/STM32_USB_Device_Library/Core/Src/usbd_core.c ****       ret = USBD_FAIL;
 275:Middlewares/ST/STM32_USB_Device_Library/Core/Src/usbd_core.c ****     }
 276:Middlewares/ST/STM32_USB_Device_Library/Core/Src/usbd_core.c ****   }
 277:Middlewares/ST/STM32_USB_Device_Library/Core/Src/usbd_core.c **** 
 278:Middlewares/ST/STM32_USB_Device_Library/Core/Src/usbd_core.c ****   if (ret == USBD_OK)
 386              		.loc 1 278 3 is_stmt 1 view .LVU124
 387              	.L24:
 388              	.LVL26:
 279:Middlewares/ST/STM32_USB_Device_Library/Core/Src/usbd_core.c ****   {
 280:Middlewares/ST/STM32_USB_Device_Library/Core/Src/usbd_core.c ****     /* Get Device Configuration Descriptor */
 281:Middlewares/ST/STM32_USB_Device_Library/Core/Src/usbd_core.c **** #ifdef USE_USB_HS
 282:Middlewares/ST/STM32_USB_Device_Library/Core/Src/usbd_core.c ****     pdev->pConfDesc = USBD_CMPSIT.GetHSConfigDescriptor(&len);
 283:Middlewares/ST/STM32_USB_Device_Library/Core/Src/usbd_core.c **** #else /* Default USE_USB_FS */
 284:Middlewares/ST/STM32_USB_Device_Library/Core/Src/usbd_core.c ****     pdev->pConfDesc = USBD_CMPSIT.GetFSConfigDescriptor(&len);
ARM GAS  C:\Users\ADMINI~1\AppData\Local\Temp\cczL7LlO.s 			page 13


 389              		.loc 1 284 5 view .LVU125
 390              		.loc 1 284 34 is_stmt 0 view .LVU126
 391 004e 064B     		ldr	r3, .L28
 392 0050 DB6A     		ldr	r3, [r3, #44]
 393              		.loc 1 284 23 view .LVU127
 394 0052 0DF10600 		add	r0, sp, #6
 395 0056 9847     		blx	r3
 396              	.LVL27:
 397              		.loc 1 284 21 view .LVU128
 398 0058 C4F8F402 		str	r0, [r4, #756]
 399 005c 0020     		movs	r0, #0
 400              	.L25:
 285:Middlewares/ST/STM32_USB_Device_Library/Core/Src/usbd_core.c **** #endif /* USE_USB_FS */
 286:Middlewares/ST/STM32_USB_Device_Library/Core/Src/usbd_core.c ****   }
 287:Middlewares/ST/STM32_USB_Device_Library/Core/Src/usbd_core.c **** 
 288:Middlewares/ST/STM32_USB_Device_Library/Core/Src/usbd_core.c ****   return ret;
 401              		.loc 1 288 3 is_stmt 1 view .LVU129
 289:Middlewares/ST/STM32_USB_Device_Library/Core/Src/usbd_core.c **** }
 402              		.loc 1 289 1 is_stmt 0 view .LVU130
 403 005e 03B0     		add	sp, sp, #12
 404              	.LCFI9:
 405              		.cfi_remember_state
 406              		.cfi_def_cfa_offset 12
 407              		@ sp needed
 408 0060 30BD     		pop	{r4, r5, pc}
 409              	.LVL28:
 410              	.L26:
 411              	.LCFI10:
 412              		.cfi_restore_state
 274:Middlewares/ST/STM32_USB_Device_Library/Core/Src/usbd_core.c ****     }
 413              		.loc 1 274 11 view .LVU131
 414 0062 0320     		movs	r0, #3
 415 0064 FBE7     		b	.L25
 416              	.L29:
 417 0066 00BF     		.align	2
 418              	.L28:
 419 0068 00000000 		.word	USBD_CMPSIT
 420              		.cfi_endproc
 421              	.LFE137:
 423              		.section	.text.USBD_UnRegisterClassComposite,"ax",%progbits
 424              		.align	1
 425              		.global	USBD_UnRegisterClassComposite
 426              		.syntax unified
 427              		.thumb
 428              		.thumb_func
 430              	USBD_UnRegisterClassComposite:
 431              	.LVL29:
 432              	.LFB138:
 290:Middlewares/ST/STM32_USB_Device_Library/Core/Src/usbd_core.c **** 
 291:Middlewares/ST/STM32_USB_Device_Library/Core/Src/usbd_core.c **** /**
 292:Middlewares/ST/STM32_USB_Device_Library/Core/Src/usbd_core.c ****   * @brief  USBD_UnRegisterClassComposite
 293:Middlewares/ST/STM32_USB_Device_Library/Core/Src/usbd_core.c ****   *         UnLink all composite class drivers from Device Core.
 294:Middlewares/ST/STM32_USB_Device_Library/Core/Src/usbd_core.c ****   * @param  pDevice : Device Handle
 295:Middlewares/ST/STM32_USB_Device_Library/Core/Src/usbd_core.c ****   * @retval USBD Status
 296:Middlewares/ST/STM32_USB_Device_Library/Core/Src/usbd_core.c ****   */
 297:Middlewares/ST/STM32_USB_Device_Library/Core/Src/usbd_core.c **** USBD_StatusTypeDef  USBD_UnRegisterClassComposite(USBD_HandleTypeDef *pdev)
 298:Middlewares/ST/STM32_USB_Device_Library/Core/Src/usbd_core.c **** {
ARM GAS  C:\Users\ADMINI~1\AppData\Local\Temp\cczL7LlO.s 			page 14


 433              		.loc 1 298 1 is_stmt 1 view -0
 434              		.cfi_startproc
 435              		@ args = 0, pretend = 0, frame = 0
 436              		@ frame_needed = 0, uses_anonymous_args = 0
 437              		.loc 1 298 1 is_stmt 0 view .LVU133
 438 0000 38B5     		push	{r3, r4, r5, lr}
 439              	.LCFI11:
 440              		.cfi_def_cfa_offset 16
 441              		.cfi_offset 3, -16
 442              		.cfi_offset 4, -12
 443              		.cfi_offset 5, -8
 444              		.cfi_offset 14, -4
 445 0002 0546     		mov	r5, r0
 299:Middlewares/ST/STM32_USB_Device_Library/Core/Src/usbd_core.c ****   USBD_StatusTypeDef   ret = USBD_FAIL;
 446              		.loc 1 299 3 is_stmt 1 view .LVU134
 447              	.LVL30:
 300:Middlewares/ST/STM32_USB_Device_Library/Core/Src/usbd_core.c ****   uint8_t idx1;
 448              		.loc 1 300 3 view .LVU135
 301:Middlewares/ST/STM32_USB_Device_Library/Core/Src/usbd_core.c ****   uint8_t idx2;
 449              		.loc 1 301 3 view .LVU136
 302:Middlewares/ST/STM32_USB_Device_Library/Core/Src/usbd_core.c **** 
 303:Middlewares/ST/STM32_USB_Device_Library/Core/Src/usbd_core.c ****   /* Unroll all activated classes */
 304:Middlewares/ST/STM32_USB_Device_Library/Core/Src/usbd_core.c ****   for (idx1 = 0; idx1 < pdev->NumClasses; idx1++)
 450              		.loc 1 304 3 view .LVU137
 451              		.loc 1 304 13 is_stmt 0 view .LVU138
 452 0004 0024     		movs	r4, #0
 453              		.loc 1 304 3 view .LVU139
 454 0006 20E0     		b	.L31
 455              	.LVL31:
 456              	.L35:
 305:Middlewares/ST/STM32_USB_Device_Library/Core/Src/usbd_core.c ****   {
 306:Middlewares/ST/STM32_USB_Device_Library/Core/Src/usbd_core.c ****     /* Check if the class correspond to the requested type and if it is active */
 307:Middlewares/ST/STM32_USB_Device_Library/Core/Src/usbd_core.c ****     if (pdev->tclasslist[idx1].Active == 1U)
 308:Middlewares/ST/STM32_USB_Device_Library/Core/Src/usbd_core.c ****     {
 309:Middlewares/ST/STM32_USB_Device_Library/Core/Src/usbd_core.c ****       /* Set the new class ID */
 310:Middlewares/ST/STM32_USB_Device_Library/Core/Src/usbd_core.c ****       pdev->classId = idx1;
 311:Middlewares/ST/STM32_USB_Device_Library/Core/Src/usbd_core.c **** 
 312:Middlewares/ST/STM32_USB_Device_Library/Core/Src/usbd_core.c ****       /* Free resources used by the selected class */
 313:Middlewares/ST/STM32_USB_Device_Library/Core/Src/usbd_core.c ****       if (pdev->pClass[pdev->classId] != NULL)
 314:Middlewares/ST/STM32_USB_Device_Library/Core/Src/usbd_core.c ****       {
 315:Middlewares/ST/STM32_USB_Device_Library/Core/Src/usbd_core.c ****         /* Free Class Resources */
 316:Middlewares/ST/STM32_USB_Device_Library/Core/Src/usbd_core.c ****         if (pdev->pClass[pdev->classId]->DeInit(pdev, (uint8_t)pdev->dev_config) != 0U)
 317:Middlewares/ST/STM32_USB_Device_Library/Core/Src/usbd_core.c ****         {
 318:Middlewares/ST/STM32_USB_Device_Library/Core/Src/usbd_core.c **** #if (USBD_DEBUG_LEVEL > 1U)
 319:Middlewares/ST/STM32_USB_Device_Library/Core/Src/usbd_core.c ****           USBD_ErrLog("Class DeInit didn't succeed!, can't unregister selected class");
 320:Middlewares/ST/STM32_USB_Device_Library/Core/Src/usbd_core.c **** #endif /* (USBD_DEBUG_LEVEL > 1U) */
 321:Middlewares/ST/STM32_USB_Device_Library/Core/Src/usbd_core.c **** 
 322:Middlewares/ST/STM32_USB_Device_Library/Core/Src/usbd_core.c ****           ret = USBD_FAIL;
 323:Middlewares/ST/STM32_USB_Device_Library/Core/Src/usbd_core.c ****         }
 324:Middlewares/ST/STM32_USB_Device_Library/Core/Src/usbd_core.c ****       }
 325:Middlewares/ST/STM32_USB_Device_Library/Core/Src/usbd_core.c **** 
 326:Middlewares/ST/STM32_USB_Device_Library/Core/Src/usbd_core.c ****       /* Free the class pointer */
 327:Middlewares/ST/STM32_USB_Device_Library/Core/Src/usbd_core.c ****       pdev->pClass[pdev->classId] = NULL;
 328:Middlewares/ST/STM32_USB_Device_Library/Core/Src/usbd_core.c **** 
 329:Middlewares/ST/STM32_USB_Device_Library/Core/Src/usbd_core.c ****       /* Free the class location in classes table and reset its parameters to zero */
 330:Middlewares/ST/STM32_USB_Device_Library/Core/Src/usbd_core.c ****       pdev->tclasslist[pdev->classId].ClassType = CLASS_TYPE_NONE;
 331:Middlewares/ST/STM32_USB_Device_Library/Core/Src/usbd_core.c ****       pdev->tclasslist[pdev->classId].ClassId = 0U;
ARM GAS  C:\Users\ADMINI~1\AppData\Local\Temp\cczL7LlO.s 			page 15


 332:Middlewares/ST/STM32_USB_Device_Library/Core/Src/usbd_core.c ****       pdev->tclasslist[pdev->classId].Active = 0U;
 333:Middlewares/ST/STM32_USB_Device_Library/Core/Src/usbd_core.c ****       pdev->tclasslist[pdev->classId].NumEps = 0U;
 334:Middlewares/ST/STM32_USB_Device_Library/Core/Src/usbd_core.c ****       pdev->tclasslist[pdev->classId].NumIf = 0U;
 335:Middlewares/ST/STM32_USB_Device_Library/Core/Src/usbd_core.c ****       pdev->tclasslist[pdev->classId].CurrPcktSze = 0U;
 336:Middlewares/ST/STM32_USB_Device_Library/Core/Src/usbd_core.c **** 
 337:Middlewares/ST/STM32_USB_Device_Library/Core/Src/usbd_core.c ****       for (idx2 = 0U; idx2 < USBD_MAX_CLASS_ENDPOINTS; idx2++)
 338:Middlewares/ST/STM32_USB_Device_Library/Core/Src/usbd_core.c ****       {
 339:Middlewares/ST/STM32_USB_Device_Library/Core/Src/usbd_core.c ****         pdev->tclasslist[pdev->classId].Eps[idx2].add = 0U;
 457              		.loc 1 339 9 is_stmt 1 discriminator 3 view .LVU140
 458              		.loc 1 339 55 is_stmt 0 discriminator 3 view .LVU141
 459 0008 C1EBC103 		rsb	r3, r1, r1, lsl #3
 460 000c 02EB4303 		add	r3, r2, r3, lsl #1
 461 0010 C433     		adds	r3, r3, #196
 462 0012 0020     		movs	r0, #0
 463 0014 05F82300 		strb	r0, [r5, r3, lsl #2]
 340:Middlewares/ST/STM32_USB_Device_Library/Core/Src/usbd_core.c ****         pdev->tclasslist[pdev->classId].Eps[idx2].type = 0U;
 464              		.loc 1 340 9 is_stmt 1 discriminator 3 view .LVU142
 465              		.loc 1 340 56 is_stmt 0 discriminator 3 view .LVU143
 466 0018 05EB8303 		add	r3, r5, r3, lsl #2
 467 001c 5870     		strb	r0, [r3, #1]
 341:Middlewares/ST/STM32_USB_Device_Library/Core/Src/usbd_core.c ****         pdev->tclasslist[pdev->classId].Eps[idx2].size = 0U;
 468              		.loc 1 341 9 is_stmt 1 discriminator 3 view .LVU144
 469              		.loc 1 341 56 is_stmt 0 discriminator 3 view .LVU145
 470 001e 9870     		strb	r0, [r3, #2]
 342:Middlewares/ST/STM32_USB_Device_Library/Core/Src/usbd_core.c ****         pdev->tclasslist[pdev->classId].Eps[idx2].is_used = 0U;
 471              		.loc 1 342 9 is_stmt 1 discriminator 3 view .LVU146
 472              		.loc 1 342 59 is_stmt 0 discriminator 3 view .LVU147
 473 0020 D870     		strb	r0, [r3, #3]
 337:Middlewares/ST/STM32_USB_Device_Library/Core/Src/usbd_core.c ****       {
 474              		.loc 1 337 56 is_stmt 1 discriminator 3 view .LVU148
 337:Middlewares/ST/STM32_USB_Device_Library/Core/Src/usbd_core.c ****       {
 475              		.loc 1 337 60 is_stmt 0 discriminator 3 view .LVU149
 476 0022 0132     		adds	r2, r2, #1
 477              	.LVL32:
 337:Middlewares/ST/STM32_USB_Device_Library/Core/Src/usbd_core.c ****       {
 478              		.loc 1 337 60 discriminator 3 view .LVU150
 479 0024 D2B2     		uxtb	r2, r2
 480              	.LVL33:
 481              	.L34:
 337:Middlewares/ST/STM32_USB_Device_Library/Core/Src/usbd_core.c ****       {
 482              		.loc 1 337 23 is_stmt 1 discriminator 1 view .LVU151
 337:Middlewares/ST/STM32_USB_Device_Library/Core/Src/usbd_core.c ****       {
 483              		.loc 1 337 7 is_stmt 0 discriminator 1 view .LVU152
 484 0026 042A     		cmp	r2, #4
 485 0028 EED9     		bls	.L35
 343:Middlewares/ST/STM32_USB_Device_Library/Core/Src/usbd_core.c ****       }
 344:Middlewares/ST/STM32_USB_Device_Library/Core/Src/usbd_core.c **** 
 345:Middlewares/ST/STM32_USB_Device_Library/Core/Src/usbd_core.c ****       for (idx2 = 0U; idx2 < USBD_MAX_CLASS_INTERFACES; idx2++)
 486              		.loc 1 345 17 view .LVU153
 487 002a 0023     		movs	r3, #0
 488 002c 09E0     		b	.L36
 489              	.LVL34:
 490              	.L37:
 346:Middlewares/ST/STM32_USB_Device_Library/Core/Src/usbd_core.c ****       {
 347:Middlewares/ST/STM32_USB_Device_Library/Core/Src/usbd_core.c ****         pdev->tclasslist[pdev->classId].Ifs[idx2] = 0U;
 491              		.loc 1 347 9 is_stmt 1 discriminator 3 view .LVU154
 492              		.loc 1 347 51 is_stmt 0 discriminator 3 view .LVU155
ARM GAS  C:\Users\ADMINI~1\AppData\Local\Temp\cczL7LlO.s 			page 16


 493 002e C1EBC102 		rsb	r2, r1, r1, lsl #3
 494 0032 05EBC202 		add	r2, r5, r2, lsl #3
 495 0036 1A44     		add	r2, r2, r3
 496 0038 0020     		movs	r0, #0
 497 003a 82F82C03 		strb	r0, [r2, #812]
 345:Middlewares/ST/STM32_USB_Device_Library/Core/Src/usbd_core.c ****       {
 498              		.loc 1 345 57 is_stmt 1 discriminator 3 view .LVU156
 345:Middlewares/ST/STM32_USB_Device_Library/Core/Src/usbd_core.c ****       {
 499              		.loc 1 345 61 is_stmt 0 discriminator 3 view .LVU157
 500 003e 0133     		adds	r3, r3, #1
 501              	.LVL35:
 345:Middlewares/ST/STM32_USB_Device_Library/Core/Src/usbd_core.c ****       {
 502              		.loc 1 345 61 discriminator 3 view .LVU158
 503 0040 DBB2     		uxtb	r3, r3
 504              	.LVL36:
 505              	.L36:
 345:Middlewares/ST/STM32_USB_Device_Library/Core/Src/usbd_core.c ****       {
 506              		.loc 1 345 23 is_stmt 1 discriminator 1 view .LVU159
 345:Middlewares/ST/STM32_USB_Device_Library/Core/Src/usbd_core.c ****       {
 507              		.loc 1 345 7 is_stmt 0 discriminator 1 view .LVU160
 508 0042 042B     		cmp	r3, #4
 509 0044 F3D9     		bls	.L37
 510              	.LVL37:
 511              	.L32:
 304:Middlewares/ST/STM32_USB_Device_Library/Core/Src/usbd_core.c ****   {
 512              		.loc 1 304 43 is_stmt 1 discriminator 2 view .LVU161
 304:Middlewares/ST/STM32_USB_Device_Library/Core/Src/usbd_core.c ****   {
 513              		.loc 1 304 47 is_stmt 0 discriminator 2 view .LVU162
 514 0046 0134     		adds	r4, r4, #1
 515              	.LVL38:
 304:Middlewares/ST/STM32_USB_Device_Library/Core/Src/usbd_core.c ****   {
 516              		.loc 1 304 47 discriminator 2 view .LVU163
 517 0048 E4B2     		uxtb	r4, r4
 518              	.LVL39:
 519              	.L31:
 304:Middlewares/ST/STM32_USB_Device_Library/Core/Src/usbd_core.c ****   {
 520              		.loc 1 304 18 is_stmt 1 discriminator 1 view .LVU164
 304:Middlewares/ST/STM32_USB_Device_Library/Core/Src/usbd_core.c ****   {
 521              		.loc 1 304 23 is_stmt 0 discriminator 1 view .LVU165
 522 004a 2246     		mov	r2, r4
 304:Middlewares/ST/STM32_USB_Device_Library/Core/Src/usbd_core.c ****   {
 523              		.loc 1 304 29 discriminator 1 view .LVU166
 524 004c D5F8FC32 		ldr	r3, [r5, #764]
 304:Middlewares/ST/STM32_USB_Device_Library/Core/Src/usbd_core.c ****   {
 525              		.loc 1 304 3 discriminator 1 view .LVU167
 526 0050 9C42     		cmp	r4, r3
 527 0052 29D2     		bcs	.L40
 307:Middlewares/ST/STM32_USB_Device_Library/Core/Src/usbd_core.c ****     {
 528              		.loc 1 307 5 is_stmt 1 view .LVU168
 307:Middlewares/ST/STM32_USB_Device_Library/Core/Src/usbd_core.c ****     {
 529              		.loc 1 307 31 is_stmt 0 view .LVU169
 530 0054 C4EBC403 		rsb	r3, r4, r4, lsl #3
 531 0058 05EBC303 		add	r3, r5, r3, lsl #3
 532 005c D3F80833 		ldr	r3, [r3, #776]
 307:Middlewares/ST/STM32_USB_Device_Library/Core/Src/usbd_core.c ****     {
 533              		.loc 1 307 8 view .LVU170
 534 0060 012B     		cmp	r3, #1
ARM GAS  C:\Users\ADMINI~1\AppData\Local\Temp\cczL7LlO.s 			page 17


 535 0062 F0D1     		bne	.L32
 310:Middlewares/ST/STM32_USB_Device_Library/Core/Src/usbd_core.c **** 
 536              		.loc 1 310 7 is_stmt 1 view .LVU171
 310:Middlewares/ST/STM32_USB_Device_Library/Core/Src/usbd_core.c **** 
 537              		.loc 1 310 21 is_stmt 0 view .LVU172
 538 0064 C5F8F822 		str	r2, [r5, #760]
 313:Middlewares/ST/STM32_USB_Device_Library/Core/Src/usbd_core.c ****       {
 539              		.loc 1 313 7 is_stmt 1 view .LVU173
 313:Middlewares/ST/STM32_USB_Device_Library/Core/Src/usbd_core.c ****       {
 540              		.loc 1 313 23 is_stmt 0 view .LVU174
 541 0068 AE32     		adds	r2, r2, #174
 542 006a 55F82230 		ldr	r3, [r5, r2, lsl #2]
 313:Middlewares/ST/STM32_USB_Device_Library/Core/Src/usbd_core.c ****       {
 543              		.loc 1 313 10 view .LVU175
 544 006e 1BB1     		cbz	r3, .L33
 316:Middlewares/ST/STM32_USB_Device_Library/Core/Src/usbd_core.c ****         {
 545              		.loc 1 316 9 is_stmt 1 view .LVU176
 316:Middlewares/ST/STM32_USB_Device_Library/Core/Src/usbd_core.c ****         {
 546              		.loc 1 316 40 is_stmt 0 view .LVU177
 547 0070 5B68     		ldr	r3, [r3, #4]
 316:Middlewares/ST/STM32_USB_Device_Library/Core/Src/usbd_core.c ****         {
 548              		.loc 1 316 13 view .LVU178
 549 0072 2979     		ldrb	r1, [r5, #4]	@ zero_extendqisi2
 550 0074 2846     		mov	r0, r5
 551 0076 9847     		blx	r3
 552              	.LVL40:
 553              	.L33:
 327:Middlewares/ST/STM32_USB_Device_Library/Core/Src/usbd_core.c **** 
 554              		.loc 1 327 7 is_stmt 1 view .LVU179
 327:Middlewares/ST/STM32_USB_Device_Library/Core/Src/usbd_core.c **** 
 555              		.loc 1 327 24 is_stmt 0 view .LVU180
 556 0078 D5F8F812 		ldr	r1, [r5, #760]
 327:Middlewares/ST/STM32_USB_Device_Library/Core/Src/usbd_core.c **** 
 557              		.loc 1 327 35 view .LVU181
 558 007c 01F1AE03 		add	r3, r1, #174
 559 0080 0022     		movs	r2, #0
 560 0082 45F82320 		str	r2, [r5, r3, lsl #2]
 330:Middlewares/ST/STM32_USB_Device_Library/Core/Src/usbd_core.c ****       pdev->tclasslist[pdev->classId].ClassId = 0U;
 561              		.loc 1 330 7 is_stmt 1 view .LVU182
 330:Middlewares/ST/STM32_USB_Device_Library/Core/Src/usbd_core.c ****       pdev->tclasslist[pdev->classId].ClassId = 0U;
 562              		.loc 1 330 49 is_stmt 0 view .LVU183
 563 0086 C1EBC103 		rsb	r3, r1, r1, lsl #3
 564 008a 05EBC303 		add	r3, r5, r3, lsl #3
 565 008e 83F80023 		strb	r2, [r3, #768]
 331:Middlewares/ST/STM32_USB_Device_Library/Core/Src/usbd_core.c ****       pdev->tclasslist[pdev->classId].Active = 0U;
 566              		.loc 1 331 7 is_stmt 1 view .LVU184
 331:Middlewares/ST/STM32_USB_Device_Library/Core/Src/usbd_core.c ****       pdev->tclasslist[pdev->classId].Active = 0U;
 567              		.loc 1 331 47 is_stmt 0 view .LVU185
 568 0092 C3F80423 		str	r2, [r3, #772]
 332:Middlewares/ST/STM32_USB_Device_Library/Core/Src/usbd_core.c ****       pdev->tclasslist[pdev->classId].NumEps = 0U;
 569              		.loc 1 332 7 is_stmt 1 view .LVU186
 332:Middlewares/ST/STM32_USB_Device_Library/Core/Src/usbd_core.c ****       pdev->tclasslist[pdev->classId].NumEps = 0U;
 570              		.loc 1 332 46 is_stmt 0 view .LVU187
 571 0096 C3F80823 		str	r2, [r3, #776]
 333:Middlewares/ST/STM32_USB_Device_Library/Core/Src/usbd_core.c ****       pdev->tclasslist[pdev->classId].NumIf = 0U;
 572              		.loc 1 333 7 is_stmt 1 view .LVU188
 333:Middlewares/ST/STM32_USB_Device_Library/Core/Src/usbd_core.c ****       pdev->tclasslist[pdev->classId].NumIf = 0U;
ARM GAS  C:\Users\ADMINI~1\AppData\Local\Temp\cczL7LlO.s 			page 18


 573              		.loc 1 333 46 is_stmt 0 view .LVU189
 574 009a C3F80C23 		str	r2, [r3, #780]
 334:Middlewares/ST/STM32_USB_Device_Library/Core/Src/usbd_core.c ****       pdev->tclasslist[pdev->classId].CurrPcktSze = 0U;
 575              		.loc 1 334 7 is_stmt 1 view .LVU190
 334:Middlewares/ST/STM32_USB_Device_Library/Core/Src/usbd_core.c ****       pdev->tclasslist[pdev->classId].CurrPcktSze = 0U;
 576              		.loc 1 334 45 is_stmt 0 view .LVU191
 577 009e C3F82823 		str	r2, [r3, #808]
 335:Middlewares/ST/STM32_USB_Device_Library/Core/Src/usbd_core.c **** 
 578              		.loc 1 335 7 is_stmt 1 view .LVU192
 335:Middlewares/ST/STM32_USB_Device_Library/Core/Src/usbd_core.c **** 
 579              		.loc 1 335 51 is_stmt 0 view .LVU193
 580 00a2 C3F83423 		str	r2, [r3, #820]
 337:Middlewares/ST/STM32_USB_Device_Library/Core/Src/usbd_core.c ****       {
 581              		.loc 1 337 7 is_stmt 1 view .LVU194
 582              	.LVL41:
 337:Middlewares/ST/STM32_USB_Device_Library/Core/Src/usbd_core.c ****       {
 583              		.loc 1 337 7 is_stmt 0 view .LVU195
 584 00a6 BEE7     		b	.L34
 585              	.LVL42:
 586              	.L40:
 348:Middlewares/ST/STM32_USB_Device_Library/Core/Src/usbd_core.c ****       }
 349:Middlewares/ST/STM32_USB_Device_Library/Core/Src/usbd_core.c ****     }
 350:Middlewares/ST/STM32_USB_Device_Library/Core/Src/usbd_core.c ****   }
 351:Middlewares/ST/STM32_USB_Device_Library/Core/Src/usbd_core.c **** 
 352:Middlewares/ST/STM32_USB_Device_Library/Core/Src/usbd_core.c ****   /* Reset the configuration descriptor */
 353:Middlewares/ST/STM32_USB_Device_Library/Core/Src/usbd_core.c ****   (void)USBD_CMPST_ClearConfDesc(pdev);
 587              		.loc 1 353 3 is_stmt 1 view .LVU196
 588              		.loc 1 353 9 is_stmt 0 view .LVU197
 589 00a8 2846     		mov	r0, r5
 590 00aa FFF7FEFF 		bl	USBD_CMPST_ClearConfDesc
 591              	.LVL43:
 354:Middlewares/ST/STM32_USB_Device_Library/Core/Src/usbd_core.c **** 
 355:Middlewares/ST/STM32_USB_Device_Library/Core/Src/usbd_core.c ****   /* Reset the class ID and number of classes */
 356:Middlewares/ST/STM32_USB_Device_Library/Core/Src/usbd_core.c ****   pdev->classId = 0U;
 592              		.loc 1 356 3 is_stmt 1 view .LVU198
 593              		.loc 1 356 17 is_stmt 0 view .LVU199
 594 00ae 0023     		movs	r3, #0
 595 00b0 C5F8F832 		str	r3, [r5, #760]
 357:Middlewares/ST/STM32_USB_Device_Library/Core/Src/usbd_core.c ****   pdev->NumClasses = 0U;
 596              		.loc 1 357 3 is_stmt 1 view .LVU200
 597              		.loc 1 357 20 is_stmt 0 view .LVU201
 598 00b4 C5F8FC32 		str	r3, [r5, #764]
 358:Middlewares/ST/STM32_USB_Device_Library/Core/Src/usbd_core.c **** 
 359:Middlewares/ST/STM32_USB_Device_Library/Core/Src/usbd_core.c ****   return ret;
 599              		.loc 1 359 3 is_stmt 1 view .LVU202
 360:Middlewares/ST/STM32_USB_Device_Library/Core/Src/usbd_core.c **** }
 600              		.loc 1 360 1 is_stmt 0 view .LVU203
 601 00b8 0320     		movs	r0, #3
 602 00ba 38BD     		pop	{r3, r4, r5, pc}
 603              		.loc 1 360 1 view .LVU204
 604              		.cfi_endproc
 605              	.LFE138:
 607              		.section	.text.USBD_Start,"ax",%progbits
 608              		.align	1
 609              		.global	USBD_Start
 610              		.syntax unified
 611              		.thumb
ARM GAS  C:\Users\ADMINI~1\AppData\Local\Temp\cczL7LlO.s 			page 19


 612              		.thumb_func
 614              	USBD_Start:
 615              	.LVL44:
 616              	.LFB139:
 361:Middlewares/ST/STM32_USB_Device_Library/Core/Src/usbd_core.c **** 
 362:Middlewares/ST/STM32_USB_Device_Library/Core/Src/usbd_core.c **** 
 363:Middlewares/ST/STM32_USB_Device_Library/Core/Src/usbd_core.c **** #endif /* USE_USBD_COMPOSITE */
 364:Middlewares/ST/STM32_USB_Device_Library/Core/Src/usbd_core.c **** 
 365:Middlewares/ST/STM32_USB_Device_Library/Core/Src/usbd_core.c **** /**
 366:Middlewares/ST/STM32_USB_Device_Library/Core/Src/usbd_core.c ****   * @brief  USBD_Start
 367:Middlewares/ST/STM32_USB_Device_Library/Core/Src/usbd_core.c ****   *         Start the USB Device Core.
 368:Middlewares/ST/STM32_USB_Device_Library/Core/Src/usbd_core.c ****   * @param  pdev: Device Handle
 369:Middlewares/ST/STM32_USB_Device_Library/Core/Src/usbd_core.c ****   * @retval USBD Status
 370:Middlewares/ST/STM32_USB_Device_Library/Core/Src/usbd_core.c ****   */
 371:Middlewares/ST/STM32_USB_Device_Library/Core/Src/usbd_core.c **** USBD_StatusTypeDef USBD_Start(USBD_HandleTypeDef *pdev)
 372:Middlewares/ST/STM32_USB_Device_Library/Core/Src/usbd_core.c **** {
 617              		.loc 1 372 1 is_stmt 1 view -0
 618              		.cfi_startproc
 619              		@ args = 0, pretend = 0, frame = 0
 620              		@ frame_needed = 0, uses_anonymous_args = 0
 621              		.loc 1 372 1 is_stmt 0 view .LVU206
 622 0000 08B5     		push	{r3, lr}
 623              	.LCFI12:
 624              		.cfi_def_cfa_offset 8
 625              		.cfi_offset 3, -8
 626              		.cfi_offset 14, -4
 373:Middlewares/ST/STM32_USB_Device_Library/Core/Src/usbd_core.c **** #ifdef USE_USBD_COMPOSITE
 374:Middlewares/ST/STM32_USB_Device_Library/Core/Src/usbd_core.c ****   pdev->classId = 0U;
 627              		.loc 1 374 3 is_stmt 1 view .LVU207
 628              		.loc 1 374 17 is_stmt 0 view .LVU208
 629 0002 0022     		movs	r2, #0
 630 0004 C0F8F822 		str	r2, [r0, #760]
 375:Middlewares/ST/STM32_USB_Device_Library/Core/Src/usbd_core.c **** #endif /* USE_USBD_COMPOSITE */
 376:Middlewares/ST/STM32_USB_Device_Library/Core/Src/usbd_core.c **** 
 377:Middlewares/ST/STM32_USB_Device_Library/Core/Src/usbd_core.c ****   /* Start the low level driver  */
 378:Middlewares/ST/STM32_USB_Device_Library/Core/Src/usbd_core.c ****   return USBD_LL_Start(pdev);
 631              		.loc 1 378 3 is_stmt 1 view .LVU209
 632              		.loc 1 378 10 is_stmt 0 view .LVU210
 633 0008 FFF7FEFF 		bl	USBD_LL_Start
 634              	.LVL45:
 379:Middlewares/ST/STM32_USB_Device_Library/Core/Src/usbd_core.c **** }
 635              		.loc 1 379 1 view .LVU211
 636 000c 08BD     		pop	{r3, pc}
 637              		.cfi_endproc
 638              	.LFE139:
 640              		.section	.text.USBD_Stop,"ax",%progbits
 641              		.align	1
 642              		.global	USBD_Stop
 643              		.syntax unified
 644              		.thumb
 645              		.thumb_func
 647              	USBD_Stop:
 648              	.LVL46:
 649              	.LFB140:
 380:Middlewares/ST/STM32_USB_Device_Library/Core/Src/usbd_core.c **** 
 381:Middlewares/ST/STM32_USB_Device_Library/Core/Src/usbd_core.c **** /**
 382:Middlewares/ST/STM32_USB_Device_Library/Core/Src/usbd_core.c ****   * @brief  USBD_Stop
ARM GAS  C:\Users\ADMINI~1\AppData\Local\Temp\cczL7LlO.s 			page 20


 383:Middlewares/ST/STM32_USB_Device_Library/Core/Src/usbd_core.c ****   *         Stop the USB Device Core.
 384:Middlewares/ST/STM32_USB_Device_Library/Core/Src/usbd_core.c ****   * @param  pdev: Device Handle
 385:Middlewares/ST/STM32_USB_Device_Library/Core/Src/usbd_core.c ****   * @retval USBD Status
 386:Middlewares/ST/STM32_USB_Device_Library/Core/Src/usbd_core.c ****   */
 387:Middlewares/ST/STM32_USB_Device_Library/Core/Src/usbd_core.c **** USBD_StatusTypeDef USBD_Stop(USBD_HandleTypeDef *pdev)
 388:Middlewares/ST/STM32_USB_Device_Library/Core/Src/usbd_core.c **** {
 650              		.loc 1 388 1 is_stmt 1 view -0
 651              		.cfi_startproc
 652              		@ args = 0, pretend = 0, frame = 0
 653              		@ frame_needed = 0, uses_anonymous_args = 0
 654              		.loc 1 388 1 is_stmt 0 view .LVU213
 655 0000 38B5     		push	{r3, r4, r5, lr}
 656              	.LCFI13:
 657              		.cfi_def_cfa_offset 16
 658              		.cfi_offset 3, -16
 659              		.cfi_offset 4, -12
 660              		.cfi_offset 5, -8
 661              		.cfi_offset 14, -4
 662 0002 0546     		mov	r5, r0
 389:Middlewares/ST/STM32_USB_Device_Library/Core/Src/usbd_core.c ****   /* Disconnect USB Device */
 390:Middlewares/ST/STM32_USB_Device_Library/Core/Src/usbd_core.c ****   (void)USBD_LL_Stop(pdev);
 663              		.loc 1 390 3 is_stmt 1 view .LVU214
 664              		.loc 1 390 9 is_stmt 0 view .LVU215
 665 0004 FFF7FEFF 		bl	USBD_LL_Stop
 666              	.LVL47:
 391:Middlewares/ST/STM32_USB_Device_Library/Core/Src/usbd_core.c **** 
 392:Middlewares/ST/STM32_USB_Device_Library/Core/Src/usbd_core.c ****   /* Free Class Resources */
 393:Middlewares/ST/STM32_USB_Device_Library/Core/Src/usbd_core.c **** #ifdef USE_USBD_COMPOSITE
 394:Middlewares/ST/STM32_USB_Device_Library/Core/Src/usbd_core.c ****   /* Parse the table of classes in use */
 395:Middlewares/ST/STM32_USB_Device_Library/Core/Src/usbd_core.c ****   for (uint32_t i = 0U; i < USBD_MAX_SUPPORTED_CLASS; i++)
 667              		.loc 1 395 3 is_stmt 1 view .LVU216
 668              	.LBB4:
 669              		.loc 1 395 8 view .LVU217
 670              		.loc 1 395 17 is_stmt 0 view .LVU218
 671 0008 0024     		movs	r4, #0
 672              		.loc 1 395 3 view .LVU219
 673 000a 06E0     		b	.L44
 674              	.LVL48:
 675              	.L49:
 396:Middlewares/ST/STM32_USB_Device_Library/Core/Src/usbd_core.c ****   {
 397:Middlewares/ST/STM32_USB_Device_Library/Core/Src/usbd_core.c ****     /* Check if current class is in use */
 398:Middlewares/ST/STM32_USB_Device_Library/Core/Src/usbd_core.c ****     if ((pdev->tclasslist[i].Active) == 1U)
 399:Middlewares/ST/STM32_USB_Device_Library/Core/Src/usbd_core.c ****     {
 400:Middlewares/ST/STM32_USB_Device_Library/Core/Src/usbd_core.c ****       if (pdev->pClass[i] != NULL)
 401:Middlewares/ST/STM32_USB_Device_Library/Core/Src/usbd_core.c ****       {
 402:Middlewares/ST/STM32_USB_Device_Library/Core/Src/usbd_core.c ****         pdev->classId = i;
 676              		.loc 1 402 9 is_stmt 1 view .LVU220
 677              		.loc 1 402 23 is_stmt 0 view .LVU221
 678 000c C5F8F842 		str	r4, [r5, #760]
 403:Middlewares/ST/STM32_USB_Device_Library/Core/Src/usbd_core.c ****         /* Free Class Resources */
 404:Middlewares/ST/STM32_USB_Device_Library/Core/Src/usbd_core.c ****         (void)pdev->pClass[i]->DeInit(pdev, (uint8_t)pdev->dev_config);
 679              		.loc 1 404 9 is_stmt 1 view .LVU222
 680              		.loc 1 404 30 is_stmt 0 view .LVU223
 681 0010 5B68     		ldr	r3, [r3, #4]
 682              		.loc 1 404 15 view .LVU224
 683 0012 2979     		ldrb	r1, [r5, #4]	@ zero_extendqisi2
 684 0014 2846     		mov	r0, r5
ARM GAS  C:\Users\ADMINI~1\AppData\Local\Temp\cczL7LlO.s 			page 21


 685 0016 9847     		blx	r3
 686              	.LVL49:
 687              	.L45:
 395:Middlewares/ST/STM32_USB_Device_Library/Core/Src/usbd_core.c ****   {
 688              		.loc 1 395 55 is_stmt 1 discriminator 2 view .LVU225
 395:Middlewares/ST/STM32_USB_Device_Library/Core/Src/usbd_core.c ****   {
 689              		.loc 1 395 56 is_stmt 0 discriminator 2 view .LVU226
 690 0018 0134     		adds	r4, r4, #1
 691              	.LVL50:
 692              	.L44:
 395:Middlewares/ST/STM32_USB_Device_Library/Core/Src/usbd_core.c ****   {
 693              		.loc 1 395 25 is_stmt 1 discriminator 1 view .LVU227
 395:Middlewares/ST/STM32_USB_Device_Library/Core/Src/usbd_core.c ****   {
 694              		.loc 1 395 3 is_stmt 0 discriminator 1 view .LVU228
 695 001a 032C     		cmp	r4, #3
 696 001c 0ED8     		bhi	.L48
 398:Middlewares/ST/STM32_USB_Device_Library/Core/Src/usbd_core.c ****     {
 697              		.loc 1 398 5 is_stmt 1 view .LVU229
 398:Middlewares/ST/STM32_USB_Device_Library/Core/Src/usbd_core.c ****     {
 698              		.loc 1 398 29 is_stmt 0 view .LVU230
 699 001e C4EBC403 		rsb	r3, r4, r4, lsl #3
 700 0022 05EBC303 		add	r3, r5, r3, lsl #3
 701 0026 D3F80833 		ldr	r3, [r3, #776]
 398:Middlewares/ST/STM32_USB_Device_Library/Core/Src/usbd_core.c ****     {
 702              		.loc 1 398 8 view .LVU231
 703 002a 012B     		cmp	r3, #1
 704 002c F4D1     		bne	.L45
 400:Middlewares/ST/STM32_USB_Device_Library/Core/Src/usbd_core.c ****       {
 705              		.loc 1 400 7 is_stmt 1 view .LVU232
 400:Middlewares/ST/STM32_USB_Device_Library/Core/Src/usbd_core.c ****       {
 706              		.loc 1 400 23 is_stmt 0 view .LVU233
 707 002e 04F1AE03 		add	r3, r4, #174
 708 0032 55F82330 		ldr	r3, [r5, r3, lsl #2]
 400:Middlewares/ST/STM32_USB_Device_Library/Core/Src/usbd_core.c ****       {
 709              		.loc 1 400 10 view .LVU234
 710 0036 002B     		cmp	r3, #0
 711 0038 E8D1     		bne	.L49
 712 003a EDE7     		b	.L45
 713              	.L48:
 400:Middlewares/ST/STM32_USB_Device_Library/Core/Src/usbd_core.c ****       {
 714              		.loc 1 400 10 view .LVU235
 715              	.LBE4:
 405:Middlewares/ST/STM32_USB_Device_Library/Core/Src/usbd_core.c ****       }
 406:Middlewares/ST/STM32_USB_Device_Library/Core/Src/usbd_core.c ****     }
 407:Middlewares/ST/STM32_USB_Device_Library/Core/Src/usbd_core.c ****   }
 408:Middlewares/ST/STM32_USB_Device_Library/Core/Src/usbd_core.c **** 
 409:Middlewares/ST/STM32_USB_Device_Library/Core/Src/usbd_core.c ****   /* Reset the class ID */
 410:Middlewares/ST/STM32_USB_Device_Library/Core/Src/usbd_core.c ****   pdev->classId = 0U;
 716              		.loc 1 410 3 is_stmt 1 view .LVU236
 717              		.loc 1 410 17 is_stmt 0 view .LVU237
 718 003c 0020     		movs	r0, #0
 719 003e C5F8F802 		str	r0, [r5, #760]
 411:Middlewares/ST/STM32_USB_Device_Library/Core/Src/usbd_core.c **** #else
 412:Middlewares/ST/STM32_USB_Device_Library/Core/Src/usbd_core.c ****   if (pdev->pClass[0] != NULL)
 413:Middlewares/ST/STM32_USB_Device_Library/Core/Src/usbd_core.c ****   {
 414:Middlewares/ST/STM32_USB_Device_Library/Core/Src/usbd_core.c ****     (void)pdev->pClass[0]->DeInit(pdev, (uint8_t)pdev->dev_config);
 415:Middlewares/ST/STM32_USB_Device_Library/Core/Src/usbd_core.c ****   }
ARM GAS  C:\Users\ADMINI~1\AppData\Local\Temp\cczL7LlO.s 			page 22


 416:Middlewares/ST/STM32_USB_Device_Library/Core/Src/usbd_core.c **** #endif /* USE_USBD_COMPOSITE */
 417:Middlewares/ST/STM32_USB_Device_Library/Core/Src/usbd_core.c **** 
 418:Middlewares/ST/STM32_USB_Device_Library/Core/Src/usbd_core.c ****   return USBD_OK;
 720              		.loc 1 418 3 is_stmt 1 view .LVU238
 419:Middlewares/ST/STM32_USB_Device_Library/Core/Src/usbd_core.c **** }
 721              		.loc 1 419 1 is_stmt 0 view .LVU239
 722 0042 38BD     		pop	{r3, r4, r5, pc}
 723              		.loc 1 419 1 view .LVU240
 724              		.cfi_endproc
 725              	.LFE140:
 727              		.section	.text.USBD_RunTestMode,"ax",%progbits
 728              		.align	1
 729              		.global	USBD_RunTestMode
 730              		.syntax unified
 731              		.thumb
 732              		.thumb_func
 734              	USBD_RunTestMode:
 735              	.LVL51:
 736              	.LFB141:
 420:Middlewares/ST/STM32_USB_Device_Library/Core/Src/usbd_core.c **** 
 421:Middlewares/ST/STM32_USB_Device_Library/Core/Src/usbd_core.c **** /**
 422:Middlewares/ST/STM32_USB_Device_Library/Core/Src/usbd_core.c ****   * @brief  USBD_RunTestMode
 423:Middlewares/ST/STM32_USB_Device_Library/Core/Src/usbd_core.c ****   *         Launch test mode process
 424:Middlewares/ST/STM32_USB_Device_Library/Core/Src/usbd_core.c ****   * @param  pdev: device instance
 425:Middlewares/ST/STM32_USB_Device_Library/Core/Src/usbd_core.c ****   * @retval status
 426:Middlewares/ST/STM32_USB_Device_Library/Core/Src/usbd_core.c ****   */
 427:Middlewares/ST/STM32_USB_Device_Library/Core/Src/usbd_core.c **** USBD_StatusTypeDef USBD_RunTestMode(USBD_HandleTypeDef *pdev)
 428:Middlewares/ST/STM32_USB_Device_Library/Core/Src/usbd_core.c **** {
 737              		.loc 1 428 1 is_stmt 1 view -0
 738              		.cfi_startproc
 739              		@ args = 0, pretend = 0, frame = 0
 740              		@ frame_needed = 0, uses_anonymous_args = 0
 741              		@ link register save eliminated.
 429:Middlewares/ST/STM32_USB_Device_Library/Core/Src/usbd_core.c **** #ifdef USBD_HS_TESTMODE_ENABLE
 430:Middlewares/ST/STM32_USB_Device_Library/Core/Src/usbd_core.c ****   USBD_StatusTypeDef ret;
 431:Middlewares/ST/STM32_USB_Device_Library/Core/Src/usbd_core.c **** 
 432:Middlewares/ST/STM32_USB_Device_Library/Core/Src/usbd_core.c ****   /* Run USB HS test mode */
 433:Middlewares/ST/STM32_USB_Device_Library/Core/Src/usbd_core.c ****   ret = USBD_LL_SetTestMode(pdev, pdev->dev_test_mode);
 434:Middlewares/ST/STM32_USB_Device_Library/Core/Src/usbd_core.c **** 
 435:Middlewares/ST/STM32_USB_Device_Library/Core/Src/usbd_core.c ****   return ret;
 436:Middlewares/ST/STM32_USB_Device_Library/Core/Src/usbd_core.c **** #else
 437:Middlewares/ST/STM32_USB_Device_Library/Core/Src/usbd_core.c ****   /* Prevent unused argument compilation warning */
 438:Middlewares/ST/STM32_USB_Device_Library/Core/Src/usbd_core.c ****   UNUSED(pdev);
 742              		.loc 1 438 3 view .LVU242
 439:Middlewares/ST/STM32_USB_Device_Library/Core/Src/usbd_core.c **** 
 440:Middlewares/ST/STM32_USB_Device_Library/Core/Src/usbd_core.c ****   return USBD_OK;
 743              		.loc 1 440 3 view .LVU243
 441:Middlewares/ST/STM32_USB_Device_Library/Core/Src/usbd_core.c **** #endif /* USBD_HS_TESTMODE_ENABLE */
 442:Middlewares/ST/STM32_USB_Device_Library/Core/Src/usbd_core.c **** }
 744              		.loc 1 442 1 is_stmt 0 view .LVU244
 745 0000 0020     		movs	r0, #0
 746              	.LVL52:
 747              		.loc 1 442 1 view .LVU245
 748 0002 7047     		bx	lr
 749              		.cfi_endproc
 750              	.LFE141:
 752              		.section	.text.USBD_SetClassConfig,"ax",%progbits
ARM GAS  C:\Users\ADMINI~1\AppData\Local\Temp\cczL7LlO.s 			page 23


 753              		.align	1
 754              		.global	USBD_SetClassConfig
 755              		.syntax unified
 756              		.thumb
 757              		.thumb_func
 759              	USBD_SetClassConfig:
 760              	.LVL53:
 761              	.LFB142:
 443:Middlewares/ST/STM32_USB_Device_Library/Core/Src/usbd_core.c **** 
 444:Middlewares/ST/STM32_USB_Device_Library/Core/Src/usbd_core.c **** /**
 445:Middlewares/ST/STM32_USB_Device_Library/Core/Src/usbd_core.c ****   * @brief  USBD_SetClassConfig
 446:Middlewares/ST/STM32_USB_Device_Library/Core/Src/usbd_core.c ****   *        Configure device and start the interface
 447:Middlewares/ST/STM32_USB_Device_Library/Core/Src/usbd_core.c ****   * @param  pdev: device instance
 448:Middlewares/ST/STM32_USB_Device_Library/Core/Src/usbd_core.c ****   * @param  cfgidx: configuration index
 449:Middlewares/ST/STM32_USB_Device_Library/Core/Src/usbd_core.c ****   * @retval status
 450:Middlewares/ST/STM32_USB_Device_Library/Core/Src/usbd_core.c ****   */
 451:Middlewares/ST/STM32_USB_Device_Library/Core/Src/usbd_core.c **** 
 452:Middlewares/ST/STM32_USB_Device_Library/Core/Src/usbd_core.c **** USBD_StatusTypeDef USBD_SetClassConfig(USBD_HandleTypeDef *pdev, uint8_t cfgidx)
 453:Middlewares/ST/STM32_USB_Device_Library/Core/Src/usbd_core.c **** {
 762              		.loc 1 453 1 is_stmt 1 view -0
 763              		.cfi_startproc
 764              		@ args = 0, pretend = 0, frame = 0
 765              		@ frame_needed = 0, uses_anonymous_args = 0
 766              		.loc 1 453 1 is_stmt 0 view .LVU247
 767 0000 F8B5     		push	{r3, r4, r5, r6, r7, lr}
 768              	.LCFI14:
 769              		.cfi_def_cfa_offset 24
 770              		.cfi_offset 3, -24
 771              		.cfi_offset 4, -20
 772              		.cfi_offset 5, -16
 773              		.cfi_offset 6, -12
 774              		.cfi_offset 7, -8
 775              		.cfi_offset 14, -4
 776 0002 0546     		mov	r5, r0
 777 0004 0E46     		mov	r6, r1
 454:Middlewares/ST/STM32_USB_Device_Library/Core/Src/usbd_core.c ****   USBD_StatusTypeDef ret = USBD_OK;
 778              		.loc 1 454 3 is_stmt 1 view .LVU248
 779              	.LVL54:
 455:Middlewares/ST/STM32_USB_Device_Library/Core/Src/usbd_core.c **** 
 456:Middlewares/ST/STM32_USB_Device_Library/Core/Src/usbd_core.c **** #ifdef USE_USBD_COMPOSITE
 457:Middlewares/ST/STM32_USB_Device_Library/Core/Src/usbd_core.c ****   /* Parse the table of classes in use */
 458:Middlewares/ST/STM32_USB_Device_Library/Core/Src/usbd_core.c ****   for (uint32_t i = 0U; i < USBD_MAX_SUPPORTED_CLASS; i++)
 780              		.loc 1 458 3 view .LVU249
 781              	.LBB5:
 782              		.loc 1 458 8 view .LVU250
 783              		.loc 1 458 17 is_stmt 0 view .LVU251
 784 0006 0024     		movs	r4, #0
 785              	.LBE5:
 454:Middlewares/ST/STM32_USB_Device_Library/Core/Src/usbd_core.c ****   USBD_StatusTypeDef ret = USBD_OK;
 786              		.loc 1 454 22 view .LVU252
 787 0008 2746     		mov	r7, r4
 788              	.LBB6:
 789              		.loc 1 458 3 view .LVU253
 790 000a 00E0     		b	.L52
 791              	.LVL55:
 792              	.L53:
 793              		.loc 1 458 55 is_stmt 1 discriminator 2 view .LVU254
ARM GAS  C:\Users\ADMINI~1\AppData\Local\Temp\cczL7LlO.s 			page 24


 794              		.loc 1 458 56 is_stmt 0 discriminator 2 view .LVU255
 795 000c 0134     		adds	r4, r4, #1
 796              	.LVL56:
 797              	.L52:
 798              		.loc 1 458 25 is_stmt 1 discriminator 1 view .LVU256
 799              		.loc 1 458 3 is_stmt 0 discriminator 1 view .LVU257
 800 000e 032C     		cmp	r4, #3
 801 0010 17D8     		bhi	.L57
 459:Middlewares/ST/STM32_USB_Device_Library/Core/Src/usbd_core.c ****   {
 460:Middlewares/ST/STM32_USB_Device_Library/Core/Src/usbd_core.c ****   	
 461:Middlewares/ST/STM32_USB_Device_Library/Core/Src/usbd_core.c ****     /* Check if current class is in use */
 462:Middlewares/ST/STM32_USB_Device_Library/Core/Src/usbd_core.c ****     if ((pdev->tclasslist[i].Active) == 1U)
 802              		.loc 1 462 5 is_stmt 1 view .LVU258
 803              		.loc 1 462 29 is_stmt 0 view .LVU259
 804 0012 C4EBC403 		rsb	r3, r4, r4, lsl #3
 805 0016 05EBC303 		add	r3, r5, r3, lsl #3
 806 001a D3F80833 		ldr	r3, [r3, #776]
 807              		.loc 1 462 8 view .LVU260
 808 001e 012B     		cmp	r3, #1
 809 0020 F4D1     		bne	.L53
 463:Middlewares/ST/STM32_USB_Device_Library/Core/Src/usbd_core.c ****     {
 464:Middlewares/ST/STM32_USB_Device_Library/Core/Src/usbd_core.c ****     	
 465:Middlewares/ST/STM32_USB_Device_Library/Core/Src/usbd_core.c ****       if (pdev->pClass[i] != NULL)
 810              		.loc 1 465 7 is_stmt 1 view .LVU261
 811              		.loc 1 465 23 is_stmt 0 view .LVU262
 812 0022 04F1AE03 		add	r3, r4, #174
 813 0026 55F82330 		ldr	r3, [r5, r3, lsl #2]
 814              		.loc 1 465 10 view .LVU263
 815 002a 002B     		cmp	r3, #0
 816 002c EED0     		beq	.L53
 466:Middlewares/ST/STM32_USB_Device_Library/Core/Src/usbd_core.c ****       {
 467:Middlewares/ST/STM32_USB_Device_Library/Core/Src/usbd_core.c ****       	
 468:Middlewares/ST/STM32_USB_Device_Library/Core/Src/usbd_core.c ****         pdev->classId = i;
 817              		.loc 1 468 9 is_stmt 1 view .LVU264
 818              		.loc 1 468 23 is_stmt 0 view .LVU265
 819 002e C5F8F842 		str	r4, [r5, #760]
 469:Middlewares/ST/STM32_USB_Device_Library/Core/Src/usbd_core.c ****         /* Set configuration  and Start the Class*/
 470:Middlewares/ST/STM32_USB_Device_Library/Core/Src/usbd_core.c ****         if (pdev->pClass[i]->Init(pdev, cfgidx) != 0U)
 820              		.loc 1 470 9 is_stmt 1 view .LVU266
 821              		.loc 1 470 28 is_stmt 0 view .LVU267
 822 0032 1B68     		ldr	r3, [r3]
 823              		.loc 1 470 13 view .LVU268
 824 0034 3146     		mov	r1, r6
 825 0036 2846     		mov	r0, r5
 826 0038 9847     		blx	r3
 827              	.LVL57:
 828              		.loc 1 470 12 view .LVU269
 829 003a 0028     		cmp	r0, #0
 830 003c E6D0     		beq	.L53
 471:Middlewares/ST/STM32_USB_Device_Library/Core/Src/usbd_core.c ****         {
 472:Middlewares/ST/STM32_USB_Device_Library/Core/Src/usbd_core.c ****           ret = USBD_FAIL;
 831              		.loc 1 472 15 view .LVU270
 832 003e 0327     		movs	r7, #3
 833              	.LVL58:
 834              		.loc 1 472 15 view .LVU271
 835 0040 E4E7     		b	.L53
 836              	.LVL59:
ARM GAS  C:\Users\ADMINI~1\AppData\Local\Temp\cczL7LlO.s 			page 25


 837              	.L57:
 838              		.loc 1 472 15 view .LVU272
 839              	.LBE6:
 473:Middlewares/ST/STM32_USB_Device_Library/Core/Src/usbd_core.c ****         }
 474:Middlewares/ST/STM32_USB_Device_Library/Core/Src/usbd_core.c ****       }
 475:Middlewares/ST/STM32_USB_Device_Library/Core/Src/usbd_core.c ****     }
 476:Middlewares/ST/STM32_USB_Device_Library/Core/Src/usbd_core.c ****   }
 477:Middlewares/ST/STM32_USB_Device_Library/Core/Src/usbd_core.c **** #else
 478:Middlewares/ST/STM32_USB_Device_Library/Core/Src/usbd_core.c ****   if (pdev->pClass[0] != NULL)
 479:Middlewares/ST/STM32_USB_Device_Library/Core/Src/usbd_core.c ****   {
 480:Middlewares/ST/STM32_USB_Device_Library/Core/Src/usbd_core.c ****     /* Set configuration and Start the Class */
 481:Middlewares/ST/STM32_USB_Device_Library/Core/Src/usbd_core.c ****     ret = (USBD_StatusTypeDef)pdev->pClass[0]->Init(pdev, cfgidx);
 482:Middlewares/ST/STM32_USB_Device_Library/Core/Src/usbd_core.c ****   }
 483:Middlewares/ST/STM32_USB_Device_Library/Core/Src/usbd_core.c **** #endif /* USE_USBD_COMPOSITE */
 484:Middlewares/ST/STM32_USB_Device_Library/Core/Src/usbd_core.c **** 
 485:Middlewares/ST/STM32_USB_Device_Library/Core/Src/usbd_core.c ****   return ret;
 840              		.loc 1 485 3 is_stmt 1 view .LVU273
 486:Middlewares/ST/STM32_USB_Device_Library/Core/Src/usbd_core.c **** }
 841              		.loc 1 486 1 is_stmt 0 view .LVU274
 842 0042 3846     		mov	r0, r7
 843 0044 F8BD     		pop	{r3, r4, r5, r6, r7, pc}
 844              		.loc 1 486 1 view .LVU275
 845              		.cfi_endproc
 846              	.LFE142:
 848              		.section	.text.USBD_ClrClassConfig,"ax",%progbits
 849              		.align	1
 850              		.global	USBD_ClrClassConfig
 851              		.syntax unified
 852              		.thumb
 853              		.thumb_func
 855              	USBD_ClrClassConfig:
 856              	.LVL60:
 857              	.LFB143:
 487:Middlewares/ST/STM32_USB_Device_Library/Core/Src/usbd_core.c **** 
 488:Middlewares/ST/STM32_USB_Device_Library/Core/Src/usbd_core.c **** /**
 489:Middlewares/ST/STM32_USB_Device_Library/Core/Src/usbd_core.c ****   * @brief  USBD_ClrClassConfig
 490:Middlewares/ST/STM32_USB_Device_Library/Core/Src/usbd_core.c ****   *         Clear current configuration
 491:Middlewares/ST/STM32_USB_Device_Library/Core/Src/usbd_core.c ****   * @param  pdev: device instance
 492:Middlewares/ST/STM32_USB_Device_Library/Core/Src/usbd_core.c ****   * @param  cfgidx: configuration index
 493:Middlewares/ST/STM32_USB_Device_Library/Core/Src/usbd_core.c ****   * @retval status: USBD_StatusTypeDef
 494:Middlewares/ST/STM32_USB_Device_Library/Core/Src/usbd_core.c ****   */
 495:Middlewares/ST/STM32_USB_Device_Library/Core/Src/usbd_core.c **** USBD_StatusTypeDef USBD_ClrClassConfig(USBD_HandleTypeDef *pdev, uint8_t cfgidx)
 496:Middlewares/ST/STM32_USB_Device_Library/Core/Src/usbd_core.c **** {
 858              		.loc 1 496 1 is_stmt 1 view -0
 859              		.cfi_startproc
 860              		@ args = 0, pretend = 0, frame = 0
 861              		@ frame_needed = 0, uses_anonymous_args = 0
 862              		.loc 1 496 1 is_stmt 0 view .LVU277
 863 0000 F8B5     		push	{r3, r4, r5, r6, r7, lr}
 864              	.LCFI15:
 865              		.cfi_def_cfa_offset 24
 866              		.cfi_offset 3, -24
 867              		.cfi_offset 4, -20
 868              		.cfi_offset 5, -16
 869              		.cfi_offset 6, -12
 870              		.cfi_offset 7, -8
 871              		.cfi_offset 14, -4
ARM GAS  C:\Users\ADMINI~1\AppData\Local\Temp\cczL7LlO.s 			page 26


 872 0002 0546     		mov	r5, r0
 873 0004 0E46     		mov	r6, r1
 497:Middlewares/ST/STM32_USB_Device_Library/Core/Src/usbd_core.c ****   USBD_StatusTypeDef ret = USBD_OK;
 874              		.loc 1 497 3 is_stmt 1 view .LVU278
 875              	.LVL61:
 498:Middlewares/ST/STM32_USB_Device_Library/Core/Src/usbd_core.c **** 
 499:Middlewares/ST/STM32_USB_Device_Library/Core/Src/usbd_core.c **** #ifdef USE_USBD_COMPOSITE
 500:Middlewares/ST/STM32_USB_Device_Library/Core/Src/usbd_core.c ****   /* Parse the table of classes in use */
 501:Middlewares/ST/STM32_USB_Device_Library/Core/Src/usbd_core.c ****   for (uint32_t i = 0U; i < USBD_MAX_SUPPORTED_CLASS; i++)
 876              		.loc 1 501 3 view .LVU279
 877              	.LBB7:
 878              		.loc 1 501 8 view .LVU280
 879              		.loc 1 501 17 is_stmt 0 view .LVU281
 880 0006 0024     		movs	r4, #0
 881              	.LBE7:
 497:Middlewares/ST/STM32_USB_Device_Library/Core/Src/usbd_core.c ****   USBD_StatusTypeDef ret = USBD_OK;
 882              		.loc 1 497 22 view .LVU282
 883 0008 2746     		mov	r7, r4
 884              	.LBB8:
 885              		.loc 1 501 3 view .LVU283
 886 000a 00E0     		b	.L59
 887              	.LVL62:
 888              	.L60:
 889              		.loc 1 501 55 is_stmt 1 discriminator 2 view .LVU284
 890              		.loc 1 501 56 is_stmt 0 discriminator 2 view .LVU285
 891 000c 0134     		adds	r4, r4, #1
 892              	.LVL63:
 893              	.L59:
 894              		.loc 1 501 25 is_stmt 1 discriminator 1 view .LVU286
 895              		.loc 1 501 3 is_stmt 0 discriminator 1 view .LVU287
 896 000e 032C     		cmp	r4, #3
 897 0010 17D8     		bhi	.L64
 502:Middlewares/ST/STM32_USB_Device_Library/Core/Src/usbd_core.c ****   {
 503:Middlewares/ST/STM32_USB_Device_Library/Core/Src/usbd_core.c ****     /* Check if current class is in use */
 504:Middlewares/ST/STM32_USB_Device_Library/Core/Src/usbd_core.c ****     if ((pdev->tclasslist[i].Active) == 1U)
 898              		.loc 1 504 5 is_stmt 1 view .LVU288
 899              		.loc 1 504 29 is_stmt 0 view .LVU289
 900 0012 C4EBC403 		rsb	r3, r4, r4, lsl #3
 901 0016 05EBC303 		add	r3, r5, r3, lsl #3
 902 001a D3F80833 		ldr	r3, [r3, #776]
 903              		.loc 1 504 8 view .LVU290
 904 001e 012B     		cmp	r3, #1
 905 0020 F4D1     		bne	.L60
 505:Middlewares/ST/STM32_USB_Device_Library/Core/Src/usbd_core.c ****     {
 506:Middlewares/ST/STM32_USB_Device_Library/Core/Src/usbd_core.c ****       if (pdev->pClass[i] != NULL)
 906              		.loc 1 506 7 is_stmt 1 view .LVU291
 907              		.loc 1 506 23 is_stmt 0 view .LVU292
 908 0022 04F1AE03 		add	r3, r4, #174
 909 0026 55F82330 		ldr	r3, [r5, r3, lsl #2]
 910              		.loc 1 506 10 view .LVU293
 911 002a 002B     		cmp	r3, #0
 912 002c EED0     		beq	.L60
 507:Middlewares/ST/STM32_USB_Device_Library/Core/Src/usbd_core.c ****       {
 508:Middlewares/ST/STM32_USB_Device_Library/Core/Src/usbd_core.c ****         pdev->classId = i;
 913              		.loc 1 508 9 is_stmt 1 view .LVU294
 914              		.loc 1 508 23 is_stmt 0 view .LVU295
 915 002e C5F8F842 		str	r4, [r5, #760]
ARM GAS  C:\Users\ADMINI~1\AppData\Local\Temp\cczL7LlO.s 			page 27


 509:Middlewares/ST/STM32_USB_Device_Library/Core/Src/usbd_core.c ****         /* Clear configuration  and De-initialize the Class process */
 510:Middlewares/ST/STM32_USB_Device_Library/Core/Src/usbd_core.c ****         if (pdev->pClass[i]->DeInit(pdev, cfgidx) != 0U)
 916              		.loc 1 510 9 is_stmt 1 view .LVU296
 917              		.loc 1 510 28 is_stmt 0 view .LVU297
 918 0032 5B68     		ldr	r3, [r3, #4]
 919              		.loc 1 510 13 view .LVU298
 920 0034 3146     		mov	r1, r6
 921 0036 2846     		mov	r0, r5
 922 0038 9847     		blx	r3
 923              	.LVL64:
 924              		.loc 1 510 12 view .LVU299
 925 003a 0028     		cmp	r0, #0
 926 003c E6D0     		beq	.L60
 511:Middlewares/ST/STM32_USB_Device_Library/Core/Src/usbd_core.c ****         {
 512:Middlewares/ST/STM32_USB_Device_Library/Core/Src/usbd_core.c ****           ret = USBD_FAIL;
 927              		.loc 1 512 15 view .LVU300
 928 003e 0327     		movs	r7, #3
 929              	.LVL65:
 930              		.loc 1 512 15 view .LVU301
 931 0040 E4E7     		b	.L60
 932              	.LVL66:
 933              	.L64:
 934              		.loc 1 512 15 view .LVU302
 935              	.LBE8:
 513:Middlewares/ST/STM32_USB_Device_Library/Core/Src/usbd_core.c ****         }
 514:Middlewares/ST/STM32_USB_Device_Library/Core/Src/usbd_core.c ****       }
 515:Middlewares/ST/STM32_USB_Device_Library/Core/Src/usbd_core.c ****     }
 516:Middlewares/ST/STM32_USB_Device_Library/Core/Src/usbd_core.c ****   }
 517:Middlewares/ST/STM32_USB_Device_Library/Core/Src/usbd_core.c **** #else
 518:Middlewares/ST/STM32_USB_Device_Library/Core/Src/usbd_core.c ****   /* Clear configuration  and De-initialize the Class process */
 519:Middlewares/ST/STM32_USB_Device_Library/Core/Src/usbd_core.c ****   if (pdev->pClass[0]->DeInit(pdev, cfgidx) != 0U)
 520:Middlewares/ST/STM32_USB_Device_Library/Core/Src/usbd_core.c ****   {
 521:Middlewares/ST/STM32_USB_Device_Library/Core/Src/usbd_core.c ****     ret = USBD_FAIL;
 522:Middlewares/ST/STM32_USB_Device_Library/Core/Src/usbd_core.c ****   }
 523:Middlewares/ST/STM32_USB_Device_Library/Core/Src/usbd_core.c **** #endif /* USE_USBD_COMPOSITE */
 524:Middlewares/ST/STM32_USB_Device_Library/Core/Src/usbd_core.c **** 
 525:Middlewares/ST/STM32_USB_Device_Library/Core/Src/usbd_core.c ****   return ret;
 936              		.loc 1 525 3 is_stmt 1 view .LVU303
 526:Middlewares/ST/STM32_USB_Device_Library/Core/Src/usbd_core.c **** }
 937              		.loc 1 526 1 is_stmt 0 view .LVU304
 938 0042 3846     		mov	r0, r7
 939 0044 F8BD     		pop	{r3, r4, r5, r6, r7, pc}
 940              		.loc 1 526 1 view .LVU305
 941              		.cfi_endproc
 942              	.LFE143:
 944              		.section	.text.USBD_LL_SetupStage,"ax",%progbits
 945              		.align	1
 946              		.global	USBD_LL_SetupStage
 947              		.syntax unified
 948              		.thumb
 949              		.thumb_func
 951              	USBD_LL_SetupStage:
 952              	.LVL67:
 953              	.LFB144:
 527:Middlewares/ST/STM32_USB_Device_Library/Core/Src/usbd_core.c **** 
 528:Middlewares/ST/STM32_USB_Device_Library/Core/Src/usbd_core.c **** 
 529:Middlewares/ST/STM32_USB_Device_Library/Core/Src/usbd_core.c **** /**
ARM GAS  C:\Users\ADMINI~1\AppData\Local\Temp\cczL7LlO.s 			page 28


 530:Middlewares/ST/STM32_USB_Device_Library/Core/Src/usbd_core.c ****   * @brief  USBD_LL_SetupStage
 531:Middlewares/ST/STM32_USB_Device_Library/Core/Src/usbd_core.c ****   *         Handle the setup stage
 532:Middlewares/ST/STM32_USB_Device_Library/Core/Src/usbd_core.c ****   * @param  pdev: device instance
 533:Middlewares/ST/STM32_USB_Device_Library/Core/Src/usbd_core.c ****   * @retval status
 534:Middlewares/ST/STM32_USB_Device_Library/Core/Src/usbd_core.c ****   */
 535:Middlewares/ST/STM32_USB_Device_Library/Core/Src/usbd_core.c **** USBD_StatusTypeDef USBD_LL_SetupStage(USBD_HandleTypeDef *pdev, uint8_t *psetup)
 536:Middlewares/ST/STM32_USB_Device_Library/Core/Src/usbd_core.c **** {
 954              		.loc 1 536 1 is_stmt 1 view -0
 955              		.cfi_startproc
 956              		@ args = 0, pretend = 0, frame = 0
 957              		@ frame_needed = 0, uses_anonymous_args = 0
 958              		.loc 1 536 1 is_stmt 0 view .LVU307
 959 0000 38B5     		push	{r3, r4, r5, lr}
 960              	.LCFI16:
 961              		.cfi_def_cfa_offset 16
 962              		.cfi_offset 3, -16
 963              		.cfi_offset 4, -12
 964              		.cfi_offset 5, -8
 965              		.cfi_offset 14, -4
 966 0002 0446     		mov	r4, r0
 537:Middlewares/ST/STM32_USB_Device_Library/Core/Src/usbd_core.c ****   USBD_StatusTypeDef ret;
 967              		.loc 1 537 3 is_stmt 1 view .LVU308
 538:Middlewares/ST/STM32_USB_Device_Library/Core/Src/usbd_core.c **** 
 539:Middlewares/ST/STM32_USB_Device_Library/Core/Src/usbd_core.c ****   USBD_ParseSetupRequest(&pdev->request, psetup);
 968              		.loc 1 539 3 view .LVU309
 969 0004 00F2AA25 		addw	r5, r0, #682
 970 0008 2846     		mov	r0, r5
 971              	.LVL68:
 972              		.loc 1 539 3 is_stmt 0 view .LVU310
 973 000a FFF7FEFF 		bl	USBD_ParseSetupRequest
 974              	.LVL69:
 540:Middlewares/ST/STM32_USB_Device_Library/Core/Src/usbd_core.c **** 
 541:Middlewares/ST/STM32_USB_Device_Library/Core/Src/usbd_core.c ****   pdev->ep0_state = USBD_EP0_SETUP;
 975              		.loc 1 541 3 is_stmt 1 view .LVU311
 976              		.loc 1 541 19 is_stmt 0 view .LVU312
 977 000e 0123     		movs	r3, #1
 978 0010 C4F89432 		str	r3, [r4, #660]
 542:Middlewares/ST/STM32_USB_Device_Library/Core/Src/usbd_core.c **** 
 543:Middlewares/ST/STM32_USB_Device_Library/Core/Src/usbd_core.c ****   pdev->ep0_data_len = pdev->request.wLength;
 979              		.loc 1 543 3 is_stmt 1 view .LVU313
 980              		.loc 1 543 37 is_stmt 0 view .LVU314
 981 0014 B4F8B032 		ldrh	r3, [r4, #688]
 982              		.loc 1 543 22 view .LVU315
 983 0018 C4F89832 		str	r3, [r4, #664]
 544:Middlewares/ST/STM32_USB_Device_Library/Core/Src/usbd_core.c **** 
 545:Middlewares/ST/STM32_USB_Device_Library/Core/Src/usbd_core.c ****   switch (pdev->request.bmRequest & 0x1FU)
 984              		.loc 1 545 3 is_stmt 1 view .LVU316
 985              		.loc 1 545 24 is_stmt 0 view .LVU317
 986 001c 94F8AA12 		ldrb	r1, [r4, #682]	@ zero_extendqisi2
 987 0020 01F01F03 		and	r3, r1, #31
 988              		.loc 1 545 3 view .LVU318
 989 0024 012B     		cmp	r3, #1
 990 0026 0DD0     		beq	.L66
 991 0028 022B     		cmp	r3, #2
 992 002a 10D0     		beq	.L67
 993 002c 2BB1     		cbz	r3, .L71
 546:Middlewares/ST/STM32_USB_Device_Library/Core/Src/usbd_core.c ****   {
ARM GAS  C:\Users\ADMINI~1\AppData\Local\Temp\cczL7LlO.s 			page 29


 547:Middlewares/ST/STM32_USB_Device_Library/Core/Src/usbd_core.c ****     case USB_REQ_RECIPIENT_DEVICE:
 548:Middlewares/ST/STM32_USB_Device_Library/Core/Src/usbd_core.c ****       ret = USBD_StdDevReq(pdev, &pdev->request);
 549:Middlewares/ST/STM32_USB_Device_Library/Core/Src/usbd_core.c ****       break;
 550:Middlewares/ST/STM32_USB_Device_Library/Core/Src/usbd_core.c **** 
 551:Middlewares/ST/STM32_USB_Device_Library/Core/Src/usbd_core.c ****     case USB_REQ_RECIPIENT_INTERFACE:
 552:Middlewares/ST/STM32_USB_Device_Library/Core/Src/usbd_core.c ****       ret = USBD_StdItfReq(pdev, &pdev->request);
 553:Middlewares/ST/STM32_USB_Device_Library/Core/Src/usbd_core.c ****       break;
 554:Middlewares/ST/STM32_USB_Device_Library/Core/Src/usbd_core.c **** 
 555:Middlewares/ST/STM32_USB_Device_Library/Core/Src/usbd_core.c ****     case USB_REQ_RECIPIENT_ENDPOINT:
 556:Middlewares/ST/STM32_USB_Device_Library/Core/Src/usbd_core.c ****       ret = USBD_StdEPReq(pdev, &pdev->request);
 557:Middlewares/ST/STM32_USB_Device_Library/Core/Src/usbd_core.c ****       break;
 558:Middlewares/ST/STM32_USB_Device_Library/Core/Src/usbd_core.c **** 
 559:Middlewares/ST/STM32_USB_Device_Library/Core/Src/usbd_core.c ****     default:
 560:Middlewares/ST/STM32_USB_Device_Library/Core/Src/usbd_core.c ****       ret = USBD_LL_StallEP(pdev, (pdev->request.bmRequest & 0x80U));
 994              		.loc 1 560 7 is_stmt 1 view .LVU319
 995              		.loc 1 560 13 is_stmt 0 view .LVU320
 996 002e 01F08001 		and	r1, r1, #128
 997 0032 2046     		mov	r0, r4
 998 0034 FFF7FEFF 		bl	USBD_LL_StallEP
 999              	.LVL70:
 561:Middlewares/ST/STM32_USB_Device_Library/Core/Src/usbd_core.c ****       break;
 1000              		.loc 1 561 7 is_stmt 1 view .LVU321
 1001 0038 03E0     		b	.L69
 1002              	.LVL71:
 1003              	.L71:
 548:Middlewares/ST/STM32_USB_Device_Library/Core/Src/usbd_core.c ****       break;
 1004              		.loc 1 548 7 view .LVU322
 548:Middlewares/ST/STM32_USB_Device_Library/Core/Src/usbd_core.c ****       break;
 1005              		.loc 1 548 13 is_stmt 0 view .LVU323
 1006 003a 2946     		mov	r1, r5
 1007 003c 2046     		mov	r0, r4
 1008 003e FFF7FEFF 		bl	USBD_StdDevReq
 1009              	.LVL72:
 549:Middlewares/ST/STM32_USB_Device_Library/Core/Src/usbd_core.c **** 
 1010              		.loc 1 549 7 is_stmt 1 view .LVU324
 1011              	.L69:
 562:Middlewares/ST/STM32_USB_Device_Library/Core/Src/usbd_core.c ****   }
 563:Middlewares/ST/STM32_USB_Device_Library/Core/Src/usbd_core.c **** 
 564:Middlewares/ST/STM32_USB_Device_Library/Core/Src/usbd_core.c ****   return ret;
 1012              		.loc 1 564 3 view .LVU325
 565:Middlewares/ST/STM32_USB_Device_Library/Core/Src/usbd_core.c **** }
 1013              		.loc 1 565 1 is_stmt 0 view .LVU326
 1014 0042 38BD     		pop	{r3, r4, r5, pc}
 1015              	.LVL73:
 1016              	.L66:
 552:Middlewares/ST/STM32_USB_Device_Library/Core/Src/usbd_core.c ****       break;
 1017              		.loc 1 552 7 is_stmt 1 view .LVU327
 552:Middlewares/ST/STM32_USB_Device_Library/Core/Src/usbd_core.c ****       break;
 1018              		.loc 1 552 13 is_stmt 0 view .LVU328
 1019 0044 2946     		mov	r1, r5
 1020 0046 2046     		mov	r0, r4
 1021 0048 FFF7FEFF 		bl	USBD_StdItfReq
 1022              	.LVL74:
 553:Middlewares/ST/STM32_USB_Device_Library/Core/Src/usbd_core.c **** 
 1023              		.loc 1 553 7 is_stmt 1 view .LVU329
 1024 004c F9E7     		b	.L69
 1025              	.LVL75:
ARM GAS  C:\Users\ADMINI~1\AppData\Local\Temp\cczL7LlO.s 			page 30


 1026              	.L67:
 556:Middlewares/ST/STM32_USB_Device_Library/Core/Src/usbd_core.c ****       break;
 1027              		.loc 1 556 7 view .LVU330
 556:Middlewares/ST/STM32_USB_Device_Library/Core/Src/usbd_core.c ****       break;
 1028              		.loc 1 556 13 is_stmt 0 view .LVU331
 1029 004e 2946     		mov	r1, r5
 1030 0050 2046     		mov	r0, r4
 1031 0052 FFF7FEFF 		bl	USBD_StdEPReq
 1032              	.LVL76:
 557:Middlewares/ST/STM32_USB_Device_Library/Core/Src/usbd_core.c **** 
 1033              		.loc 1 557 7 is_stmt 1 view .LVU332
 1034 0056 F4E7     		b	.L69
 1035              		.cfi_endproc
 1036              	.LFE144:
 1038              		.section	.text.USBD_LL_Reset,"ax",%progbits
 1039              		.align	1
 1040              		.global	USBD_LL_Reset
 1041              		.syntax unified
 1042              		.thumb
 1043              		.thumb_func
 1045              	USBD_LL_Reset:
 1046              	.LVL77:
 1047              	.LFB147:
 566:Middlewares/ST/STM32_USB_Device_Library/Core/Src/usbd_core.c **** 
 567:Middlewares/ST/STM32_USB_Device_Library/Core/Src/usbd_core.c **** /**
 568:Middlewares/ST/STM32_USB_Device_Library/Core/Src/usbd_core.c ****   * @brief  USBD_LL_DataOutStage
 569:Middlewares/ST/STM32_USB_Device_Library/Core/Src/usbd_core.c ****   *         Handle data OUT stage
 570:Middlewares/ST/STM32_USB_Device_Library/Core/Src/usbd_core.c ****   * @param  pdev: device instance
 571:Middlewares/ST/STM32_USB_Device_Library/Core/Src/usbd_core.c ****   * @param  epnum: endpoint index
 572:Middlewares/ST/STM32_USB_Device_Library/Core/Src/usbd_core.c ****   * @param  pdata: data pointer
 573:Middlewares/ST/STM32_USB_Device_Library/Core/Src/usbd_core.c ****   * @retval status
 574:Middlewares/ST/STM32_USB_Device_Library/Core/Src/usbd_core.c ****   */
 575:Middlewares/ST/STM32_USB_Device_Library/Core/Src/usbd_core.c **** USBD_StatusTypeDef USBD_LL_DataOutStage(USBD_HandleTypeDef *pdev,
 576:Middlewares/ST/STM32_USB_Device_Library/Core/Src/usbd_core.c ****                                         uint8_t epnum, uint8_t *pdata)
 577:Middlewares/ST/STM32_USB_Device_Library/Core/Src/usbd_core.c **** {
 578:Middlewares/ST/STM32_USB_Device_Library/Core/Src/usbd_core.c ****   USBD_EndpointTypeDef *pep;
 579:Middlewares/ST/STM32_USB_Device_Library/Core/Src/usbd_core.c ****   USBD_StatusTypeDef ret = USBD_OK;
 580:Middlewares/ST/STM32_USB_Device_Library/Core/Src/usbd_core.c ****   uint8_t idx;
 581:Middlewares/ST/STM32_USB_Device_Library/Core/Src/usbd_core.c **** 
 582:Middlewares/ST/STM32_USB_Device_Library/Core/Src/usbd_core.c ****   if (epnum == 0U)
 583:Middlewares/ST/STM32_USB_Device_Library/Core/Src/usbd_core.c ****   {
 584:Middlewares/ST/STM32_USB_Device_Library/Core/Src/usbd_core.c ****     pep = &pdev->ep_out[0];
 585:Middlewares/ST/STM32_USB_Device_Library/Core/Src/usbd_core.c **** 
 586:Middlewares/ST/STM32_USB_Device_Library/Core/Src/usbd_core.c ****     if (pdev->ep0_state == USBD_EP0_DATA_OUT)
 587:Middlewares/ST/STM32_USB_Device_Library/Core/Src/usbd_core.c ****     {
 588:Middlewares/ST/STM32_USB_Device_Library/Core/Src/usbd_core.c ****       if (pep->rem_length > pep->maxpacket)
 589:Middlewares/ST/STM32_USB_Device_Library/Core/Src/usbd_core.c ****       {
 590:Middlewares/ST/STM32_USB_Device_Library/Core/Src/usbd_core.c ****         pep->rem_length -= pep->maxpacket;
 591:Middlewares/ST/STM32_USB_Device_Library/Core/Src/usbd_core.c **** 
 592:Middlewares/ST/STM32_USB_Device_Library/Core/Src/usbd_core.c ****         (void)USBD_CtlContinueRx(pdev, pdata, MIN(pep->rem_length, pep->maxpacket));
 593:Middlewares/ST/STM32_USB_Device_Library/Core/Src/usbd_core.c ****       }
 594:Middlewares/ST/STM32_USB_Device_Library/Core/Src/usbd_core.c ****       else
 595:Middlewares/ST/STM32_USB_Device_Library/Core/Src/usbd_core.c ****       {
 596:Middlewares/ST/STM32_USB_Device_Library/Core/Src/usbd_core.c ****         /* Find the class ID relative to the current request */
 597:Middlewares/ST/STM32_USB_Device_Library/Core/Src/usbd_core.c ****         switch (pdev->request.bmRequest & 0x1FU)
 598:Middlewares/ST/STM32_USB_Device_Library/Core/Src/usbd_core.c ****         {
 599:Middlewares/ST/STM32_USB_Device_Library/Core/Src/usbd_core.c ****           case USB_REQ_RECIPIENT_DEVICE:
ARM GAS  C:\Users\ADMINI~1\AppData\Local\Temp\cczL7LlO.s 			page 31


 600:Middlewares/ST/STM32_USB_Device_Library/Core/Src/usbd_core.c ****             /* Device requests must be managed by the first instantiated class
 601:Middlewares/ST/STM32_USB_Device_Library/Core/Src/usbd_core.c ****                (or duplicated by all classes for simplicity) */
 602:Middlewares/ST/STM32_USB_Device_Library/Core/Src/usbd_core.c ****             idx = 0U;
 603:Middlewares/ST/STM32_USB_Device_Library/Core/Src/usbd_core.c ****             break;
 604:Middlewares/ST/STM32_USB_Device_Library/Core/Src/usbd_core.c **** 
 605:Middlewares/ST/STM32_USB_Device_Library/Core/Src/usbd_core.c ****           case USB_REQ_RECIPIENT_INTERFACE:
 606:Middlewares/ST/STM32_USB_Device_Library/Core/Src/usbd_core.c ****             idx = USBD_CoreFindIF(pdev, LOBYTE(pdev->request.wIndex));
 607:Middlewares/ST/STM32_USB_Device_Library/Core/Src/usbd_core.c ****             
 608:Middlewares/ST/STM32_USB_Device_Library/Core/Src/usbd_core.c ****             break;
 609:Middlewares/ST/STM32_USB_Device_Library/Core/Src/usbd_core.c **** 
 610:Middlewares/ST/STM32_USB_Device_Library/Core/Src/usbd_core.c ****           case USB_REQ_RECIPIENT_ENDPOINT:          
 611:Middlewares/ST/STM32_USB_Device_Library/Core/Src/usbd_core.c ****             idx = USBD_CoreFindEP(pdev, LOBYTE(pdev->request.wIndex));
 612:Middlewares/ST/STM32_USB_Device_Library/Core/Src/usbd_core.c ****            
 613:Middlewares/ST/STM32_USB_Device_Library/Core/Src/usbd_core.c ****             break;
 614:Middlewares/ST/STM32_USB_Device_Library/Core/Src/usbd_core.c **** 
 615:Middlewares/ST/STM32_USB_Device_Library/Core/Src/usbd_core.c ****           default:
 616:Middlewares/ST/STM32_USB_Device_Library/Core/Src/usbd_core.c ****             /* Back to the first class in case of doubt */
 617:Middlewares/ST/STM32_USB_Device_Library/Core/Src/usbd_core.c ****             idx = 0U;
 618:Middlewares/ST/STM32_USB_Device_Library/Core/Src/usbd_core.c ****             break;
 619:Middlewares/ST/STM32_USB_Device_Library/Core/Src/usbd_core.c ****         }
 620:Middlewares/ST/STM32_USB_Device_Library/Core/Src/usbd_core.c **** 
 621:Middlewares/ST/STM32_USB_Device_Library/Core/Src/usbd_core.c ****         if (idx < USBD_MAX_SUPPORTED_CLASS)
 622:Middlewares/ST/STM32_USB_Device_Library/Core/Src/usbd_core.c ****         {
 623:Middlewares/ST/STM32_USB_Device_Library/Core/Src/usbd_core.c ****           /* Setup the class ID and route the request to the relative class function */
 624:Middlewares/ST/STM32_USB_Device_Library/Core/Src/usbd_core.c ****           if (pdev->dev_state == USBD_STATE_CONFIGURED)
 625:Middlewares/ST/STM32_USB_Device_Library/Core/Src/usbd_core.c ****           {
 626:Middlewares/ST/STM32_USB_Device_Library/Core/Src/usbd_core.c ****             if (pdev->pClass[idx]->EP0_RxReady != NULL)
 627:Middlewares/ST/STM32_USB_Device_Library/Core/Src/usbd_core.c ****             {
 628:Middlewares/ST/STM32_USB_Device_Library/Core/Src/usbd_core.c ****               pdev->classId = idx;
 629:Middlewares/ST/STM32_USB_Device_Library/Core/Src/usbd_core.c ****               pdev->pClass[idx]->EP0_RxReady(pdev);
 630:Middlewares/ST/STM32_USB_Device_Library/Core/Src/usbd_core.c ****             }
 631:Middlewares/ST/STM32_USB_Device_Library/Core/Src/usbd_core.c ****           }
 632:Middlewares/ST/STM32_USB_Device_Library/Core/Src/usbd_core.c ****         }
 633:Middlewares/ST/STM32_USB_Device_Library/Core/Src/usbd_core.c **** 
 634:Middlewares/ST/STM32_USB_Device_Library/Core/Src/usbd_core.c ****         (void)USBD_CtlSendStatus(pdev);
 635:Middlewares/ST/STM32_USB_Device_Library/Core/Src/usbd_core.c ****       }
 636:Middlewares/ST/STM32_USB_Device_Library/Core/Src/usbd_core.c ****     }
 637:Middlewares/ST/STM32_USB_Device_Library/Core/Src/usbd_core.c ****     else
 638:Middlewares/ST/STM32_USB_Device_Library/Core/Src/usbd_core.c ****     {
 639:Middlewares/ST/STM32_USB_Device_Library/Core/Src/usbd_core.c **** #if 0
 640:Middlewares/ST/STM32_USB_Device_Library/Core/Src/usbd_core.c ****       if (pdev->ep0_state == USBD_EP0_STATUS_OUT)
 641:Middlewares/ST/STM32_USB_Device_Library/Core/Src/usbd_core.c ****       {
 642:Middlewares/ST/STM32_USB_Device_Library/Core/Src/usbd_core.c ****         /*
 643:Middlewares/ST/STM32_USB_Device_Library/Core/Src/usbd_core.c ****           * STATUS PHASE completed, update ep0_state to idle
 644:Middlewares/ST/STM32_USB_Device_Library/Core/Src/usbd_core.c ****           */
 645:Middlewares/ST/STM32_USB_Device_Library/Core/Src/usbd_core.c ****         pdev->ep0_state = USBD_EP0_IDLE;
 646:Middlewares/ST/STM32_USB_Device_Library/Core/Src/usbd_core.c ****         (void)USBD_LL_StallEP(pdev, 0U);
 647:Middlewares/ST/STM32_USB_Device_Library/Core/Src/usbd_core.c ****       }
 648:Middlewares/ST/STM32_USB_Device_Library/Core/Src/usbd_core.c **** #endif
 649:Middlewares/ST/STM32_USB_Device_Library/Core/Src/usbd_core.c ****     }
 650:Middlewares/ST/STM32_USB_Device_Library/Core/Src/usbd_core.c ****   }
 651:Middlewares/ST/STM32_USB_Device_Library/Core/Src/usbd_core.c ****   else
 652:Middlewares/ST/STM32_USB_Device_Library/Core/Src/usbd_core.c ****   {
 653:Middlewares/ST/STM32_USB_Device_Library/Core/Src/usbd_core.c ****     /* Get the class index relative to this interface */
 654:Middlewares/ST/STM32_USB_Device_Library/Core/Src/usbd_core.c ****     idx = USBD_CoreFindEP(pdev, (epnum & 0x7FU));
 655:Middlewares/ST/STM32_USB_Device_Library/Core/Src/usbd_core.c **** 
 656:Middlewares/ST/STM32_USB_Device_Library/Core/Src/usbd_core.c ****     if (((uint16_t)idx != 0xFFU) && (idx < USBD_MAX_SUPPORTED_CLASS))
ARM GAS  C:\Users\ADMINI~1\AppData\Local\Temp\cczL7LlO.s 			page 32


 657:Middlewares/ST/STM32_USB_Device_Library/Core/Src/usbd_core.c ****     {
 658:Middlewares/ST/STM32_USB_Device_Library/Core/Src/usbd_core.c ****       /* Call the class data out function to manage the request */
 659:Middlewares/ST/STM32_USB_Device_Library/Core/Src/usbd_core.c ****       if (pdev->dev_state == USBD_STATE_CONFIGURED)
 660:Middlewares/ST/STM32_USB_Device_Library/Core/Src/usbd_core.c ****       {
 661:Middlewares/ST/STM32_USB_Device_Library/Core/Src/usbd_core.c ****         if (pdev->pClass[idx]->DataOut != NULL)
 662:Middlewares/ST/STM32_USB_Device_Library/Core/Src/usbd_core.c ****         {
 663:Middlewares/ST/STM32_USB_Device_Library/Core/Src/usbd_core.c ****           pdev->classId = idx;
 664:Middlewares/ST/STM32_USB_Device_Library/Core/Src/usbd_core.c ****           ret = (USBD_StatusTypeDef)pdev->pClass[idx]->DataOut(pdev, epnum);
 665:Middlewares/ST/STM32_USB_Device_Library/Core/Src/usbd_core.c ****         }
 666:Middlewares/ST/STM32_USB_Device_Library/Core/Src/usbd_core.c ****       }
 667:Middlewares/ST/STM32_USB_Device_Library/Core/Src/usbd_core.c ****       if (ret != USBD_OK)
 668:Middlewares/ST/STM32_USB_Device_Library/Core/Src/usbd_core.c ****       {
 669:Middlewares/ST/STM32_USB_Device_Library/Core/Src/usbd_core.c ****         return ret;
 670:Middlewares/ST/STM32_USB_Device_Library/Core/Src/usbd_core.c ****       }
 671:Middlewares/ST/STM32_USB_Device_Library/Core/Src/usbd_core.c ****     }
 672:Middlewares/ST/STM32_USB_Device_Library/Core/Src/usbd_core.c ****   }
 673:Middlewares/ST/STM32_USB_Device_Library/Core/Src/usbd_core.c **** 
 674:Middlewares/ST/STM32_USB_Device_Library/Core/Src/usbd_core.c ****   return USBD_OK;
 675:Middlewares/ST/STM32_USB_Device_Library/Core/Src/usbd_core.c **** }
 676:Middlewares/ST/STM32_USB_Device_Library/Core/Src/usbd_core.c **** 
 677:Middlewares/ST/STM32_USB_Device_Library/Core/Src/usbd_core.c **** /**
 678:Middlewares/ST/STM32_USB_Device_Library/Core/Src/usbd_core.c ****   * @brief  USBD_LL_DataInStage
 679:Middlewares/ST/STM32_USB_Device_Library/Core/Src/usbd_core.c ****   *         Handle data in stage
 680:Middlewares/ST/STM32_USB_Device_Library/Core/Src/usbd_core.c ****   * @param  pdev: device instance
 681:Middlewares/ST/STM32_USB_Device_Library/Core/Src/usbd_core.c ****   * @param  epnum: endpoint index
 682:Middlewares/ST/STM32_USB_Device_Library/Core/Src/usbd_core.c ****   * @retval status
 683:Middlewares/ST/STM32_USB_Device_Library/Core/Src/usbd_core.c ****   */
 684:Middlewares/ST/STM32_USB_Device_Library/Core/Src/usbd_core.c **** USBD_StatusTypeDef USBD_LL_DataInStage(USBD_HandleTypeDef *pdev,
 685:Middlewares/ST/STM32_USB_Device_Library/Core/Src/usbd_core.c ****                                        uint8_t epnum, uint8_t *pdata)
 686:Middlewares/ST/STM32_USB_Device_Library/Core/Src/usbd_core.c **** {
 687:Middlewares/ST/STM32_USB_Device_Library/Core/Src/usbd_core.c ****   USBD_EndpointTypeDef *pep;
 688:Middlewares/ST/STM32_USB_Device_Library/Core/Src/usbd_core.c ****   USBD_StatusTypeDef ret;
 689:Middlewares/ST/STM32_USB_Device_Library/Core/Src/usbd_core.c ****   uint8_t idx;
 690:Middlewares/ST/STM32_USB_Device_Library/Core/Src/usbd_core.c **** 
 691:Middlewares/ST/STM32_USB_Device_Library/Core/Src/usbd_core.c ****   if (epnum == 0U)
 692:Middlewares/ST/STM32_USB_Device_Library/Core/Src/usbd_core.c ****   {
 693:Middlewares/ST/STM32_USB_Device_Library/Core/Src/usbd_core.c ****     pep = &pdev->ep_in[0];
 694:Middlewares/ST/STM32_USB_Device_Library/Core/Src/usbd_core.c **** 
 695:Middlewares/ST/STM32_USB_Device_Library/Core/Src/usbd_core.c ****     if (pdev->ep0_state == USBD_EP0_DATA_IN)
 696:Middlewares/ST/STM32_USB_Device_Library/Core/Src/usbd_core.c ****     {
 697:Middlewares/ST/STM32_USB_Device_Library/Core/Src/usbd_core.c ****       if (pep->rem_length > pep->maxpacket)
 698:Middlewares/ST/STM32_USB_Device_Library/Core/Src/usbd_core.c ****       {
 699:Middlewares/ST/STM32_USB_Device_Library/Core/Src/usbd_core.c ****         pep->rem_length -= pep->maxpacket;
 700:Middlewares/ST/STM32_USB_Device_Library/Core/Src/usbd_core.c **** 
 701:Middlewares/ST/STM32_USB_Device_Library/Core/Src/usbd_core.c ****         (void)USBD_CtlContinueSendData(pdev, pdata, pep->rem_length);
 702:Middlewares/ST/STM32_USB_Device_Library/Core/Src/usbd_core.c **** 
 703:Middlewares/ST/STM32_USB_Device_Library/Core/Src/usbd_core.c ****         /* Prepare endpoint for premature end of transfer */
 704:Middlewares/ST/STM32_USB_Device_Library/Core/Src/usbd_core.c ****         (void)USBD_LL_PrepareReceive(pdev, 0U, NULL, 0U);
 705:Middlewares/ST/STM32_USB_Device_Library/Core/Src/usbd_core.c ****       }
 706:Middlewares/ST/STM32_USB_Device_Library/Core/Src/usbd_core.c ****       else
 707:Middlewares/ST/STM32_USB_Device_Library/Core/Src/usbd_core.c ****       {
 708:Middlewares/ST/STM32_USB_Device_Library/Core/Src/usbd_core.c ****         /* last packet is MPS multiple, so send ZLP packet */
 709:Middlewares/ST/STM32_USB_Device_Library/Core/Src/usbd_core.c ****         if ((pep->maxpacket == pep->rem_length) &&
 710:Middlewares/ST/STM32_USB_Device_Library/Core/Src/usbd_core.c ****             (pep->total_length >= pep->maxpacket) &&
 711:Middlewares/ST/STM32_USB_Device_Library/Core/Src/usbd_core.c ****             (pep->total_length < pdev->ep0_data_len))
 712:Middlewares/ST/STM32_USB_Device_Library/Core/Src/usbd_core.c ****         {
 713:Middlewares/ST/STM32_USB_Device_Library/Core/Src/usbd_core.c ****           (void)USBD_CtlContinueSendData(pdev, NULL, 0U);
ARM GAS  C:\Users\ADMINI~1\AppData\Local\Temp\cczL7LlO.s 			page 33


 714:Middlewares/ST/STM32_USB_Device_Library/Core/Src/usbd_core.c ****           pdev->ep0_data_len = 0U;
 715:Middlewares/ST/STM32_USB_Device_Library/Core/Src/usbd_core.c **** 
 716:Middlewares/ST/STM32_USB_Device_Library/Core/Src/usbd_core.c ****           /* Prepare endpoint for premature end of transfer */
 717:Middlewares/ST/STM32_USB_Device_Library/Core/Src/usbd_core.c ****           (void)USBD_LL_PrepareReceive(pdev, 0U, NULL, 0U);
 718:Middlewares/ST/STM32_USB_Device_Library/Core/Src/usbd_core.c ****         }
 719:Middlewares/ST/STM32_USB_Device_Library/Core/Src/usbd_core.c ****         else
 720:Middlewares/ST/STM32_USB_Device_Library/Core/Src/usbd_core.c ****         {
 721:Middlewares/ST/STM32_USB_Device_Library/Core/Src/usbd_core.c ****           if (pdev->dev_state == USBD_STATE_CONFIGURED)
 722:Middlewares/ST/STM32_USB_Device_Library/Core/Src/usbd_core.c ****           {
 723:Middlewares/ST/STM32_USB_Device_Library/Core/Src/usbd_core.c ****             if (pdev->pClass[0]->EP0_TxSent != NULL)
 724:Middlewares/ST/STM32_USB_Device_Library/Core/Src/usbd_core.c ****             {
 725:Middlewares/ST/STM32_USB_Device_Library/Core/Src/usbd_core.c ****               pdev->classId = 0U;
 726:Middlewares/ST/STM32_USB_Device_Library/Core/Src/usbd_core.c ****               pdev->pClass[0]->EP0_TxSent(pdev);
 727:Middlewares/ST/STM32_USB_Device_Library/Core/Src/usbd_core.c ****             }
 728:Middlewares/ST/STM32_USB_Device_Library/Core/Src/usbd_core.c ****           }
 729:Middlewares/ST/STM32_USB_Device_Library/Core/Src/usbd_core.c ****           (void)USBD_LL_StallEP(pdev, 0x80U);
 730:Middlewares/ST/STM32_USB_Device_Library/Core/Src/usbd_core.c ****           (void)USBD_CtlReceiveStatus(pdev);
 731:Middlewares/ST/STM32_USB_Device_Library/Core/Src/usbd_core.c ****         }
 732:Middlewares/ST/STM32_USB_Device_Library/Core/Src/usbd_core.c ****       }
 733:Middlewares/ST/STM32_USB_Device_Library/Core/Src/usbd_core.c ****     }
 734:Middlewares/ST/STM32_USB_Device_Library/Core/Src/usbd_core.c ****     else
 735:Middlewares/ST/STM32_USB_Device_Library/Core/Src/usbd_core.c ****     {
 736:Middlewares/ST/STM32_USB_Device_Library/Core/Src/usbd_core.c **** #if 0
 737:Middlewares/ST/STM32_USB_Device_Library/Core/Src/usbd_core.c ****       if ((pdev->ep0_state == USBD_EP0_STATUS_IN) ||
 738:Middlewares/ST/STM32_USB_Device_Library/Core/Src/usbd_core.c ****           (pdev->ep0_state == USBD_EP0_IDLE))
 739:Middlewares/ST/STM32_USB_Device_Library/Core/Src/usbd_core.c ****       {
 740:Middlewares/ST/STM32_USB_Device_Library/Core/Src/usbd_core.c ****         (void)USBD_LL_StallEP(pdev, 0x80U);
 741:Middlewares/ST/STM32_USB_Device_Library/Core/Src/usbd_core.c ****       }
 742:Middlewares/ST/STM32_USB_Device_Library/Core/Src/usbd_core.c **** #endif
 743:Middlewares/ST/STM32_USB_Device_Library/Core/Src/usbd_core.c ****     }
 744:Middlewares/ST/STM32_USB_Device_Library/Core/Src/usbd_core.c **** 
 745:Middlewares/ST/STM32_USB_Device_Library/Core/Src/usbd_core.c ****     if (pdev->dev_test_mode != 0U)
 746:Middlewares/ST/STM32_USB_Device_Library/Core/Src/usbd_core.c ****     {
 747:Middlewares/ST/STM32_USB_Device_Library/Core/Src/usbd_core.c ****       (void)USBD_RunTestMode(pdev);
 748:Middlewares/ST/STM32_USB_Device_Library/Core/Src/usbd_core.c ****       pdev->dev_test_mode = 0U;
 749:Middlewares/ST/STM32_USB_Device_Library/Core/Src/usbd_core.c ****     }
 750:Middlewares/ST/STM32_USB_Device_Library/Core/Src/usbd_core.c ****   }
 751:Middlewares/ST/STM32_USB_Device_Library/Core/Src/usbd_core.c ****   else
 752:Middlewares/ST/STM32_USB_Device_Library/Core/Src/usbd_core.c ****   {
 753:Middlewares/ST/STM32_USB_Device_Library/Core/Src/usbd_core.c ****     /* Get the class index relative to this interface */
 754:Middlewares/ST/STM32_USB_Device_Library/Core/Src/usbd_core.c ****     idx = USBD_CoreFindEP(pdev, ((uint8_t)epnum | 0x80U));
 755:Middlewares/ST/STM32_USB_Device_Library/Core/Src/usbd_core.c **** 	
 756:Middlewares/ST/STM32_USB_Device_Library/Core/Src/usbd_core.c ****     if (((uint16_t)idx != 0xFFU) && (idx < USBD_MAX_SUPPORTED_CLASS))
 757:Middlewares/ST/STM32_USB_Device_Library/Core/Src/usbd_core.c ****     {
 758:Middlewares/ST/STM32_USB_Device_Library/Core/Src/usbd_core.c ****       /* Call the class data out function to manage the request */
 759:Middlewares/ST/STM32_USB_Device_Library/Core/Src/usbd_core.c ****       if (pdev->dev_state == USBD_STATE_CONFIGURED)
 760:Middlewares/ST/STM32_USB_Device_Library/Core/Src/usbd_core.c ****       {
 761:Middlewares/ST/STM32_USB_Device_Library/Core/Src/usbd_core.c ****         if (pdev->pClass[idx]->DataIn != NULL)
 762:Middlewares/ST/STM32_USB_Device_Library/Core/Src/usbd_core.c ****         {
 763:Middlewares/ST/STM32_USB_Device_Library/Core/Src/usbd_core.c ****           pdev->classId = idx;
 764:Middlewares/ST/STM32_USB_Device_Library/Core/Src/usbd_core.c ****           ret = (USBD_StatusTypeDef)pdev->pClass[idx]->DataIn(pdev, epnum);
 765:Middlewares/ST/STM32_USB_Device_Library/Core/Src/usbd_core.c **** 
 766:Middlewares/ST/STM32_USB_Device_Library/Core/Src/usbd_core.c ****           if (ret != USBD_OK)
 767:Middlewares/ST/STM32_USB_Device_Library/Core/Src/usbd_core.c ****           {
 768:Middlewares/ST/STM32_USB_Device_Library/Core/Src/usbd_core.c ****             return ret;
 769:Middlewares/ST/STM32_USB_Device_Library/Core/Src/usbd_core.c ****           }
 770:Middlewares/ST/STM32_USB_Device_Library/Core/Src/usbd_core.c ****         }
ARM GAS  C:\Users\ADMINI~1\AppData\Local\Temp\cczL7LlO.s 			page 34


 771:Middlewares/ST/STM32_USB_Device_Library/Core/Src/usbd_core.c ****       }
 772:Middlewares/ST/STM32_USB_Device_Library/Core/Src/usbd_core.c ****     }
 773:Middlewares/ST/STM32_USB_Device_Library/Core/Src/usbd_core.c ****   }
 774:Middlewares/ST/STM32_USB_Device_Library/Core/Src/usbd_core.c **** 
 775:Middlewares/ST/STM32_USB_Device_Library/Core/Src/usbd_core.c ****   return USBD_OK;
 776:Middlewares/ST/STM32_USB_Device_Library/Core/Src/usbd_core.c **** }
 777:Middlewares/ST/STM32_USB_Device_Library/Core/Src/usbd_core.c **** 
 778:Middlewares/ST/STM32_USB_Device_Library/Core/Src/usbd_core.c **** /**
 779:Middlewares/ST/STM32_USB_Device_Library/Core/Src/usbd_core.c ****   * @brief  USBD_LL_Reset
 780:Middlewares/ST/STM32_USB_Device_Library/Core/Src/usbd_core.c ****   *         Handle Reset event
 781:Middlewares/ST/STM32_USB_Device_Library/Core/Src/usbd_core.c ****   * @param  pdev: device instance
 782:Middlewares/ST/STM32_USB_Device_Library/Core/Src/usbd_core.c ****   * @retval status
 783:Middlewares/ST/STM32_USB_Device_Library/Core/Src/usbd_core.c ****   */
 784:Middlewares/ST/STM32_USB_Device_Library/Core/Src/usbd_core.c **** 
 785:Middlewares/ST/STM32_USB_Device_Library/Core/Src/usbd_core.c **** USBD_StatusTypeDef USBD_LL_Reset(USBD_HandleTypeDef *pdev)
 786:Middlewares/ST/STM32_USB_Device_Library/Core/Src/usbd_core.c **** {
 1048              		.loc 1 786 1 view -0
 1049              		.cfi_startproc
 1050              		@ args = 0, pretend = 0, frame = 0
 1051              		@ frame_needed = 0, uses_anonymous_args = 0
 1052              		.loc 1 786 1 is_stmt 0 view .LVU334
 1053 0000 F8B5     		push	{r3, r4, r5, r6, r7, lr}
 1054              	.LCFI17:
 1055              		.cfi_def_cfa_offset 24
 1056              		.cfi_offset 3, -24
 1057              		.cfi_offset 4, -20
 1058              		.cfi_offset 5, -16
 1059              		.cfi_offset 6, -12
 1060              		.cfi_offset 7, -8
 1061              		.cfi_offset 14, -4
 1062 0002 0546     		mov	r5, r0
 787:Middlewares/ST/STM32_USB_Device_Library/Core/Src/usbd_core.c ****   USBD_StatusTypeDef ret = USBD_OK;
 1063              		.loc 1 787 3 is_stmt 1 view .LVU335
 1064              	.LVL78:
 788:Middlewares/ST/STM32_USB_Device_Library/Core/Src/usbd_core.c **** 
 789:Middlewares/ST/STM32_USB_Device_Library/Core/Src/usbd_core.c ****   /* Upon Reset call user call back */
 790:Middlewares/ST/STM32_USB_Device_Library/Core/Src/usbd_core.c ****   pdev->dev_state = USBD_STATE_DEFAULT;
 1065              		.loc 1 790 3 view .LVU336
 1066              		.loc 1 790 19 is_stmt 0 view .LVU337
 1067 0004 0123     		movs	r3, #1
 1068 0006 80F89C32 		strb	r3, [r0, #668]
 791:Middlewares/ST/STM32_USB_Device_Library/Core/Src/usbd_core.c ****   pdev->ep0_state = USBD_EP0_IDLE;
 1069              		.loc 1 791 3 is_stmt 1 view .LVU338
 1070              		.loc 1 791 19 is_stmt 0 view .LVU339
 1071 000a 0026     		movs	r6, #0
 1072 000c C0F89462 		str	r6, [r0, #660]
 792:Middlewares/ST/STM32_USB_Device_Library/Core/Src/usbd_core.c ****   pdev->dev_config = 0U;
 1073              		.loc 1 792 3 is_stmt 1 view .LVU340
 1074              		.loc 1 792 20 is_stmt 0 view .LVU341
 1075 0010 4660     		str	r6, [r0, #4]
 793:Middlewares/ST/STM32_USB_Device_Library/Core/Src/usbd_core.c ****   pdev->dev_remote_wakeup = 0U;
 1076              		.loc 1 793 3 is_stmt 1 view .LVU342
 1077              		.loc 1 793 27 is_stmt 0 view .LVU343
 1078 0012 C0F8A462 		str	r6, [r0, #676]
 794:Middlewares/ST/STM32_USB_Device_Library/Core/Src/usbd_core.c ****   pdev->dev_test_mode = 0U;
 1079              		.loc 1 794 3 is_stmt 1 view .LVU344
 1080              		.loc 1 794 23 is_stmt 0 view .LVU345
ARM GAS  C:\Users\ADMINI~1\AppData\Local\Temp\cczL7LlO.s 			page 35


 1081 0016 80F8A062 		strb	r6, [r0, #672]
 795:Middlewares/ST/STM32_USB_Device_Library/Core/Src/usbd_core.c **** 
 796:Middlewares/ST/STM32_USB_Device_Library/Core/Src/usbd_core.c **** #ifdef USE_USBD_COMPOSITE
 797:Middlewares/ST/STM32_USB_Device_Library/Core/Src/usbd_core.c ****   /* Parse the table of classes in use */
 798:Middlewares/ST/STM32_USB_Device_Library/Core/Src/usbd_core.c ****   for (uint32_t i = 0U; i < USBD_MAX_SUPPORTED_CLASS; i++)
 1082              		.loc 1 798 3 is_stmt 1 view .LVU346
 1083              	.LBB9:
 1084              		.loc 1 798 8 view .LVU347
 1085              	.LVL79:
 1086              		.loc 1 798 17 is_stmt 0 view .LVU348
 1087 001a 3446     		mov	r4, r6
 1088              		.loc 1 798 3 view .LVU349
 1089 001c 00E0     		b	.L73
 1090              	.LVL80:
 1091              	.L74:
 1092              		.loc 1 798 55 is_stmt 1 discriminator 2 view .LVU350
 1093              		.loc 1 798 56 is_stmt 0 discriminator 2 view .LVU351
 1094 001e 0134     		adds	r4, r4, #1
 1095              	.LVL81:
 1096              	.L73:
 1097              		.loc 1 798 25 is_stmt 1 discriminator 1 view .LVU352
 1098              		.loc 1 798 3 is_stmt 0 discriminator 1 view .LVU353
 1099 0020 032C     		cmp	r4, #3
 1100 0022 19D8     		bhi	.L78
 799:Middlewares/ST/STM32_USB_Device_Library/Core/Src/usbd_core.c ****   {
 800:Middlewares/ST/STM32_USB_Device_Library/Core/Src/usbd_core.c ****     /* Check if current class is in use */
 801:Middlewares/ST/STM32_USB_Device_Library/Core/Src/usbd_core.c ****     if ((pdev->tclasslist[i].Active) == 1U)
 1101              		.loc 1 801 5 is_stmt 1 view .LVU354
 1102              		.loc 1 801 29 is_stmt 0 view .LVU355
 1103 0024 C4EBC403 		rsb	r3, r4, r4, lsl #3
 1104 0028 05EBC303 		add	r3, r5, r3, lsl #3
 1105 002c D3F80833 		ldr	r3, [r3, #776]
 1106              		.loc 1 801 8 view .LVU356
 1107 0030 012B     		cmp	r3, #1
 1108 0032 F4D1     		bne	.L74
 802:Middlewares/ST/STM32_USB_Device_Library/Core/Src/usbd_core.c ****     {
 803:Middlewares/ST/STM32_USB_Device_Library/Core/Src/usbd_core.c ****       if (pdev->pClass[i] != NULL)
 1109              		.loc 1 803 7 is_stmt 1 view .LVU357
 1110              		.loc 1 803 23 is_stmt 0 view .LVU358
 1111 0034 04F1AE03 		add	r3, r4, #174
 1112 0038 55F82330 		ldr	r3, [r5, r3, lsl #2]
 1113              		.loc 1 803 10 view .LVU359
 1114 003c 002B     		cmp	r3, #0
 1115 003e EED0     		beq	.L74
 804:Middlewares/ST/STM32_USB_Device_Library/Core/Src/usbd_core.c ****       {
 805:Middlewares/ST/STM32_USB_Device_Library/Core/Src/usbd_core.c ****         pdev->classId = i;
 1116              		.loc 1 805 9 is_stmt 1 view .LVU360
 1117              		.loc 1 805 23 is_stmt 0 view .LVU361
 1118 0040 C5F8F842 		str	r4, [r5, #760]
 806:Middlewares/ST/STM32_USB_Device_Library/Core/Src/usbd_core.c ****         /* Clear configuration  and De-initialize the Class process*/
 807:Middlewares/ST/STM32_USB_Device_Library/Core/Src/usbd_core.c **** 
 808:Middlewares/ST/STM32_USB_Device_Library/Core/Src/usbd_core.c ****         if (pdev->pClass[i]->DeInit != NULL)
 1119              		.loc 1 808 9 is_stmt 1 view .LVU362
 1120              		.loc 1 808 28 is_stmt 0 view .LVU363
 1121 0044 5B68     		ldr	r3, [r3, #4]
 1122              		.loc 1 808 12 view .LVU364
 1123 0046 002B     		cmp	r3, #0
ARM GAS  C:\Users\ADMINI~1\AppData\Local\Temp\cczL7LlO.s 			page 36


 1124 0048 E9D0     		beq	.L74
 809:Middlewares/ST/STM32_USB_Device_Library/Core/Src/usbd_core.c ****         {
 810:Middlewares/ST/STM32_USB_Device_Library/Core/Src/usbd_core.c ****           if (pdev->pClass[i]->DeInit(pdev, (uint8_t)pdev->dev_config) != USBD_OK)
 1125              		.loc 1 810 11 is_stmt 1 view .LVU365
 1126              		.loc 1 810 15 is_stmt 0 view .LVU366
 1127 004a 2979     		ldrb	r1, [r5, #4]	@ zero_extendqisi2
 1128 004c 2846     		mov	r0, r5
 1129 004e 9847     		blx	r3
 1130              	.LVL82:
 1131              		.loc 1 810 14 view .LVU367
 1132 0050 0028     		cmp	r0, #0
 1133 0052 E4D0     		beq	.L74
 811:Middlewares/ST/STM32_USB_Device_Library/Core/Src/usbd_core.c ****           {
 812:Middlewares/ST/STM32_USB_Device_Library/Core/Src/usbd_core.c ****             ret = USBD_FAIL;
 1134              		.loc 1 812 17 view .LVU368
 1135 0054 0326     		movs	r6, #3
 1136              	.LVL83:
 1137              		.loc 1 812 17 view .LVU369
 1138 0056 E2E7     		b	.L74
 1139              	.LVL84:
 1140              	.L78:
 1141              		.loc 1 812 17 view .LVU370
 1142              	.LBE9:
 813:Middlewares/ST/STM32_USB_Device_Library/Core/Src/usbd_core.c ****           }
 814:Middlewares/ST/STM32_USB_Device_Library/Core/Src/usbd_core.c ****         }
 815:Middlewares/ST/STM32_USB_Device_Library/Core/Src/usbd_core.c ****       }
 816:Middlewares/ST/STM32_USB_Device_Library/Core/Src/usbd_core.c ****     }
 817:Middlewares/ST/STM32_USB_Device_Library/Core/Src/usbd_core.c ****   }
 818:Middlewares/ST/STM32_USB_Device_Library/Core/Src/usbd_core.c **** #else
 819:Middlewares/ST/STM32_USB_Device_Library/Core/Src/usbd_core.c **** 
 820:Middlewares/ST/STM32_USB_Device_Library/Core/Src/usbd_core.c ****   if (pdev->pClass[0] != NULL)
 821:Middlewares/ST/STM32_USB_Device_Library/Core/Src/usbd_core.c ****   {
 822:Middlewares/ST/STM32_USB_Device_Library/Core/Src/usbd_core.c ****     if (pdev->pClass[0]->DeInit != NULL)
 823:Middlewares/ST/STM32_USB_Device_Library/Core/Src/usbd_core.c ****     {
 824:Middlewares/ST/STM32_USB_Device_Library/Core/Src/usbd_core.c ****       if (pdev->pClass[0]->DeInit(pdev, (uint8_t)pdev->dev_config) != USBD_OK)
 825:Middlewares/ST/STM32_USB_Device_Library/Core/Src/usbd_core.c ****       {
 826:Middlewares/ST/STM32_USB_Device_Library/Core/Src/usbd_core.c ****         ret = USBD_FAIL;
 827:Middlewares/ST/STM32_USB_Device_Library/Core/Src/usbd_core.c ****       }
 828:Middlewares/ST/STM32_USB_Device_Library/Core/Src/usbd_core.c ****     }
 829:Middlewares/ST/STM32_USB_Device_Library/Core/Src/usbd_core.c ****   }
 830:Middlewares/ST/STM32_USB_Device_Library/Core/Src/usbd_core.c **** #endif /* USE_USBD_COMPOSITE */
 831:Middlewares/ST/STM32_USB_Device_Library/Core/Src/usbd_core.c **** 
 832:Middlewares/ST/STM32_USB_Device_Library/Core/Src/usbd_core.c ****   /* Open EP0 OUT */
 833:Middlewares/ST/STM32_USB_Device_Library/Core/Src/usbd_core.c ****   (void)USBD_LL_OpenEP(pdev, 0x00U, USBD_EP_TYPE_CTRL, USB_MAX_EP0_SIZE);
 1143              		.loc 1 833 3 is_stmt 1 view .LVU371
 1144              		.loc 1 833 9 is_stmt 0 view .LVU372
 1145 0058 4023     		movs	r3, #64
 1146 005a 0022     		movs	r2, #0
 1147 005c 1146     		mov	r1, r2
 1148 005e 2846     		mov	r0, r5
 1149 0060 FFF7FEFF 		bl	USBD_LL_OpenEP
 1150              	.LVL85:
 834:Middlewares/ST/STM32_USB_Device_Library/Core/Src/usbd_core.c ****   pdev->ep_out[0x00U & 0xFU].is_used = 1U;
 1151              		.loc 1 834 3 is_stmt 1 view .LVU373
 1152              		.loc 1 834 38 is_stmt 0 view .LVU374
 1153 0064 0127     		movs	r7, #1
 1154 0066 A5F86471 		strh	r7, [r5, #356]	@ movhi
ARM GAS  C:\Users\ADMINI~1\AppData\Local\Temp\cczL7LlO.s 			page 37


 835:Middlewares/ST/STM32_USB_Device_Library/Core/Src/usbd_core.c **** 
 836:Middlewares/ST/STM32_USB_Device_Library/Core/Src/usbd_core.c ****   pdev->ep_out[0].maxpacket = USB_MAX_EP0_SIZE;
 1155              		.loc 1 836 3 is_stmt 1 view .LVU375
 1156              		.loc 1 836 29 is_stmt 0 view .LVU376
 1157 006a 4024     		movs	r4, #64
 1158              	.LVL86:
 1159              		.loc 1 836 29 view .LVU377
 1160 006c C5F86041 		str	r4, [r5, #352]
 837:Middlewares/ST/STM32_USB_Device_Library/Core/Src/usbd_core.c **** 
 838:Middlewares/ST/STM32_USB_Device_Library/Core/Src/usbd_core.c ****   /* Open EP0 IN */
 839:Middlewares/ST/STM32_USB_Device_Library/Core/Src/usbd_core.c ****   (void)USBD_LL_OpenEP(pdev, 0x80U, USBD_EP_TYPE_CTRL, USB_MAX_EP0_SIZE);
 1161              		.loc 1 839 3 is_stmt 1 view .LVU378
 1162              		.loc 1 839 9 is_stmt 0 view .LVU379
 1163 0070 2346     		mov	r3, r4
 1164 0072 0022     		movs	r2, #0
 1165 0074 8021     		movs	r1, #128
 1166 0076 2846     		mov	r0, r5
 1167 0078 FFF7FEFF 		bl	USBD_LL_OpenEP
 1168              	.LVL87:
 840:Middlewares/ST/STM32_USB_Device_Library/Core/Src/usbd_core.c ****   pdev->ep_in[0x80U & 0xFU].is_used = 1U;
 1169              		.loc 1 840 3 is_stmt 1 view .LVU380
 1170              		.loc 1 840 37 is_stmt 0 view .LVU381
 1171 007c AF84     		strh	r7, [r5, #36]	@ movhi
 841:Middlewares/ST/STM32_USB_Device_Library/Core/Src/usbd_core.c **** 
 842:Middlewares/ST/STM32_USB_Device_Library/Core/Src/usbd_core.c ****   pdev->ep_in[0].maxpacket = USB_MAX_EP0_SIZE;
 1172              		.loc 1 842 3 is_stmt 1 view .LVU382
 1173              		.loc 1 842 28 is_stmt 0 view .LVU383
 1174 007e 2C62     		str	r4, [r5, #32]
 843:Middlewares/ST/STM32_USB_Device_Library/Core/Src/usbd_core.c **** 
 844:Middlewares/ST/STM32_USB_Device_Library/Core/Src/usbd_core.c ****   return ret;
 1175              		.loc 1 844 3 is_stmt 1 view .LVU384
 845:Middlewares/ST/STM32_USB_Device_Library/Core/Src/usbd_core.c **** }
 1176              		.loc 1 845 1 is_stmt 0 view .LVU385
 1177 0080 3046     		mov	r0, r6
 1178 0082 F8BD     		pop	{r3, r4, r5, r6, r7, pc}
 1179              		.loc 1 845 1 view .LVU386
 1180              		.cfi_endproc
 1181              	.LFE147:
 1183              		.section	.text.USBD_LL_SetSpeed,"ax",%progbits
 1184              		.align	1
 1185              		.global	USBD_LL_SetSpeed
 1186              		.syntax unified
 1187              		.thumb
 1188              		.thumb_func
 1190              	USBD_LL_SetSpeed:
 1191              	.LVL88:
 1192              	.LFB148:
 846:Middlewares/ST/STM32_USB_Device_Library/Core/Src/usbd_core.c **** 
 847:Middlewares/ST/STM32_USB_Device_Library/Core/Src/usbd_core.c **** /**
 848:Middlewares/ST/STM32_USB_Device_Library/Core/Src/usbd_core.c ****   * @brief  USBD_LL_SetSpeed
 849:Middlewares/ST/STM32_USB_Device_Library/Core/Src/usbd_core.c ****   *         Handle Reset event
 850:Middlewares/ST/STM32_USB_Device_Library/Core/Src/usbd_core.c ****   * @param  pdev: device instance
 851:Middlewares/ST/STM32_USB_Device_Library/Core/Src/usbd_core.c ****   * @retval status
 852:Middlewares/ST/STM32_USB_Device_Library/Core/Src/usbd_core.c ****   */
 853:Middlewares/ST/STM32_USB_Device_Library/Core/Src/usbd_core.c **** USBD_StatusTypeDef USBD_LL_SetSpeed(USBD_HandleTypeDef *pdev,
 854:Middlewares/ST/STM32_USB_Device_Library/Core/Src/usbd_core.c ****                                     USBD_SpeedTypeDef speed)
 855:Middlewares/ST/STM32_USB_Device_Library/Core/Src/usbd_core.c **** {
ARM GAS  C:\Users\ADMINI~1\AppData\Local\Temp\cczL7LlO.s 			page 38


 1193              		.loc 1 855 1 is_stmt 1 view -0
 1194              		.cfi_startproc
 1195              		@ args = 0, pretend = 0, frame = 0
 1196              		@ frame_needed = 0, uses_anonymous_args = 0
 1197              		@ link register save eliminated.
 856:Middlewares/ST/STM32_USB_Device_Library/Core/Src/usbd_core.c ****   pdev->dev_speed = speed;
 1198              		.loc 1 856 3 view .LVU388
 1199              		.loc 1 856 19 is_stmt 0 view .LVU389
 1200 0000 0174     		strb	r1, [r0, #16]
 857:Middlewares/ST/STM32_USB_Device_Library/Core/Src/usbd_core.c **** 
 858:Middlewares/ST/STM32_USB_Device_Library/Core/Src/usbd_core.c ****   return USBD_OK;
 1201              		.loc 1 858 3 is_stmt 1 view .LVU390
 859:Middlewares/ST/STM32_USB_Device_Library/Core/Src/usbd_core.c **** }
 1202              		.loc 1 859 1 is_stmt 0 view .LVU391
 1203 0002 0020     		movs	r0, #0
 1204              	.LVL89:
 1205              		.loc 1 859 1 view .LVU392
 1206 0004 7047     		bx	lr
 1207              		.cfi_endproc
 1208              	.LFE148:
 1210              		.section	.text.USBD_LL_Suspend,"ax",%progbits
 1211              		.align	1
 1212              		.global	USBD_LL_Suspend
 1213              		.syntax unified
 1214              		.thumb
 1215              		.thumb_func
 1217              	USBD_LL_Suspend:
 1218              	.LVL90:
 1219              	.LFB149:
 860:Middlewares/ST/STM32_USB_Device_Library/Core/Src/usbd_core.c **** 
 861:Middlewares/ST/STM32_USB_Device_Library/Core/Src/usbd_core.c **** /**
 862:Middlewares/ST/STM32_USB_Device_Library/Core/Src/usbd_core.c ****   * @brief  USBD_LL_Suspend
 863:Middlewares/ST/STM32_USB_Device_Library/Core/Src/usbd_core.c ****   *         Handle Suspend event
 864:Middlewares/ST/STM32_USB_Device_Library/Core/Src/usbd_core.c ****   * @param  pdev: device instance
 865:Middlewares/ST/STM32_USB_Device_Library/Core/Src/usbd_core.c ****   * @retval status
 866:Middlewares/ST/STM32_USB_Device_Library/Core/Src/usbd_core.c ****   */
 867:Middlewares/ST/STM32_USB_Device_Library/Core/Src/usbd_core.c **** 
 868:Middlewares/ST/STM32_USB_Device_Library/Core/Src/usbd_core.c **** USBD_StatusTypeDef USBD_LL_Suspend(USBD_HandleTypeDef *pdev)
 869:Middlewares/ST/STM32_USB_Device_Library/Core/Src/usbd_core.c **** {
 1220              		.loc 1 869 1 is_stmt 1 view -0
 1221              		.cfi_startproc
 1222              		@ args = 0, pretend = 0, frame = 0
 1223              		@ frame_needed = 0, uses_anonymous_args = 0
 1224              		@ link register save eliminated.
 870:Middlewares/ST/STM32_USB_Device_Library/Core/Src/usbd_core.c ****   pdev->dev_old_state = pdev->dev_state;
 1225              		.loc 1 870 3 view .LVU394
 1226              		.loc 1 870 29 is_stmt 0 view .LVU395
 1227 0000 90F89C32 		ldrb	r3, [r0, #668]	@ zero_extendqisi2
 1228 0004 DBB2     		uxtb	r3, r3
 1229              		.loc 1 870 23 view .LVU396
 1230 0006 80F89D32 		strb	r3, [r0, #669]
 871:Middlewares/ST/STM32_USB_Device_Library/Core/Src/usbd_core.c ****   pdev->dev_state = USBD_STATE_SUSPENDED;
 1231              		.loc 1 871 3 is_stmt 1 view .LVU397
 1232              		.loc 1 871 19 is_stmt 0 view .LVU398
 1233 000a 0423     		movs	r3, #4
 1234 000c 80F89C32 		strb	r3, [r0, #668]
 872:Middlewares/ST/STM32_USB_Device_Library/Core/Src/usbd_core.c **** 
ARM GAS  C:\Users\ADMINI~1\AppData\Local\Temp\cczL7LlO.s 			page 39


 873:Middlewares/ST/STM32_USB_Device_Library/Core/Src/usbd_core.c ****   return USBD_OK;
 1235              		.loc 1 873 3 is_stmt 1 view .LVU399
 874:Middlewares/ST/STM32_USB_Device_Library/Core/Src/usbd_core.c **** }
 1236              		.loc 1 874 1 is_stmt 0 view .LVU400
 1237 0010 0020     		movs	r0, #0
 1238              	.LVL91:
 1239              		.loc 1 874 1 view .LVU401
 1240 0012 7047     		bx	lr
 1241              		.cfi_endproc
 1242              	.LFE149:
 1244              		.section	.text.USBD_LL_Resume,"ax",%progbits
 1245              		.align	1
 1246              		.global	USBD_LL_Resume
 1247              		.syntax unified
 1248              		.thumb
 1249              		.thumb_func
 1251              	USBD_LL_Resume:
 1252              	.LVL92:
 1253              	.LFB150:
 875:Middlewares/ST/STM32_USB_Device_Library/Core/Src/usbd_core.c **** 
 876:Middlewares/ST/STM32_USB_Device_Library/Core/Src/usbd_core.c **** /**
 877:Middlewares/ST/STM32_USB_Device_Library/Core/Src/usbd_core.c ****   * @brief  USBD_LL_Resume
 878:Middlewares/ST/STM32_USB_Device_Library/Core/Src/usbd_core.c ****   *         Handle Resume event
 879:Middlewares/ST/STM32_USB_Device_Library/Core/Src/usbd_core.c ****   * @param  pdev: device instance
 880:Middlewares/ST/STM32_USB_Device_Library/Core/Src/usbd_core.c ****   * @retval status
 881:Middlewares/ST/STM32_USB_Device_Library/Core/Src/usbd_core.c ****   */
 882:Middlewares/ST/STM32_USB_Device_Library/Core/Src/usbd_core.c **** 
 883:Middlewares/ST/STM32_USB_Device_Library/Core/Src/usbd_core.c **** USBD_StatusTypeDef USBD_LL_Resume(USBD_HandleTypeDef *pdev)
 884:Middlewares/ST/STM32_USB_Device_Library/Core/Src/usbd_core.c **** {
 1254              		.loc 1 884 1 is_stmt 1 view -0
 1255              		.cfi_startproc
 1256              		@ args = 0, pretend = 0, frame = 0
 1257              		@ frame_needed = 0, uses_anonymous_args = 0
 1258              		@ link register save eliminated.
 885:Middlewares/ST/STM32_USB_Device_Library/Core/Src/usbd_core.c ****   if (pdev->dev_state == USBD_STATE_SUSPENDED)
 1259              		.loc 1 885 3 view .LVU403
 1260              		.loc 1 885 11 is_stmt 0 view .LVU404
 1261 0000 90F89C32 		ldrb	r3, [r0, #668]	@ zero_extendqisi2
 1262 0004 DBB2     		uxtb	r3, r3
 1263              		.loc 1 885 6 view .LVU405
 1264 0006 042B     		cmp	r3, #4
 1265 0008 01D0     		beq	.L83
 1266              	.L82:
 886:Middlewares/ST/STM32_USB_Device_Library/Core/Src/usbd_core.c ****   {
 887:Middlewares/ST/STM32_USB_Device_Library/Core/Src/usbd_core.c ****     pdev->dev_state = pdev->dev_old_state;
 888:Middlewares/ST/STM32_USB_Device_Library/Core/Src/usbd_core.c ****   }
 889:Middlewares/ST/STM32_USB_Device_Library/Core/Src/usbd_core.c **** 
 890:Middlewares/ST/STM32_USB_Device_Library/Core/Src/usbd_core.c ****   return USBD_OK;
 1267              		.loc 1 890 3 is_stmt 1 view .LVU406
 891:Middlewares/ST/STM32_USB_Device_Library/Core/Src/usbd_core.c **** }
 1268              		.loc 1 891 1 is_stmt 0 view .LVU407
 1269 000a 0020     		movs	r0, #0
 1270              	.LVL93:
 1271              		.loc 1 891 1 view .LVU408
 1272 000c 7047     		bx	lr
 1273              	.LVL94:
 1274              	.L83:
ARM GAS  C:\Users\ADMINI~1\AppData\Local\Temp\cczL7LlO.s 			page 40


 887:Middlewares/ST/STM32_USB_Device_Library/Core/Src/usbd_core.c ****   }
 1275              		.loc 1 887 5 is_stmt 1 view .LVU409
 887:Middlewares/ST/STM32_USB_Device_Library/Core/Src/usbd_core.c ****   }
 1276              		.loc 1 887 27 is_stmt 0 view .LVU410
 1277 000e 90F89D32 		ldrb	r3, [r0, #669]	@ zero_extendqisi2
 1278 0012 DBB2     		uxtb	r3, r3
 887:Middlewares/ST/STM32_USB_Device_Library/Core/Src/usbd_core.c ****   }
 1279              		.loc 1 887 21 view .LVU411
 1280 0014 80F89C32 		strb	r3, [r0, #668]
 1281 0018 F7E7     		b	.L82
 1282              		.cfi_endproc
 1283              	.LFE150:
 1285              		.section	.text.USBD_LL_SOF,"ax",%progbits
 1286              		.align	1
 1287              		.global	USBD_LL_SOF
 1288              		.syntax unified
 1289              		.thumb
 1290              		.thumb_func
 1292              	USBD_LL_SOF:
 1293              	.LVL95:
 1294              	.LFB151:
 892:Middlewares/ST/STM32_USB_Device_Library/Core/Src/usbd_core.c **** 
 893:Middlewares/ST/STM32_USB_Device_Library/Core/Src/usbd_core.c **** /**
 894:Middlewares/ST/STM32_USB_Device_Library/Core/Src/usbd_core.c ****   * @brief  USBD_LL_SOF
 895:Middlewares/ST/STM32_USB_Device_Library/Core/Src/usbd_core.c ****   *         Handle SOF event
 896:Middlewares/ST/STM32_USB_Device_Library/Core/Src/usbd_core.c ****   * @param  pdev: device instance
 897:Middlewares/ST/STM32_USB_Device_Library/Core/Src/usbd_core.c ****   * @retval status
 898:Middlewares/ST/STM32_USB_Device_Library/Core/Src/usbd_core.c ****   */
 899:Middlewares/ST/STM32_USB_Device_Library/Core/Src/usbd_core.c **** 
 900:Middlewares/ST/STM32_USB_Device_Library/Core/Src/usbd_core.c **** USBD_StatusTypeDef USBD_LL_SOF(USBD_HandleTypeDef *pdev)
 901:Middlewares/ST/STM32_USB_Device_Library/Core/Src/usbd_core.c **** {
 1295              		.loc 1 901 1 is_stmt 1 view -0
 1296              		.cfi_startproc
 1297              		@ args = 0, pretend = 0, frame = 0
 1298              		@ frame_needed = 0, uses_anonymous_args = 0
 1299              		.loc 1 901 1 is_stmt 0 view .LVU413
 1300 0000 38B5     		push	{r3, r4, r5, lr}
 1301              	.LCFI18:
 1302              		.cfi_def_cfa_offset 16
 1303              		.cfi_offset 3, -16
 1304              		.cfi_offset 4, -12
 1305              		.cfi_offset 5, -8
 1306              		.cfi_offset 14, -4
 902:Middlewares/ST/STM32_USB_Device_Library/Core/Src/usbd_core.c ****   /* The SOF event can be distributed for all classes that support it */
 903:Middlewares/ST/STM32_USB_Device_Library/Core/Src/usbd_core.c ****   if (pdev->dev_state == USBD_STATE_CONFIGURED)
 1307              		.loc 1 903 3 is_stmt 1 view .LVU414
 1308              		.loc 1 903 11 is_stmt 0 view .LVU415
 1309 0002 90F89C32 		ldrb	r3, [r0, #668]	@ zero_extendqisi2
 1310 0006 DBB2     		uxtb	r3, r3
 1311              		.loc 1 903 6 view .LVU416
 1312 0008 032B     		cmp	r3, #3
 1313 000a 1BD0     		beq	.L92
 1314              	.LVL96:
 1315              	.L86:
 904:Middlewares/ST/STM32_USB_Device_Library/Core/Src/usbd_core.c ****   {
 905:Middlewares/ST/STM32_USB_Device_Library/Core/Src/usbd_core.c **** #ifdef USE_USBD_COMPOSITE
 906:Middlewares/ST/STM32_USB_Device_Library/Core/Src/usbd_core.c ****     /* Parse the table of classes in use */
ARM GAS  C:\Users\ADMINI~1\AppData\Local\Temp\cczL7LlO.s 			page 41


 907:Middlewares/ST/STM32_USB_Device_Library/Core/Src/usbd_core.c ****     for (uint32_t i = 0; i < USBD_MAX_SUPPORTED_CLASS; i++)
 908:Middlewares/ST/STM32_USB_Device_Library/Core/Src/usbd_core.c ****     {
 909:Middlewares/ST/STM32_USB_Device_Library/Core/Src/usbd_core.c ****       /* Check if current class is in use */
 910:Middlewares/ST/STM32_USB_Device_Library/Core/Src/usbd_core.c ****       if ((pdev->tclasslist[i].Active) == 1U)
 911:Middlewares/ST/STM32_USB_Device_Library/Core/Src/usbd_core.c ****       {
 912:Middlewares/ST/STM32_USB_Device_Library/Core/Src/usbd_core.c ****         if (pdev->pClass[i] != NULL)
 913:Middlewares/ST/STM32_USB_Device_Library/Core/Src/usbd_core.c ****         {
 914:Middlewares/ST/STM32_USB_Device_Library/Core/Src/usbd_core.c ****           if (pdev->pClass[i]->SOF != NULL)
 915:Middlewares/ST/STM32_USB_Device_Library/Core/Src/usbd_core.c ****           {
 916:Middlewares/ST/STM32_USB_Device_Library/Core/Src/usbd_core.c ****             pdev->classId = i;
 917:Middlewares/ST/STM32_USB_Device_Library/Core/Src/usbd_core.c ****             (void)pdev->pClass[i]->SOF(pdev);
 918:Middlewares/ST/STM32_USB_Device_Library/Core/Src/usbd_core.c ****           }
 919:Middlewares/ST/STM32_USB_Device_Library/Core/Src/usbd_core.c ****         }
 920:Middlewares/ST/STM32_USB_Device_Library/Core/Src/usbd_core.c ****       }
 921:Middlewares/ST/STM32_USB_Device_Library/Core/Src/usbd_core.c ****     }
 922:Middlewares/ST/STM32_USB_Device_Library/Core/Src/usbd_core.c **** #else
 923:Middlewares/ST/STM32_USB_Device_Library/Core/Src/usbd_core.c ****     if (pdev->pClass[0] != NULL)
 924:Middlewares/ST/STM32_USB_Device_Library/Core/Src/usbd_core.c ****     {
 925:Middlewares/ST/STM32_USB_Device_Library/Core/Src/usbd_core.c ****       if (pdev->pClass[0]->SOF != NULL)
 926:Middlewares/ST/STM32_USB_Device_Library/Core/Src/usbd_core.c ****       {
 927:Middlewares/ST/STM32_USB_Device_Library/Core/Src/usbd_core.c ****         (void)pdev->pClass[0]->SOF(pdev);
 928:Middlewares/ST/STM32_USB_Device_Library/Core/Src/usbd_core.c ****       }
 929:Middlewares/ST/STM32_USB_Device_Library/Core/Src/usbd_core.c ****     }
 930:Middlewares/ST/STM32_USB_Device_Library/Core/Src/usbd_core.c **** #endif /* USE_USBD_COMPOSITE */
 931:Middlewares/ST/STM32_USB_Device_Library/Core/Src/usbd_core.c ****   }
 932:Middlewares/ST/STM32_USB_Device_Library/Core/Src/usbd_core.c **** 
 933:Middlewares/ST/STM32_USB_Device_Library/Core/Src/usbd_core.c ****   return USBD_OK;
 1316              		.loc 1 933 3 is_stmt 1 view .LVU417
 934:Middlewares/ST/STM32_USB_Device_Library/Core/Src/usbd_core.c **** }
 1317              		.loc 1 934 1 is_stmt 0 view .LVU418
 1318 000c 0020     		movs	r0, #0
 1319 000e 38BD     		pop	{r3, r4, r5, pc}
 1320              	.LVL97:
 1321              	.L87:
 1322              	.LBB10:
 907:Middlewares/ST/STM32_USB_Device_Library/Core/Src/usbd_core.c ****     {
 1323              		.loc 1 907 56 is_stmt 1 discriminator 2 view .LVU419
 907:Middlewares/ST/STM32_USB_Device_Library/Core/Src/usbd_core.c ****     {
 1324              		.loc 1 907 57 is_stmt 0 discriminator 2 view .LVU420
 1325 0010 0134     		adds	r4, r4, #1
 1326              	.LVL98:
 1327              	.L85:
 907:Middlewares/ST/STM32_USB_Device_Library/Core/Src/usbd_core.c ****     {
 1328              		.loc 1 907 26 is_stmt 1 discriminator 1 view .LVU421
 907:Middlewares/ST/STM32_USB_Device_Library/Core/Src/usbd_core.c ****     {
 1329              		.loc 1 907 5 is_stmt 0 discriminator 1 view .LVU422
 1330 0012 032C     		cmp	r4, #3
 1331 0014 FAD8     		bhi	.L86
 910:Middlewares/ST/STM32_USB_Device_Library/Core/Src/usbd_core.c ****       {
 1332              		.loc 1 910 7 is_stmt 1 view .LVU423
 910:Middlewares/ST/STM32_USB_Device_Library/Core/Src/usbd_core.c ****       {
 1333              		.loc 1 910 31 is_stmt 0 view .LVU424
 1334 0016 C4EBC403 		rsb	r3, r4, r4, lsl #3
 1335 001a 05EBC303 		add	r3, r5, r3, lsl #3
 1336 001e D3F80833 		ldr	r3, [r3, #776]
 910:Middlewares/ST/STM32_USB_Device_Library/Core/Src/usbd_core.c ****       {
 1337              		.loc 1 910 10 view .LVU425
ARM GAS  C:\Users\ADMINI~1\AppData\Local\Temp\cczL7LlO.s 			page 42


 1338 0022 012B     		cmp	r3, #1
 1339 0024 F4D1     		bne	.L87
 912:Middlewares/ST/STM32_USB_Device_Library/Core/Src/usbd_core.c ****         {
 1340              		.loc 1 912 9 is_stmt 1 view .LVU426
 912:Middlewares/ST/STM32_USB_Device_Library/Core/Src/usbd_core.c ****         {
 1341              		.loc 1 912 25 is_stmt 0 view .LVU427
 1342 0026 04F1AE03 		add	r3, r4, #174
 1343 002a 55F82330 		ldr	r3, [r5, r3, lsl #2]
 912:Middlewares/ST/STM32_USB_Device_Library/Core/Src/usbd_core.c ****         {
 1344              		.loc 1 912 12 view .LVU428
 1345 002e 002B     		cmp	r3, #0
 1346 0030 EED0     		beq	.L87
 914:Middlewares/ST/STM32_USB_Device_Library/Core/Src/usbd_core.c ****           {
 1347              		.loc 1 914 11 is_stmt 1 view .LVU429
 914:Middlewares/ST/STM32_USB_Device_Library/Core/Src/usbd_core.c ****           {
 1348              		.loc 1 914 30 is_stmt 0 view .LVU430
 1349 0032 DA69     		ldr	r2, [r3, #28]
 914:Middlewares/ST/STM32_USB_Device_Library/Core/Src/usbd_core.c ****           {
 1350              		.loc 1 914 14 view .LVU431
 1351 0034 002A     		cmp	r2, #0
 1352 0036 EBD0     		beq	.L87
 916:Middlewares/ST/STM32_USB_Device_Library/Core/Src/usbd_core.c ****             (void)pdev->pClass[i]->SOF(pdev);
 1353              		.loc 1 916 13 is_stmt 1 view .LVU432
 916:Middlewares/ST/STM32_USB_Device_Library/Core/Src/usbd_core.c ****             (void)pdev->pClass[i]->SOF(pdev);
 1354              		.loc 1 916 27 is_stmt 0 view .LVU433
 1355 0038 C5F8F842 		str	r4, [r5, #760]
 917:Middlewares/ST/STM32_USB_Device_Library/Core/Src/usbd_core.c ****           }
 1356              		.loc 1 917 13 is_stmt 1 view .LVU434
 917:Middlewares/ST/STM32_USB_Device_Library/Core/Src/usbd_core.c ****           }
 1357              		.loc 1 917 34 is_stmt 0 view .LVU435
 1358 003c DB69     		ldr	r3, [r3, #28]
 917:Middlewares/ST/STM32_USB_Device_Library/Core/Src/usbd_core.c ****           }
 1359              		.loc 1 917 19 view .LVU436
 1360 003e 2846     		mov	r0, r5
 1361 0040 9847     		blx	r3
 1362              	.LVL99:
 1363 0042 E5E7     		b	.L87
 1364              	.LVL100:
 1365              	.L92:
 917:Middlewares/ST/STM32_USB_Device_Library/Core/Src/usbd_core.c ****           }
 1366              		.loc 1 917 19 view .LVU437
 1367 0044 0546     		mov	r5, r0
 907:Middlewares/ST/STM32_USB_Device_Library/Core/Src/usbd_core.c ****     {
 1368              		.loc 1 907 19 view .LVU438
 1369 0046 0024     		movs	r4, #0
 1370 0048 E3E7     		b	.L85
 1371              	.LBE10:
 1372              		.cfi_endproc
 1373              	.LFE151:
 1375              		.section	.text.USBD_LL_IsoINIncomplete,"ax",%progbits
 1376              		.align	1
 1377              		.global	USBD_LL_IsoINIncomplete
 1378              		.syntax unified
 1379              		.thumb
 1380              		.thumb_func
 1382              	USBD_LL_IsoINIncomplete:
 1383              	.LVL101:
ARM GAS  C:\Users\ADMINI~1\AppData\Local\Temp\cczL7LlO.s 			page 43


 1384              	.LFB152:
 935:Middlewares/ST/STM32_USB_Device_Library/Core/Src/usbd_core.c **** 
 936:Middlewares/ST/STM32_USB_Device_Library/Core/Src/usbd_core.c **** /**
 937:Middlewares/ST/STM32_USB_Device_Library/Core/Src/usbd_core.c ****   * @brief  USBD_LL_IsoINIncomplete
 938:Middlewares/ST/STM32_USB_Device_Library/Core/Src/usbd_core.c ****   *         Handle iso in incomplete event
 939:Middlewares/ST/STM32_USB_Device_Library/Core/Src/usbd_core.c ****   * @param  pdev: device instance
 940:Middlewares/ST/STM32_USB_Device_Library/Core/Src/usbd_core.c ****   * @retval status
 941:Middlewares/ST/STM32_USB_Device_Library/Core/Src/usbd_core.c ****   */
 942:Middlewares/ST/STM32_USB_Device_Library/Core/Src/usbd_core.c **** USBD_StatusTypeDef USBD_LL_IsoINIncomplete(USBD_HandleTypeDef *pdev,
 943:Middlewares/ST/STM32_USB_Device_Library/Core/Src/usbd_core.c ****                                            uint8_t epnum)
 944:Middlewares/ST/STM32_USB_Device_Library/Core/Src/usbd_core.c **** {
 1385              		.loc 1 944 1 is_stmt 1 view -0
 1386              		.cfi_startproc
 1387              		@ args = 0, pretend = 0, frame = 0
 1388              		@ frame_needed = 0, uses_anonymous_args = 0
 1389              		.loc 1 944 1 is_stmt 0 view .LVU440
 1390 0000 08B5     		push	{r3, lr}
 1391              	.LCFI19:
 1392              		.cfi_def_cfa_offset 8
 1393              		.cfi_offset 3, -8
 1394              		.cfi_offset 14, -4
 945:Middlewares/ST/STM32_USB_Device_Library/Core/Src/usbd_core.c ****   if (pdev->pClass[pdev->classId] == NULL)
 1395              		.loc 1 945 3 is_stmt 1 view .LVU441
 1396              		.loc 1 945 24 is_stmt 0 view .LVU442
 1397 0002 D0F8F832 		ldr	r3, [r0, #760]
 1398              		.loc 1 945 19 view .LVU443
 1399 0006 AE33     		adds	r3, r3, #174
 1400 0008 50F82320 		ldr	r2, [r0, r3, lsl #2]
 1401              		.loc 1 945 6 view .LVU444
 1402 000c 5AB1     		cbz	r2, .L95
 946:Middlewares/ST/STM32_USB_Device_Library/Core/Src/usbd_core.c ****   {
 947:Middlewares/ST/STM32_USB_Device_Library/Core/Src/usbd_core.c ****     return USBD_FAIL;
 948:Middlewares/ST/STM32_USB_Device_Library/Core/Src/usbd_core.c ****   }
 949:Middlewares/ST/STM32_USB_Device_Library/Core/Src/usbd_core.c **** 
 950:Middlewares/ST/STM32_USB_Device_Library/Core/Src/usbd_core.c ****   if (pdev->dev_state == USBD_STATE_CONFIGURED)
 1403              		.loc 1 950 3 is_stmt 1 view .LVU445
 1404              		.loc 1 950 11 is_stmt 0 view .LVU446
 1405 000e 90F89C32 		ldrb	r3, [r0, #668]	@ zero_extendqisi2
 1406 0012 DBB2     		uxtb	r3, r3
 1407              		.loc 1 950 6 view .LVU447
 1408 0014 032B     		cmp	r3, #3
 1409 0016 01D0     		beq	.L99
 951:Middlewares/ST/STM32_USB_Device_Library/Core/Src/usbd_core.c ****   {
 952:Middlewares/ST/STM32_USB_Device_Library/Core/Src/usbd_core.c ****     if (pdev->pClass[pdev->classId]->IsoINIncomplete != NULL)
 953:Middlewares/ST/STM32_USB_Device_Library/Core/Src/usbd_core.c ****     {
 954:Middlewares/ST/STM32_USB_Device_Library/Core/Src/usbd_core.c ****       (void)pdev->pClass[pdev->classId]->IsoINIncomplete(pdev, epnum);
 955:Middlewares/ST/STM32_USB_Device_Library/Core/Src/usbd_core.c ****     }
 956:Middlewares/ST/STM32_USB_Device_Library/Core/Src/usbd_core.c ****   }
 957:Middlewares/ST/STM32_USB_Device_Library/Core/Src/usbd_core.c **** 
 958:Middlewares/ST/STM32_USB_Device_Library/Core/Src/usbd_core.c ****   return USBD_OK;
 1410              		.loc 1 958 10 view .LVU448
 1411 0018 0020     		movs	r0, #0
 1412              	.LVL102:
 1413              	.L94:
 959:Middlewares/ST/STM32_USB_Device_Library/Core/Src/usbd_core.c **** }
 1414              		.loc 1 959 1 view .LVU449
 1415 001a 08BD     		pop	{r3, pc}
ARM GAS  C:\Users\ADMINI~1\AppData\Local\Temp\cczL7LlO.s 			page 44


 1416              	.LVL103:
 1417              	.L99:
 952:Middlewares/ST/STM32_USB_Device_Library/Core/Src/usbd_core.c ****     {
 1418              		.loc 1 952 5 is_stmt 1 view .LVU450
 952:Middlewares/ST/STM32_USB_Device_Library/Core/Src/usbd_core.c ****     {
 1419              		.loc 1 952 36 is_stmt 0 view .LVU451
 1420 001c 136A     		ldr	r3, [r2, #32]
 952:Middlewares/ST/STM32_USB_Device_Library/Core/Src/usbd_core.c ****     {
 1421              		.loc 1 952 8 view .LVU452
 1422 001e 23B1     		cbz	r3, .L97
 954:Middlewares/ST/STM32_USB_Device_Library/Core/Src/usbd_core.c ****     }
 1423              		.loc 1 954 7 is_stmt 1 view .LVU453
 954:Middlewares/ST/STM32_USB_Device_Library/Core/Src/usbd_core.c ****     }
 1424              		.loc 1 954 13 is_stmt 0 view .LVU454
 1425 0020 9847     		blx	r3
 1426              	.LVL104:
 958:Middlewares/ST/STM32_USB_Device_Library/Core/Src/usbd_core.c **** }
 1427              		.loc 1 958 10 view .LVU455
 1428 0022 0020     		movs	r0, #0
 1429 0024 F9E7     		b	.L94
 1430              	.LVL105:
 1431              	.L95:
 947:Middlewares/ST/STM32_USB_Device_Library/Core/Src/usbd_core.c ****   }
 1432              		.loc 1 947 12 view .LVU456
 1433 0026 0320     		movs	r0, #3
 1434              	.LVL106:
 947:Middlewares/ST/STM32_USB_Device_Library/Core/Src/usbd_core.c ****   }
 1435              		.loc 1 947 12 view .LVU457
 1436 0028 F7E7     		b	.L94
 1437              	.LVL107:
 1438              	.L97:
 958:Middlewares/ST/STM32_USB_Device_Library/Core/Src/usbd_core.c **** }
 1439              		.loc 1 958 10 view .LVU458
 1440 002a 0020     		movs	r0, #0
 1441              	.LVL108:
 958:Middlewares/ST/STM32_USB_Device_Library/Core/Src/usbd_core.c **** }
 1442              		.loc 1 958 10 view .LVU459
 1443 002c F5E7     		b	.L94
 1444              		.cfi_endproc
 1445              	.LFE152:
 1447              		.section	.text.USBD_LL_IsoOUTIncomplete,"ax",%progbits
 1448              		.align	1
 1449              		.global	USBD_LL_IsoOUTIncomplete
 1450              		.syntax unified
 1451              		.thumb
 1452              		.thumb_func
 1454              	USBD_LL_IsoOUTIncomplete:
 1455              	.LVL109:
 1456              	.LFB153:
 960:Middlewares/ST/STM32_USB_Device_Library/Core/Src/usbd_core.c **** 
 961:Middlewares/ST/STM32_USB_Device_Library/Core/Src/usbd_core.c **** /**
 962:Middlewares/ST/STM32_USB_Device_Library/Core/Src/usbd_core.c ****   * @brief  USBD_LL_IsoOUTIncomplete
 963:Middlewares/ST/STM32_USB_Device_Library/Core/Src/usbd_core.c ****   *         Handle iso out incomplete event
 964:Middlewares/ST/STM32_USB_Device_Library/Core/Src/usbd_core.c ****   * @param  pdev: device instance
 965:Middlewares/ST/STM32_USB_Device_Library/Core/Src/usbd_core.c ****   * @retval status
 966:Middlewares/ST/STM32_USB_Device_Library/Core/Src/usbd_core.c ****   */
 967:Middlewares/ST/STM32_USB_Device_Library/Core/Src/usbd_core.c **** USBD_StatusTypeDef USBD_LL_IsoOUTIncomplete(USBD_HandleTypeDef *pdev,
ARM GAS  C:\Users\ADMINI~1\AppData\Local\Temp\cczL7LlO.s 			page 45


 968:Middlewares/ST/STM32_USB_Device_Library/Core/Src/usbd_core.c ****                                             uint8_t epnum)
 969:Middlewares/ST/STM32_USB_Device_Library/Core/Src/usbd_core.c **** {
 1457              		.loc 1 969 1 is_stmt 1 view -0
 1458              		.cfi_startproc
 1459              		@ args = 0, pretend = 0, frame = 0
 1460              		@ frame_needed = 0, uses_anonymous_args = 0
 1461              		.loc 1 969 1 is_stmt 0 view .LVU461
 1462 0000 08B5     		push	{r3, lr}
 1463              	.LCFI20:
 1464              		.cfi_def_cfa_offset 8
 1465              		.cfi_offset 3, -8
 1466              		.cfi_offset 14, -4
 970:Middlewares/ST/STM32_USB_Device_Library/Core/Src/usbd_core.c ****   if (pdev->pClass[pdev->classId] == NULL)
 1467              		.loc 1 970 3 is_stmt 1 view .LVU462
 1468              		.loc 1 970 24 is_stmt 0 view .LVU463
 1469 0002 D0F8F832 		ldr	r3, [r0, #760]
 1470              		.loc 1 970 19 view .LVU464
 1471 0006 AE33     		adds	r3, r3, #174
 1472 0008 50F82320 		ldr	r2, [r0, r3, lsl #2]
 1473              		.loc 1 970 6 view .LVU465
 1474 000c 5AB1     		cbz	r2, .L102
 971:Middlewares/ST/STM32_USB_Device_Library/Core/Src/usbd_core.c ****   {
 972:Middlewares/ST/STM32_USB_Device_Library/Core/Src/usbd_core.c ****     return USBD_FAIL;
 973:Middlewares/ST/STM32_USB_Device_Library/Core/Src/usbd_core.c ****   }
 974:Middlewares/ST/STM32_USB_Device_Library/Core/Src/usbd_core.c **** 
 975:Middlewares/ST/STM32_USB_Device_Library/Core/Src/usbd_core.c ****   if (pdev->dev_state == USBD_STATE_CONFIGURED)
 1475              		.loc 1 975 3 is_stmt 1 view .LVU466
 1476              		.loc 1 975 11 is_stmt 0 view .LVU467
 1477 000e 90F89C32 		ldrb	r3, [r0, #668]	@ zero_extendqisi2
 1478 0012 DBB2     		uxtb	r3, r3
 1479              		.loc 1 975 6 view .LVU468
 1480 0014 032B     		cmp	r3, #3
 1481 0016 01D0     		beq	.L106
 976:Middlewares/ST/STM32_USB_Device_Library/Core/Src/usbd_core.c ****   {
 977:Middlewares/ST/STM32_USB_Device_Library/Core/Src/usbd_core.c ****     if (pdev->pClass[pdev->classId]->IsoOUTIncomplete != NULL)
 978:Middlewares/ST/STM32_USB_Device_Library/Core/Src/usbd_core.c ****     {
 979:Middlewares/ST/STM32_USB_Device_Library/Core/Src/usbd_core.c ****       (void)pdev->pClass[pdev->classId]->IsoOUTIncomplete(pdev, epnum);
 980:Middlewares/ST/STM32_USB_Device_Library/Core/Src/usbd_core.c ****     }
 981:Middlewares/ST/STM32_USB_Device_Library/Core/Src/usbd_core.c ****   }
 982:Middlewares/ST/STM32_USB_Device_Library/Core/Src/usbd_core.c **** 
 983:Middlewares/ST/STM32_USB_Device_Library/Core/Src/usbd_core.c ****   return USBD_OK;
 1482              		.loc 1 983 10 view .LVU469
 1483 0018 0020     		movs	r0, #0
 1484              	.LVL110:
 1485              	.L101:
 984:Middlewares/ST/STM32_USB_Device_Library/Core/Src/usbd_core.c **** }
 1486              		.loc 1 984 1 view .LVU470
 1487 001a 08BD     		pop	{r3, pc}
 1488              	.LVL111:
 1489              	.L106:
 977:Middlewares/ST/STM32_USB_Device_Library/Core/Src/usbd_core.c ****     {
 1490              		.loc 1 977 5 is_stmt 1 view .LVU471
 977:Middlewares/ST/STM32_USB_Device_Library/Core/Src/usbd_core.c ****     {
 1491              		.loc 1 977 36 is_stmt 0 view .LVU472
 1492 001c 536A     		ldr	r3, [r2, #36]
 977:Middlewares/ST/STM32_USB_Device_Library/Core/Src/usbd_core.c ****     {
 1493              		.loc 1 977 8 view .LVU473
ARM GAS  C:\Users\ADMINI~1\AppData\Local\Temp\cczL7LlO.s 			page 46


 1494 001e 23B1     		cbz	r3, .L104
 979:Middlewares/ST/STM32_USB_Device_Library/Core/Src/usbd_core.c ****     }
 1495              		.loc 1 979 7 is_stmt 1 view .LVU474
 979:Middlewares/ST/STM32_USB_Device_Library/Core/Src/usbd_core.c ****     }
 1496              		.loc 1 979 13 is_stmt 0 view .LVU475
 1497 0020 9847     		blx	r3
 1498              	.LVL112:
 983:Middlewares/ST/STM32_USB_Device_Library/Core/Src/usbd_core.c **** }
 1499              		.loc 1 983 10 view .LVU476
 1500 0022 0020     		movs	r0, #0
 1501 0024 F9E7     		b	.L101
 1502              	.LVL113:
 1503              	.L102:
 972:Middlewares/ST/STM32_USB_Device_Library/Core/Src/usbd_core.c ****   }
 1504              		.loc 1 972 12 view .LVU477
 1505 0026 0320     		movs	r0, #3
 1506              	.LVL114:
 972:Middlewares/ST/STM32_USB_Device_Library/Core/Src/usbd_core.c ****   }
 1507              		.loc 1 972 12 view .LVU478
 1508 0028 F7E7     		b	.L101
 1509              	.LVL115:
 1510              	.L104:
 983:Middlewares/ST/STM32_USB_Device_Library/Core/Src/usbd_core.c **** }
 1511              		.loc 1 983 10 view .LVU479
 1512 002a 0020     		movs	r0, #0
 1513              	.LVL116:
 983:Middlewares/ST/STM32_USB_Device_Library/Core/Src/usbd_core.c **** }
 1514              		.loc 1 983 10 view .LVU480
 1515 002c F5E7     		b	.L101
 1516              		.cfi_endproc
 1517              	.LFE153:
 1519              		.section	.text.USBD_LL_DevConnected,"ax",%progbits
 1520              		.align	1
 1521              		.global	USBD_LL_DevConnected
 1522              		.syntax unified
 1523              		.thumb
 1524              		.thumb_func
 1526              	USBD_LL_DevConnected:
 1527              	.LVL117:
 1528              	.LFB154:
 985:Middlewares/ST/STM32_USB_Device_Library/Core/Src/usbd_core.c **** 
 986:Middlewares/ST/STM32_USB_Device_Library/Core/Src/usbd_core.c **** /**
 987:Middlewares/ST/STM32_USB_Device_Library/Core/Src/usbd_core.c ****   * @brief  USBD_LL_DevConnected
 988:Middlewares/ST/STM32_USB_Device_Library/Core/Src/usbd_core.c ****   *         Handle device connection event
 989:Middlewares/ST/STM32_USB_Device_Library/Core/Src/usbd_core.c ****   * @param  pdev: device instance
 990:Middlewares/ST/STM32_USB_Device_Library/Core/Src/usbd_core.c ****   * @retval status
 991:Middlewares/ST/STM32_USB_Device_Library/Core/Src/usbd_core.c ****   */
 992:Middlewares/ST/STM32_USB_Device_Library/Core/Src/usbd_core.c **** USBD_StatusTypeDef USBD_LL_DevConnected(USBD_HandleTypeDef *pdev)
 993:Middlewares/ST/STM32_USB_Device_Library/Core/Src/usbd_core.c **** {
 1529              		.loc 1 993 1 is_stmt 1 view -0
 1530              		.cfi_startproc
 1531              		@ args = 0, pretend = 0, frame = 0
 1532              		@ frame_needed = 0, uses_anonymous_args = 0
 1533              		@ link register save eliminated.
 994:Middlewares/ST/STM32_USB_Device_Library/Core/Src/usbd_core.c ****   /* Prevent unused argument compilation warning */
 995:Middlewares/ST/STM32_USB_Device_Library/Core/Src/usbd_core.c ****   UNUSED(pdev);
 1534              		.loc 1 995 3 view .LVU482
ARM GAS  C:\Users\ADMINI~1\AppData\Local\Temp\cczL7LlO.s 			page 47


 996:Middlewares/ST/STM32_USB_Device_Library/Core/Src/usbd_core.c **** 
 997:Middlewares/ST/STM32_USB_Device_Library/Core/Src/usbd_core.c ****   return USBD_OK;
 1535              		.loc 1 997 3 view .LVU483
 998:Middlewares/ST/STM32_USB_Device_Library/Core/Src/usbd_core.c **** }
 1536              		.loc 1 998 1 is_stmt 0 view .LVU484
 1537 0000 0020     		movs	r0, #0
 1538              	.LVL118:
 1539              		.loc 1 998 1 view .LVU485
 1540 0002 7047     		bx	lr
 1541              		.cfi_endproc
 1542              	.LFE154:
 1544              		.section	.text.USBD_LL_DevDisconnected,"ax",%progbits
 1545              		.align	1
 1546              		.global	USBD_LL_DevDisconnected
 1547              		.syntax unified
 1548              		.thumb
 1549              		.thumb_func
 1551              	USBD_LL_DevDisconnected:
 1552              	.LVL119:
 1553              	.LFB155:
 999:Middlewares/ST/STM32_USB_Device_Library/Core/Src/usbd_core.c **** 
1000:Middlewares/ST/STM32_USB_Device_Library/Core/Src/usbd_core.c **** /**
1001:Middlewares/ST/STM32_USB_Device_Library/Core/Src/usbd_core.c ****   * @brief  USBD_LL_DevDisconnected
1002:Middlewares/ST/STM32_USB_Device_Library/Core/Src/usbd_core.c ****   *         Handle device disconnection event
1003:Middlewares/ST/STM32_USB_Device_Library/Core/Src/usbd_core.c ****   * @param  pdev: device instance
1004:Middlewares/ST/STM32_USB_Device_Library/Core/Src/usbd_core.c ****   * @retval status
1005:Middlewares/ST/STM32_USB_Device_Library/Core/Src/usbd_core.c ****   */
1006:Middlewares/ST/STM32_USB_Device_Library/Core/Src/usbd_core.c **** USBD_StatusTypeDef USBD_LL_DevDisconnected(USBD_HandleTypeDef *pdev)
1007:Middlewares/ST/STM32_USB_Device_Library/Core/Src/usbd_core.c **** {
 1554              		.loc 1 1007 1 is_stmt 1 view -0
 1555              		.cfi_startproc
 1556              		@ args = 0, pretend = 0, frame = 0
 1557              		@ frame_needed = 0, uses_anonymous_args = 0
 1558              		.loc 1 1007 1 is_stmt 0 view .LVU487
 1559 0000 70B5     		push	{r4, r5, r6, lr}
 1560              	.LCFI21:
 1561              		.cfi_def_cfa_offset 16
 1562              		.cfi_offset 4, -16
 1563              		.cfi_offset 5, -12
 1564              		.cfi_offset 6, -8
 1565              		.cfi_offset 14, -4
 1566 0002 0546     		mov	r5, r0
1008:Middlewares/ST/STM32_USB_Device_Library/Core/Src/usbd_core.c ****   USBD_StatusTypeDef   ret = USBD_OK;
 1567              		.loc 1 1008 3 is_stmt 1 view .LVU488
 1568              	.LVL120:
1009:Middlewares/ST/STM32_USB_Device_Library/Core/Src/usbd_core.c **** 
1010:Middlewares/ST/STM32_USB_Device_Library/Core/Src/usbd_core.c ****   /* Free Class Resources */
1011:Middlewares/ST/STM32_USB_Device_Library/Core/Src/usbd_core.c ****   pdev->dev_state = USBD_STATE_DEFAULT;
 1569              		.loc 1 1011 3 view .LVU489
 1570              		.loc 1 1011 19 is_stmt 0 view .LVU490
 1571 0004 0123     		movs	r3, #1
 1572 0006 80F89C32 		strb	r3, [r0, #668]
1012:Middlewares/ST/STM32_USB_Device_Library/Core/Src/usbd_core.c **** 
1013:Middlewares/ST/STM32_USB_Device_Library/Core/Src/usbd_core.c **** #ifdef USE_USBD_COMPOSITE
1014:Middlewares/ST/STM32_USB_Device_Library/Core/Src/usbd_core.c ****   /* Parse the table of classes in use */
1015:Middlewares/ST/STM32_USB_Device_Library/Core/Src/usbd_core.c ****   for (uint32_t i = 0; i < USBD_MAX_SUPPORTED_CLASS; i++)
 1573              		.loc 1 1015 3 is_stmt 1 view .LVU491
ARM GAS  C:\Users\ADMINI~1\AppData\Local\Temp\cczL7LlO.s 			page 48


 1574              	.LBB11:
 1575              		.loc 1 1015 8 view .LVU492
 1576              	.LVL121:
 1577              		.loc 1 1015 17 is_stmt 0 view .LVU493
 1578 000a 0024     		movs	r4, #0
 1579              	.LBE11:
1008:Middlewares/ST/STM32_USB_Device_Library/Core/Src/usbd_core.c **** 
 1580              		.loc 1 1008 24 view .LVU494
 1581 000c 2646     		mov	r6, r4
 1582              	.LBB12:
 1583              		.loc 1 1015 3 view .LVU495
 1584 000e 00E0     		b	.L109
 1585              	.LVL122:
 1586              	.L110:
 1587              		.loc 1 1015 54 is_stmt 1 discriminator 2 view .LVU496
 1588              		.loc 1 1015 55 is_stmt 0 discriminator 2 view .LVU497
 1589 0010 0134     		adds	r4, r4, #1
 1590              	.LVL123:
 1591              	.L109:
 1592              		.loc 1 1015 24 is_stmt 1 discriminator 1 view .LVU498
 1593              		.loc 1 1015 3 is_stmt 0 discriminator 1 view .LVU499
 1594 0012 032C     		cmp	r4, #3
 1595 0014 17D8     		bhi	.L114
1016:Middlewares/ST/STM32_USB_Device_Library/Core/Src/usbd_core.c ****   {
1017:Middlewares/ST/STM32_USB_Device_Library/Core/Src/usbd_core.c ****     /* Check if current class is in use */
1018:Middlewares/ST/STM32_USB_Device_Library/Core/Src/usbd_core.c ****     if ((pdev->tclasslist[i].Active) == 1U)
 1596              		.loc 1 1018 5 is_stmt 1 view .LVU500
 1597              		.loc 1 1018 29 is_stmt 0 view .LVU501
 1598 0016 C4EBC403 		rsb	r3, r4, r4, lsl #3
 1599 001a 05EBC303 		add	r3, r5, r3, lsl #3
 1600 001e D3F80833 		ldr	r3, [r3, #776]
 1601              		.loc 1 1018 8 view .LVU502
 1602 0022 012B     		cmp	r3, #1
 1603 0024 F4D1     		bne	.L110
1019:Middlewares/ST/STM32_USB_Device_Library/Core/Src/usbd_core.c ****     {
1020:Middlewares/ST/STM32_USB_Device_Library/Core/Src/usbd_core.c ****       if (pdev->pClass[i] != NULL)
 1604              		.loc 1 1020 7 is_stmt 1 view .LVU503
 1605              		.loc 1 1020 23 is_stmt 0 view .LVU504
 1606 0026 04F1AE03 		add	r3, r4, #174
 1607 002a 55F82330 		ldr	r3, [r5, r3, lsl #2]
 1608              		.loc 1 1020 10 view .LVU505
 1609 002e 002B     		cmp	r3, #0
 1610 0030 EED0     		beq	.L110
1021:Middlewares/ST/STM32_USB_Device_Library/Core/Src/usbd_core.c ****       {
1022:Middlewares/ST/STM32_USB_Device_Library/Core/Src/usbd_core.c ****         pdev->classId = i;
 1611              		.loc 1 1022 9 is_stmt 1 view .LVU506
 1612              		.loc 1 1022 23 is_stmt 0 view .LVU507
 1613 0032 C5F8F842 		str	r4, [r5, #760]
1023:Middlewares/ST/STM32_USB_Device_Library/Core/Src/usbd_core.c ****         /* Clear configuration  and De-initialize the Class process*/
1024:Middlewares/ST/STM32_USB_Device_Library/Core/Src/usbd_core.c ****         if (pdev->pClass[i]->DeInit(pdev, (uint8_t)pdev->dev_config) != 0U)
 1614              		.loc 1 1024 9 is_stmt 1 view .LVU508
 1615              		.loc 1 1024 28 is_stmt 0 view .LVU509
 1616 0036 5B68     		ldr	r3, [r3, #4]
 1617              		.loc 1 1024 13 view .LVU510
 1618 0038 2979     		ldrb	r1, [r5, #4]	@ zero_extendqisi2
 1619 003a 2846     		mov	r0, r5
 1620 003c 9847     		blx	r3
ARM GAS  C:\Users\ADMINI~1\AppData\Local\Temp\cczL7LlO.s 			page 49


 1621              	.LVL124:
 1622              		.loc 1 1024 12 view .LVU511
 1623 003e 0028     		cmp	r0, #0
 1624 0040 E6D0     		beq	.L110
1025:Middlewares/ST/STM32_USB_Device_Library/Core/Src/usbd_core.c ****         {
1026:Middlewares/ST/STM32_USB_Device_Library/Core/Src/usbd_core.c ****           ret = USBD_FAIL;
 1625              		.loc 1 1026 15 view .LVU512
 1626 0042 0326     		movs	r6, #3
 1627              	.LVL125:
 1628              		.loc 1 1026 15 view .LVU513
 1629 0044 E4E7     		b	.L110
 1630              	.LVL126:
 1631              	.L114:
 1632              		.loc 1 1026 15 view .LVU514
 1633              	.LBE12:
1027:Middlewares/ST/STM32_USB_Device_Library/Core/Src/usbd_core.c ****         }
1028:Middlewares/ST/STM32_USB_Device_Library/Core/Src/usbd_core.c ****       }
1029:Middlewares/ST/STM32_USB_Device_Library/Core/Src/usbd_core.c ****     }
1030:Middlewares/ST/STM32_USB_Device_Library/Core/Src/usbd_core.c ****   }
1031:Middlewares/ST/STM32_USB_Device_Library/Core/Src/usbd_core.c **** #else
1032:Middlewares/ST/STM32_USB_Device_Library/Core/Src/usbd_core.c ****   if (pdev->pClass[0] != NULL)
1033:Middlewares/ST/STM32_USB_Device_Library/Core/Src/usbd_core.c ****   {
1034:Middlewares/ST/STM32_USB_Device_Library/Core/Src/usbd_core.c ****     if (pdev->pClass[0]->DeInit(pdev, (uint8_t)pdev->dev_config) != 0U)
1035:Middlewares/ST/STM32_USB_Device_Library/Core/Src/usbd_core.c ****     {
1036:Middlewares/ST/STM32_USB_Device_Library/Core/Src/usbd_core.c ****       ret = USBD_FAIL;
1037:Middlewares/ST/STM32_USB_Device_Library/Core/Src/usbd_core.c ****     }
1038:Middlewares/ST/STM32_USB_Device_Library/Core/Src/usbd_core.c ****   }
1039:Middlewares/ST/STM32_USB_Device_Library/Core/Src/usbd_core.c **** #endif /* USE_USBD_COMPOSITE */
1040:Middlewares/ST/STM32_USB_Device_Library/Core/Src/usbd_core.c **** 
1041:Middlewares/ST/STM32_USB_Device_Library/Core/Src/usbd_core.c ****   return ret;
 1634              		.loc 1 1041 3 is_stmt 1 view .LVU515
1042:Middlewares/ST/STM32_USB_Device_Library/Core/Src/usbd_core.c **** }
 1635              		.loc 1 1042 1 is_stmt 0 view .LVU516
 1636 0046 3046     		mov	r0, r6
 1637 0048 70BD     		pop	{r4, r5, r6, pc}
 1638              		.loc 1 1042 1 view .LVU517
 1639              		.cfi_endproc
 1640              	.LFE155:
 1642              		.section	.text.USBD_CoreFindIF,"ax",%progbits
 1643              		.align	1
 1644              		.global	USBD_CoreFindIF
 1645              		.syntax unified
 1646              		.thumb
 1647              		.thumb_func
 1649              	USBD_CoreFindIF:
 1650              	.LVL127:
 1651              	.LFB156:
1043:Middlewares/ST/STM32_USB_Device_Library/Core/Src/usbd_core.c **** 
1044:Middlewares/ST/STM32_USB_Device_Library/Core/Src/usbd_core.c **** /**
1045:Middlewares/ST/STM32_USB_Device_Library/Core/Src/usbd_core.c ****   * @brief  USBD_CoreFindIF
1046:Middlewares/ST/STM32_USB_Device_Library/Core/Src/usbd_core.c ****   *         return the class index relative to the selected interface
1047:Middlewares/ST/STM32_USB_Device_Library/Core/Src/usbd_core.c ****   * @param  pdev: device instance
1048:Middlewares/ST/STM32_USB_Device_Library/Core/Src/usbd_core.c ****   * @param  index : selected interface number
1049:Middlewares/ST/STM32_USB_Device_Library/Core/Src/usbd_core.c ****   * @retval index of the class using the selected interface number. OxFF if no class found.
1050:Middlewares/ST/STM32_USB_Device_Library/Core/Src/usbd_core.c ****   */
1051:Middlewares/ST/STM32_USB_Device_Library/Core/Src/usbd_core.c **** uint8_t USBD_CoreFindIF(USBD_HandleTypeDef *pdev, uint8_t index)
1052:Middlewares/ST/STM32_USB_Device_Library/Core/Src/usbd_core.c **** {
ARM GAS  C:\Users\ADMINI~1\AppData\Local\Temp\cczL7LlO.s 			page 50


 1652              		.loc 1 1052 1 is_stmt 1 view -0
 1653              		.cfi_startproc
 1654              		@ args = 0, pretend = 0, frame = 0
 1655              		@ frame_needed = 0, uses_anonymous_args = 0
 1656              		@ link register save eliminated.
1053:Middlewares/ST/STM32_USB_Device_Library/Core/Src/usbd_core.c **** #ifdef USE_USBD_COMPOSITE
1054:Middlewares/ST/STM32_USB_Device_Library/Core/Src/usbd_core.c ****   /* Parse the table of classes in use */
1055:Middlewares/ST/STM32_USB_Device_Library/Core/Src/usbd_core.c ****   for (uint32_t i = 0U; i < USBD_MAX_SUPPORTED_CLASS; i++)
 1657              		.loc 1 1055 3 view .LVU519
 1658              	.LBB13:
 1659              		.loc 1 1055 8 view .LVU520
 1660              		.loc 1 1055 17 is_stmt 0 view .LVU521
 1661 0000 0023     		movs	r3, #0
 1662              		.loc 1 1055 3 view .LVU522
 1663 0002 1CE0     		b	.L116
 1664              	.LVL128:
 1665              	.L119:
 1666              	.LBB14:
1056:Middlewares/ST/STM32_USB_Device_Library/Core/Src/usbd_core.c ****   {
1057:Middlewares/ST/STM32_USB_Device_Library/Core/Src/usbd_core.c ****     /* Check if current class is in use */
1058:Middlewares/ST/STM32_USB_Device_Library/Core/Src/usbd_core.c ****     if ((pdev->tclasslist[i].Active) == 1U)
1059:Middlewares/ST/STM32_USB_Device_Library/Core/Src/usbd_core.c ****     {
1060:Middlewares/ST/STM32_USB_Device_Library/Core/Src/usbd_core.c ****       /* Parse all interfaces listed in the current class */
1061:Middlewares/ST/STM32_USB_Device_Library/Core/Src/usbd_core.c ****       for (uint32_t j = 0U; j < pdev->tclasslist[i].NumIf; j++)
 1667              		.loc 1 1061 60 is_stmt 1 discriminator 2 view .LVU523
 1668              		.loc 1 1061 61 is_stmt 0 discriminator 2 view .LVU524
 1669 0004 0CF1010C 		add	ip, ip, #1
 1670              	.LVL129:
 1671              	.L117:
 1672              		.loc 1 1061 29 is_stmt 1 discriminator 1 view .LVU525
 1673              		.loc 1 1061 52 is_stmt 0 discriminator 1 view .LVU526
 1674 0008 C3EBC302 		rsb	r2, r3, r3, lsl #3
 1675 000c 00EBC202 		add	r2, r0, r2, lsl #3
 1676 0010 D2F82823 		ldr	r2, [r2, #808]
 1677              		.loc 1 1061 7 discriminator 1 view .LVU527
 1678 0014 6245     		cmp	r2, ip
 1679 0016 11D9     		bls	.L118
1062:Middlewares/ST/STM32_USB_Device_Library/Core/Src/usbd_core.c ****       {
1063:Middlewares/ST/STM32_USB_Device_Library/Core/Src/usbd_core.c ****         /* Check if requested Interface matches the current class interface */
1064:Middlewares/ST/STM32_USB_Device_Library/Core/Src/usbd_core.c ****         if (pdev->tclasslist[i].Ifs[j] == index)
 1680              		.loc 1 1064 9 is_stmt 1 view .LVU528
 1681              		.loc 1 1064 36 is_stmt 0 view .LVU529
 1682 0018 C3EBC302 		rsb	r2, r3, r3, lsl #3
 1683 001c 00EBC202 		add	r2, r0, r2, lsl #3
 1684 0020 6244     		add	r2, r2, ip
 1685 0022 92F82C23 		ldrb	r2, [r2, #812]	@ zero_extendqisi2
 1686              		.loc 1 1064 12 view .LVU530
 1687 0026 8A42     		cmp	r2, r1
 1688 0028 ECD1     		bne	.L119
1065:Middlewares/ST/STM32_USB_Device_Library/Core/Src/usbd_core.c ****         {
1066:Middlewares/ST/STM32_USB_Device_Library/Core/Src/usbd_core.c ****           if (pdev->pClass[i]->Setup != NULL)
 1689              		.loc 1 1066 11 is_stmt 1 view .LVU531
 1690              		.loc 1 1066 27 is_stmt 0 view .LVU532
 1691 002a 03F1AE02 		add	r2, r3, #174
 1692 002e 50F82220 		ldr	r2, [r0, r2, lsl #2]
 1693              		.loc 1 1066 30 view .LVU533
 1694 0032 9268     		ldr	r2, [r2, #8]
ARM GAS  C:\Users\ADMINI~1\AppData\Local\Temp\cczL7LlO.s 			page 51


 1695              		.loc 1 1066 14 view .LVU534
 1696 0034 002A     		cmp	r2, #0
 1697 0036 E5D0     		beq	.L119
1067:Middlewares/ST/STM32_USB_Device_Library/Core/Src/usbd_core.c ****           {
1068:Middlewares/ST/STM32_USB_Device_Library/Core/Src/usbd_core.c ****             return (uint8_t)i;
 1698              		.loc 1 1068 13 is_stmt 1 view .LVU535
 1699              		.loc 1 1068 20 is_stmt 0 view .LVU536
 1700 0038 D8B2     		uxtb	r0, r3
 1701              	.LVL130:
 1702              		.loc 1 1068 20 view .LVU537
 1703 003a 7047     		bx	lr
 1704              	.LVL131:
 1705              	.L118:
 1706              		.loc 1 1068 20 view .LVU538
 1707              	.LBE14:
1055:Middlewares/ST/STM32_USB_Device_Library/Core/Src/usbd_core.c ****   {
 1708              		.loc 1 1055 55 is_stmt 1 discriminator 2 view .LVU539
1055:Middlewares/ST/STM32_USB_Device_Library/Core/Src/usbd_core.c ****   {
 1709              		.loc 1 1055 56 is_stmt 0 discriminator 2 view .LVU540
 1710 003c 0133     		adds	r3, r3, #1
 1711              	.LVL132:
 1712              	.L116:
1055:Middlewares/ST/STM32_USB_Device_Library/Core/Src/usbd_core.c ****   {
 1713              		.loc 1 1055 25 is_stmt 1 discriminator 1 view .LVU541
1055:Middlewares/ST/STM32_USB_Device_Library/Core/Src/usbd_core.c ****   {
 1714              		.loc 1 1055 3 is_stmt 0 discriminator 1 view .LVU542
 1715 003e 032B     		cmp	r3, #3
 1716 0040 0AD8     		bhi	.L124
1058:Middlewares/ST/STM32_USB_Device_Library/Core/Src/usbd_core.c ****     {
 1717              		.loc 1 1058 5 is_stmt 1 view .LVU543
1058:Middlewares/ST/STM32_USB_Device_Library/Core/Src/usbd_core.c ****     {
 1718              		.loc 1 1058 29 is_stmt 0 view .LVU544
 1719 0042 C3EBC302 		rsb	r2, r3, r3, lsl #3
 1720 0046 00EBC202 		add	r2, r0, r2, lsl #3
 1721 004a D2F80823 		ldr	r2, [r2, #776]
1058:Middlewares/ST/STM32_USB_Device_Library/Core/Src/usbd_core.c ****     {
 1722              		.loc 1 1058 8 view .LVU545
 1723 004e 012A     		cmp	r2, #1
 1724 0050 F4D1     		bne	.L118
 1725              	.LBB15:
1061:Middlewares/ST/STM32_USB_Device_Library/Core/Src/usbd_core.c ****       {
 1726              		.loc 1 1061 21 view .LVU546
 1727 0052 4FF0000C 		mov	ip, #0
 1728 0056 D7E7     		b	.L117
 1729              	.L124:
1061:Middlewares/ST/STM32_USB_Device_Library/Core/Src/usbd_core.c ****       {
 1730              		.loc 1 1061 21 view .LVU547
 1731              	.LBE15:
 1732              	.LBE13:
1069:Middlewares/ST/STM32_USB_Device_Library/Core/Src/usbd_core.c ****           }
1070:Middlewares/ST/STM32_USB_Device_Library/Core/Src/usbd_core.c ****         }
1071:Middlewares/ST/STM32_USB_Device_Library/Core/Src/usbd_core.c ****       }
1072:Middlewares/ST/STM32_USB_Device_Library/Core/Src/usbd_core.c ****     }
1073:Middlewares/ST/STM32_USB_Device_Library/Core/Src/usbd_core.c ****   }
1074:Middlewares/ST/STM32_USB_Device_Library/Core/Src/usbd_core.c **** 
1075:Middlewares/ST/STM32_USB_Device_Library/Core/Src/usbd_core.c ****   return 0xFFU;
 1733              		.loc 1 1075 10 view .LVU548
ARM GAS  C:\Users\ADMINI~1\AppData\Local\Temp\cczL7LlO.s 			page 52


 1734 0058 FF20     		movs	r0, #255
 1735              	.LVL133:
1076:Middlewares/ST/STM32_USB_Device_Library/Core/Src/usbd_core.c **** #else
1077:Middlewares/ST/STM32_USB_Device_Library/Core/Src/usbd_core.c ****   UNUSED(pdev);
1078:Middlewares/ST/STM32_USB_Device_Library/Core/Src/usbd_core.c ****   UNUSED(index);
1079:Middlewares/ST/STM32_USB_Device_Library/Core/Src/usbd_core.c **** 
1080:Middlewares/ST/STM32_USB_Device_Library/Core/Src/usbd_core.c ****   return 0x00U;
1081:Middlewares/ST/STM32_USB_Device_Library/Core/Src/usbd_core.c **** #endif /* USE_USBD_COMPOSITE */
1082:Middlewares/ST/STM32_USB_Device_Library/Core/Src/usbd_core.c **** }
 1736              		.loc 1 1082 1 view .LVU549
 1737 005a 7047     		bx	lr
 1738              		.cfi_endproc
 1739              	.LFE156:
 1741              		.section	.text.USBD_CoreFindEP,"ax",%progbits
 1742              		.align	1
 1743              		.global	USBD_CoreFindEP
 1744              		.syntax unified
 1745              		.thumb
 1746              		.thumb_func
 1748              	USBD_CoreFindEP:
 1749              	.LVL134:
 1750              	.LFB157:
1083:Middlewares/ST/STM32_USB_Device_Library/Core/Src/usbd_core.c **** 
1084:Middlewares/ST/STM32_USB_Device_Library/Core/Src/usbd_core.c **** /**
1085:Middlewares/ST/STM32_USB_Device_Library/Core/Src/usbd_core.c ****   * @brief  USBD_CoreFindEP
1086:Middlewares/ST/STM32_USB_Device_Library/Core/Src/usbd_core.c ****   *         return the class index relative to the selected endpoint
1087:Middlewares/ST/STM32_USB_Device_Library/Core/Src/usbd_core.c ****   * @param  pdev: device instance
1088:Middlewares/ST/STM32_USB_Device_Library/Core/Src/usbd_core.c ****   * @param  index : selected endpoint number
1089:Middlewares/ST/STM32_USB_Device_Library/Core/Src/usbd_core.c ****   * @retval index of the class using the selected endpoint number. 0xFF if no class found.
1090:Middlewares/ST/STM32_USB_Device_Library/Core/Src/usbd_core.c ****   */
1091:Middlewares/ST/STM32_USB_Device_Library/Core/Src/usbd_core.c **** uint8_t USBD_CoreFindEP(USBD_HandleTypeDef *pdev, uint8_t index)
1092:Middlewares/ST/STM32_USB_Device_Library/Core/Src/usbd_core.c **** {
 1751              		.loc 1 1092 1 is_stmt 1 view -0
 1752              		.cfi_startproc
 1753              		@ args = 0, pretend = 0, frame = 0
 1754              		@ frame_needed = 0, uses_anonymous_args = 0
 1755              		@ link register save eliminated.
1093:Middlewares/ST/STM32_USB_Device_Library/Core/Src/usbd_core.c **** #ifdef USE_USBD_COMPOSITE
1094:Middlewares/ST/STM32_USB_Device_Library/Core/Src/usbd_core.c ****   /* Parse the table of classes in use */
1095:Middlewares/ST/STM32_USB_Device_Library/Core/Src/usbd_core.c ****   for (uint32_t i = 0U; i < USBD_MAX_SUPPORTED_CLASS; i++)
 1756              		.loc 1 1095 3 view .LVU551
 1757              	.LBB16:
 1758              		.loc 1 1095 8 view .LVU552
 1759              		.loc 1 1095 17 is_stmt 0 view .LVU553
 1760 0000 0023     		movs	r3, #0
 1761              		.loc 1 1095 3 view .LVU554
 1762 0002 1CE0     		b	.L126
 1763              	.LVL135:
 1764              	.L129:
 1765              	.LBB17:
1096:Middlewares/ST/STM32_USB_Device_Library/Core/Src/usbd_core.c ****   {
1097:Middlewares/ST/STM32_USB_Device_Library/Core/Src/usbd_core.c ****     /* Check if current class is in use */
1098:Middlewares/ST/STM32_USB_Device_Library/Core/Src/usbd_core.c ****     if ((pdev->tclasslist[i].Active) == 1U)
1099:Middlewares/ST/STM32_USB_Device_Library/Core/Src/usbd_core.c ****     {
1100:Middlewares/ST/STM32_USB_Device_Library/Core/Src/usbd_core.c ****       /* Parse all endpoints listed in the current class */
1101:Middlewares/ST/STM32_USB_Device_Library/Core/Src/usbd_core.c ****       for (uint32_t j = 0U; j < pdev->tclasslist[i].NumEps; j++)
 1766              		.loc 1 1101 61 is_stmt 1 discriminator 2 view .LVU555
ARM GAS  C:\Users\ADMINI~1\AppData\Local\Temp\cczL7LlO.s 			page 53


 1767              		.loc 1 1101 62 is_stmt 0 discriminator 2 view .LVU556
 1768 0004 0CF1010C 		add	ip, ip, #1
 1769              	.LVL136:
 1770              	.L127:
 1771              		.loc 1 1101 29 is_stmt 1 discriminator 1 view .LVU557
 1772              		.loc 1 1101 52 is_stmt 0 discriminator 1 view .LVU558
 1773 0008 C3EBC302 		rsb	r2, r3, r3, lsl #3
 1774 000c 00EBC202 		add	r2, r0, r2, lsl #3
 1775 0010 D2F80C23 		ldr	r2, [r2, #780]
 1776              		.loc 1 1101 7 discriminator 1 view .LVU559
 1777 0014 6245     		cmp	r2, ip
 1778 0016 11D9     		bls	.L128
1102:Middlewares/ST/STM32_USB_Device_Library/Core/Src/usbd_core.c ****       {
1103:Middlewares/ST/STM32_USB_Device_Library/Core/Src/usbd_core.c ****         /* Check if requested endpoint matches the current class endpoint */
1104:Middlewares/ST/STM32_USB_Device_Library/Core/Src/usbd_core.c ****         if (pdev->tclasslist[i].Eps[j].add == index)
 1779              		.loc 1 1104 9 is_stmt 1 view .LVU560
 1780              		.loc 1 1104 39 is_stmt 0 view .LVU561
 1781 0018 C3EBC302 		rsb	r2, r3, r3, lsl #3
 1782 001c 0CEB4202 		add	r2, ip, r2, lsl #1
 1783 0020 C432     		adds	r2, r2, #196
 1784 0022 10F82220 		ldrb	r2, [r0, r2, lsl #2]	@ zero_extendqisi2
 1785              		.loc 1 1104 12 view .LVU562
 1786 0026 8A42     		cmp	r2, r1
 1787 0028 ECD1     		bne	.L129
1105:Middlewares/ST/STM32_USB_Device_Library/Core/Src/usbd_core.c ****         {
1106:Middlewares/ST/STM32_USB_Device_Library/Core/Src/usbd_core.c ****           if (pdev->pClass[i]->Setup != NULL)
 1788              		.loc 1 1106 11 is_stmt 1 view .LVU563
 1789              		.loc 1 1106 27 is_stmt 0 view .LVU564
 1790 002a 03F1AE02 		add	r2, r3, #174
 1791 002e 50F82220 		ldr	r2, [r0, r2, lsl #2]
 1792              		.loc 1 1106 30 view .LVU565
 1793 0032 9268     		ldr	r2, [r2, #8]
 1794              		.loc 1 1106 14 view .LVU566
 1795 0034 002A     		cmp	r2, #0
 1796 0036 E5D0     		beq	.L129
1107:Middlewares/ST/STM32_USB_Device_Library/Core/Src/usbd_core.c ****           {
1108:Middlewares/ST/STM32_USB_Device_Library/Core/Src/usbd_core.c ****             return (uint8_t)i;
 1797              		.loc 1 1108 13 is_stmt 1 view .LVU567
 1798              		.loc 1 1108 20 is_stmt 0 view .LVU568
 1799 0038 D8B2     		uxtb	r0, r3
 1800              	.LVL137:
 1801              		.loc 1 1108 20 view .LVU569
 1802 003a 7047     		bx	lr
 1803              	.LVL138:
 1804              	.L128:
 1805              		.loc 1 1108 20 view .LVU570
 1806              	.LBE17:
1095:Middlewares/ST/STM32_USB_Device_Library/Core/Src/usbd_core.c ****   {
 1807              		.loc 1 1095 55 is_stmt 1 discriminator 2 view .LVU571
1095:Middlewares/ST/STM32_USB_Device_Library/Core/Src/usbd_core.c ****   {
 1808              		.loc 1 1095 56 is_stmt 0 discriminator 2 view .LVU572
 1809 003c 0133     		adds	r3, r3, #1
 1810              	.LVL139:
 1811              	.L126:
1095:Middlewares/ST/STM32_USB_Device_Library/Core/Src/usbd_core.c ****   {
 1812              		.loc 1 1095 25 is_stmt 1 discriminator 1 view .LVU573
1095:Middlewares/ST/STM32_USB_Device_Library/Core/Src/usbd_core.c ****   {
ARM GAS  C:\Users\ADMINI~1\AppData\Local\Temp\cczL7LlO.s 			page 54


 1813              		.loc 1 1095 3 is_stmt 0 discriminator 1 view .LVU574
 1814 003e 032B     		cmp	r3, #3
 1815 0040 0AD8     		bhi	.L134
1098:Middlewares/ST/STM32_USB_Device_Library/Core/Src/usbd_core.c ****     {
 1816              		.loc 1 1098 5 is_stmt 1 view .LVU575
1098:Middlewares/ST/STM32_USB_Device_Library/Core/Src/usbd_core.c ****     {
 1817              		.loc 1 1098 29 is_stmt 0 view .LVU576
 1818 0042 C3EBC302 		rsb	r2, r3, r3, lsl #3
 1819 0046 00EBC202 		add	r2, r0, r2, lsl #3
 1820 004a D2F80823 		ldr	r2, [r2, #776]
1098:Middlewares/ST/STM32_USB_Device_Library/Core/Src/usbd_core.c ****     {
 1821              		.loc 1 1098 8 view .LVU577
 1822 004e 012A     		cmp	r2, #1
 1823 0050 F4D1     		bne	.L128
 1824              	.LBB18:
1101:Middlewares/ST/STM32_USB_Device_Library/Core/Src/usbd_core.c ****       {
 1825              		.loc 1 1101 21 view .LVU578
 1826 0052 4FF0000C 		mov	ip, #0
 1827 0056 D7E7     		b	.L127
 1828              	.L134:
1101:Middlewares/ST/STM32_USB_Device_Library/Core/Src/usbd_core.c ****       {
 1829              		.loc 1 1101 21 view .LVU579
 1830              	.LBE18:
 1831              	.LBE16:
1109:Middlewares/ST/STM32_USB_Device_Library/Core/Src/usbd_core.c ****           }
1110:Middlewares/ST/STM32_USB_Device_Library/Core/Src/usbd_core.c ****         }
1111:Middlewares/ST/STM32_USB_Device_Library/Core/Src/usbd_core.c ****       }
1112:Middlewares/ST/STM32_USB_Device_Library/Core/Src/usbd_core.c ****     }
1113:Middlewares/ST/STM32_USB_Device_Library/Core/Src/usbd_core.c ****   }
1114:Middlewares/ST/STM32_USB_Device_Library/Core/Src/usbd_core.c **** 
1115:Middlewares/ST/STM32_USB_Device_Library/Core/Src/usbd_core.c ****   return 0xFFU;
 1832              		.loc 1 1115 10 view .LVU580
 1833 0058 FF20     		movs	r0, #255
 1834              	.LVL140:
1116:Middlewares/ST/STM32_USB_Device_Library/Core/Src/usbd_core.c **** #else
1117:Middlewares/ST/STM32_USB_Device_Library/Core/Src/usbd_core.c ****   UNUSED(pdev);
1118:Middlewares/ST/STM32_USB_Device_Library/Core/Src/usbd_core.c ****   UNUSED(index);
1119:Middlewares/ST/STM32_USB_Device_Library/Core/Src/usbd_core.c **** 
1120:Middlewares/ST/STM32_USB_Device_Library/Core/Src/usbd_core.c ****   return 0x00U;
1121:Middlewares/ST/STM32_USB_Device_Library/Core/Src/usbd_core.c **** #endif /* USE_USBD_COMPOSITE */
1122:Middlewares/ST/STM32_USB_Device_Library/Core/Src/usbd_core.c **** }
 1835              		.loc 1 1122 1 view .LVU581
 1836 005a 7047     		bx	lr
 1837              		.cfi_endproc
 1838              	.LFE157:
 1840              		.section	.text.USBD_LL_DataOutStage,"ax",%progbits
 1841              		.align	1
 1842              		.global	USBD_LL_DataOutStage
 1843              		.syntax unified
 1844              		.thumb
 1845              		.thumb_func
 1847              	USBD_LL_DataOutStage:
 1848              	.LVL141:
 1849              	.LFB145:
 577:Middlewares/ST/STM32_USB_Device_Library/Core/Src/usbd_core.c ****   USBD_EndpointTypeDef *pep;
 1850              		.loc 1 577 1 is_stmt 1 view -0
 1851              		.cfi_startproc
ARM GAS  C:\Users\ADMINI~1\AppData\Local\Temp\cczL7LlO.s 			page 55


 1852              		@ args = 0, pretend = 0, frame = 0
 1853              		@ frame_needed = 0, uses_anonymous_args = 0
 577:Middlewares/ST/STM32_USB_Device_Library/Core/Src/usbd_core.c ****   USBD_EndpointTypeDef *pep;
 1854              		.loc 1 577 1 is_stmt 0 view .LVU583
 1855 0000 38B5     		push	{r3, r4, r5, lr}
 1856              	.LCFI22:
 1857              		.cfi_def_cfa_offset 16
 1858              		.cfi_offset 3, -16
 1859              		.cfi_offset 4, -12
 1860              		.cfi_offset 5, -8
 1861              		.cfi_offset 14, -4
 1862 0002 0446     		mov	r4, r0
 578:Middlewares/ST/STM32_USB_Device_Library/Core/Src/usbd_core.c ****   USBD_StatusTypeDef ret = USBD_OK;
 1863              		.loc 1 578 3 is_stmt 1 view .LVU584
 579:Middlewares/ST/STM32_USB_Device_Library/Core/Src/usbd_core.c ****   uint8_t idx;
 1864              		.loc 1 579 3 view .LVU585
 1865              	.LVL142:
 580:Middlewares/ST/STM32_USB_Device_Library/Core/Src/usbd_core.c **** 
 1866              		.loc 1 580 3 view .LVU586
 582:Middlewares/ST/STM32_USB_Device_Library/Core/Src/usbd_core.c ****   {
 1867              		.loc 1 582 3 view .LVU587
 582:Middlewares/ST/STM32_USB_Device_Library/Core/Src/usbd_core.c ****   {
 1868              		.loc 1 582 6 is_stmt 0 view .LVU588
 1869 0004 0D46     		mov	r5, r1
 1870 0006 0029     		cmp	r1, #0
 1871 0008 43D1     		bne	.L136
 1872 000a 1346     		mov	r3, r2
 584:Middlewares/ST/STM32_USB_Device_Library/Core/Src/usbd_core.c **** 
 1873              		.loc 1 584 5 is_stmt 1 view .LVU589
 1874              	.LVL143:
 586:Middlewares/ST/STM32_USB_Device_Library/Core/Src/usbd_core.c ****     {
 1875              		.loc 1 586 5 view .LVU590
 586:Middlewares/ST/STM32_USB_Device_Library/Core/Src/usbd_core.c ****     {
 1876              		.loc 1 586 13 is_stmt 0 view .LVU591
 1877 000c D0F89422 		ldr	r2, [r0, #660]
 1878              	.LVL144:
 586:Middlewares/ST/STM32_USB_Device_Library/Core/Src/usbd_core.c ****     {
 1879              		.loc 1 586 8 view .LVU592
 1880 0010 032A     		cmp	r2, #3
 1881 0012 01D0     		beq	.L149
 674:Middlewares/ST/STM32_USB_Device_Library/Core/Src/usbd_core.c **** }
 1882              		.loc 1 674 10 view .LVU593
 1883 0014 0846     		mov	r0, r1
 1884              	.LVL145:
 1885              	.L137:
 675:Middlewares/ST/STM32_USB_Device_Library/Core/Src/usbd_core.c **** 
 1886              		.loc 1 675 1 view .LVU594
 1887 0016 38BD     		pop	{r3, r4, r5, pc}
 1888              	.LVL146:
 1889              	.L149:
 588:Middlewares/ST/STM32_USB_Device_Library/Core/Src/usbd_core.c ****       {
 1890              		.loc 1 588 7 is_stmt 1 view .LVU595
 588:Middlewares/ST/STM32_USB_Device_Library/Core/Src/usbd_core.c ****       {
 1891              		.loc 1 588 14 is_stmt 0 view .LVU596
 1892 0018 D0F85C11 		ldr	r1, [r0, #348]
 1893              	.LVL147:
 588:Middlewares/ST/STM32_USB_Device_Library/Core/Src/usbd_core.c ****       {
ARM GAS  C:\Users\ADMINI~1\AppData\Local\Temp\cczL7LlO.s 			page 56


 1894              		.loc 1 588 32 view .LVU597
 1895 001c D0F86021 		ldr	r2, [r0, #352]
 588:Middlewares/ST/STM32_USB_Device_Library/Core/Src/usbd_core.c ****       {
 1896              		.loc 1 588 10 view .LVU598
 1897 0020 9142     		cmp	r1, r2
 1898 0022 12D8     		bhi	.L150
 597:Middlewares/ST/STM32_USB_Device_Library/Core/Src/usbd_core.c ****         {
 1899              		.loc 1 597 9 is_stmt 1 view .LVU599
 597:Middlewares/ST/STM32_USB_Device_Library/Core/Src/usbd_core.c ****         {
 1900              		.loc 1 597 30 is_stmt 0 view .LVU600
 1901 0024 90F8AA32 		ldrb	r3, [r0, #682]	@ zero_extendqisi2
 1902              	.LVL148:
 597:Middlewares/ST/STM32_USB_Device_Library/Core/Src/usbd_core.c ****         {
 1903              		.loc 1 597 30 view .LVU601
 1904 0028 03F01F03 		and	r3, r3, #31
 597:Middlewares/ST/STM32_USB_Device_Library/Core/Src/usbd_core.c ****         {
 1905              		.loc 1 597 9 view .LVU602
 1906 002c 012B     		cmp	r3, #1
 1907 002e 17D0     		beq	.L139
 1908 0030 022B     		cmp	r3, #2
 1909 0032 1CD0     		beq	.L140
 1910 0034 2846     		mov	r0, r5
 1911              	.LVL149:
 1912              	.L141:
 624:Middlewares/ST/STM32_USB_Device_Library/Core/Src/usbd_core.c ****           {
 1913              		.loc 1 624 11 is_stmt 1 view .LVU603
 624:Middlewares/ST/STM32_USB_Device_Library/Core/Src/usbd_core.c ****           {
 1914              		.loc 1 624 19 is_stmt 0 view .LVU604
 1915 0036 94F89C32 		ldrb	r3, [r4, #668]	@ zero_extendqisi2
 1916 003a DBB2     		uxtb	r3, r3
 624:Middlewares/ST/STM32_USB_Device_Library/Core/Src/usbd_core.c ****           {
 1917              		.loc 1 624 14 view .LVU605
 1918 003c 032B     		cmp	r3, #3
 1919 003e 1BD0     		beq	.L151
 1920              	.L143:
 634:Middlewares/ST/STM32_USB_Device_Library/Core/Src/usbd_core.c ****       }
 1921              		.loc 1 634 9 is_stmt 1 view .LVU606
 634:Middlewares/ST/STM32_USB_Device_Library/Core/Src/usbd_core.c ****       }
 1922              		.loc 1 634 15 is_stmt 0 view .LVU607
 1923 0040 2046     		mov	r0, r4
 1924 0042 FFF7FEFF 		bl	USBD_CtlSendStatus
 1925              	.LVL150:
 674:Middlewares/ST/STM32_USB_Device_Library/Core/Src/usbd_core.c **** }
 1926              		.loc 1 674 10 view .LVU608
 1927 0046 2846     		mov	r0, r5
 1928 0048 E5E7     		b	.L137
 1929              	.LVL151:
 1930              	.L150:
 590:Middlewares/ST/STM32_USB_Device_Library/Core/Src/usbd_core.c **** 
 1931              		.loc 1 590 9 is_stmt 1 view .LVU609
 590:Middlewares/ST/STM32_USB_Device_Library/Core/Src/usbd_core.c **** 
 1932              		.loc 1 590 25 is_stmt 0 view .LVU610
 1933 004a 891A     		subs	r1, r1, r2
 1934 004c C0F85C11 		str	r1, [r0, #348]
 592:Middlewares/ST/STM32_USB_Device_Library/Core/Src/usbd_core.c ****       }
 1935              		.loc 1 592 9 is_stmt 1 view .LVU611
 592:Middlewares/ST/STM32_USB_Device_Library/Core/Src/usbd_core.c ****       }
ARM GAS  C:\Users\ADMINI~1\AppData\Local\Temp\cczL7LlO.s 			page 57


 1936              		.loc 1 592 15 is_stmt 0 view .LVU612
 1937 0050 8A42     		cmp	r2, r1
 1938 0052 28BF     		it	cs
 1939 0054 0A46     		movcs	r2, r1
 1940 0056 1946     		mov	r1, r3
 1941 0058 FFF7FEFF 		bl	USBD_CtlContinueRx
 1942              	.LVL152:
 674:Middlewares/ST/STM32_USB_Device_Library/Core/Src/usbd_core.c **** }
 1943              		.loc 1 674 10 view .LVU613
 1944 005c 2846     		mov	r0, r5
 1945 005e DAE7     		b	.L137
 1946              	.LVL153:
 1947              	.L139:
 606:Middlewares/ST/STM32_USB_Device_Library/Core/Src/usbd_core.c ****             
 1948              		.loc 1 606 13 is_stmt 1 view .LVU614
 606:Middlewares/ST/STM32_USB_Device_Library/Core/Src/usbd_core.c ****             
 1949              		.loc 1 606 19 is_stmt 0 view .LVU615
 1950 0060 90F8AE12 		ldrb	r1, [r0, #686]	@ zero_extendqisi2
 1951 0064 FFF7FEFF 		bl	USBD_CoreFindIF
 1952              	.LVL154:
 608:Middlewares/ST/STM32_USB_Device_Library/Core/Src/usbd_core.c **** 
 1953              		.loc 1 608 13 is_stmt 1 view .LVU616
 1954              	.L142:
 621:Middlewares/ST/STM32_USB_Device_Library/Core/Src/usbd_core.c ****         {
 1955              		.loc 1 621 9 view .LVU617
 621:Middlewares/ST/STM32_USB_Device_Library/Core/Src/usbd_core.c ****         {
 1956              		.loc 1 621 12 is_stmt 0 view .LVU618
 1957 0068 0328     		cmp	r0, #3
 1958 006a E9D8     		bhi	.L143
 621:Middlewares/ST/STM32_USB_Device_Library/Core/Src/usbd_core.c ****         {
 1959              		.loc 1 621 12 view .LVU619
 1960 006c E3E7     		b	.L141
 1961              	.LVL155:
 1962              	.L140:
 611:Middlewares/ST/STM32_USB_Device_Library/Core/Src/usbd_core.c ****            
 1963              		.loc 1 611 13 is_stmt 1 view .LVU620
 611:Middlewares/ST/STM32_USB_Device_Library/Core/Src/usbd_core.c ****            
 1964              		.loc 1 611 19 is_stmt 0 view .LVU621
 1965 006e 90F8AE12 		ldrb	r1, [r0, #686]	@ zero_extendqisi2
 1966 0072 FFF7FEFF 		bl	USBD_CoreFindEP
 1967              	.LVL156:
 613:Middlewares/ST/STM32_USB_Device_Library/Core/Src/usbd_core.c **** 
 1968              		.loc 1 613 13 is_stmt 1 view .LVU622
 1969 0076 F7E7     		b	.L142
 1970              	.LVL157:
 1971              	.L151:
 626:Middlewares/ST/STM32_USB_Device_Library/Core/Src/usbd_core.c ****             {
 1972              		.loc 1 626 13 view .LVU623
 626:Middlewares/ST/STM32_USB_Device_Library/Core/Src/usbd_core.c ****             {
 1973              		.loc 1 626 29 is_stmt 0 view .LVU624
 1974 0078 00F1AE03 		add	r3, r0, #174
 1975 007c 54F82330 		ldr	r3, [r4, r3, lsl #2]
 626:Middlewares/ST/STM32_USB_Device_Library/Core/Src/usbd_core.c ****             {
 1976              		.loc 1 626 34 view .LVU625
 1977 0080 1A69     		ldr	r2, [r3, #16]
 626:Middlewares/ST/STM32_USB_Device_Library/Core/Src/usbd_core.c ****             {
 1978              		.loc 1 626 16 view .LVU626
ARM GAS  C:\Users\ADMINI~1\AppData\Local\Temp\cczL7LlO.s 			page 58


 1979 0082 002A     		cmp	r2, #0
 1980 0084 DCD0     		beq	.L143
 628:Middlewares/ST/STM32_USB_Device_Library/Core/Src/usbd_core.c ****               pdev->pClass[idx]->EP0_RxReady(pdev);
 1981              		.loc 1 628 15 is_stmt 1 view .LVU627
 628:Middlewares/ST/STM32_USB_Device_Library/Core/Src/usbd_core.c ****               pdev->pClass[idx]->EP0_RxReady(pdev);
 1982              		.loc 1 628 29 is_stmt 0 view .LVU628
 1983 0086 C4F8F802 		str	r0, [r4, #760]
 629:Middlewares/ST/STM32_USB_Device_Library/Core/Src/usbd_core.c ****             }
 1984              		.loc 1 629 15 is_stmt 1 view .LVU629
 629:Middlewares/ST/STM32_USB_Device_Library/Core/Src/usbd_core.c ****             }
 1985              		.loc 1 629 32 is_stmt 0 view .LVU630
 1986 008a 1B69     		ldr	r3, [r3, #16]
 629:Middlewares/ST/STM32_USB_Device_Library/Core/Src/usbd_core.c ****             }
 1987              		.loc 1 629 15 view .LVU631
 1988 008c 2046     		mov	r0, r4
 1989 008e 9847     		blx	r3
 1990              	.LVL158:
 1991 0090 D6E7     		b	.L143
 1992              	.LVL159:
 1993              	.L136:
 654:Middlewares/ST/STM32_USB_Device_Library/Core/Src/usbd_core.c **** 
 1994              		.loc 1 654 5 is_stmt 1 view .LVU632
 654:Middlewares/ST/STM32_USB_Device_Library/Core/Src/usbd_core.c **** 
 1995              		.loc 1 654 11 is_stmt 0 view .LVU633
 1996 0092 01F07F01 		and	r1, r1, #127
 1997              	.LVL160:
 654:Middlewares/ST/STM32_USB_Device_Library/Core/Src/usbd_core.c **** 
 1998              		.loc 1 654 11 view .LVU634
 1999 0096 FFF7FEFF 		bl	USBD_CoreFindEP
 2000              	.LVL161:
 656:Middlewares/ST/STM32_USB_Device_Library/Core/Src/usbd_core.c ****     {
 2001              		.loc 1 656 5 is_stmt 1 view .LVU635
 656:Middlewares/ST/STM32_USB_Device_Library/Core/Src/usbd_core.c ****     {
 2002              		.loc 1 656 8 is_stmt 0 view .LVU636
 2003 009a 0328     		cmp	r0, #3
 2004 009c 13D8     		bhi	.L145
 659:Middlewares/ST/STM32_USB_Device_Library/Core/Src/usbd_core.c ****       {
 2005              		.loc 1 659 7 is_stmt 1 view .LVU637
 659:Middlewares/ST/STM32_USB_Device_Library/Core/Src/usbd_core.c ****       {
 2006              		.loc 1 659 15 is_stmt 0 view .LVU638
 2007 009e 94F89C32 		ldrb	r3, [r4, #668]	@ zero_extendqisi2
 2008 00a2 DBB2     		uxtb	r3, r3
 659:Middlewares/ST/STM32_USB_Device_Library/Core/Src/usbd_core.c ****       {
 2009              		.loc 1 659 10 view .LVU639
 2010 00a4 032B     		cmp	r3, #3
 2011 00a6 01D0     		beq	.L152
 674:Middlewares/ST/STM32_USB_Device_Library/Core/Src/usbd_core.c **** }
 2012              		.loc 1 674 10 view .LVU640
 2013 00a8 0020     		movs	r0, #0
 2014              	.LVL162:
 674:Middlewares/ST/STM32_USB_Device_Library/Core/Src/usbd_core.c **** }
 2015              		.loc 1 674 10 view .LVU641
 2016 00aa B4E7     		b	.L137
 2017              	.LVL163:
 2018              	.L152:
 661:Middlewares/ST/STM32_USB_Device_Library/Core/Src/usbd_core.c ****         {
 2019              		.loc 1 661 9 is_stmt 1 view .LVU642
ARM GAS  C:\Users\ADMINI~1\AppData\Local\Temp\cczL7LlO.s 			page 59


 661:Middlewares/ST/STM32_USB_Device_Library/Core/Src/usbd_core.c ****         {
 2020              		.loc 1 661 25 is_stmt 0 view .LVU643
 2021 00ac 00F1AE03 		add	r3, r0, #174
 2022 00b0 54F82330 		ldr	r3, [r4, r3, lsl #2]
 661:Middlewares/ST/STM32_USB_Device_Library/Core/Src/usbd_core.c ****         {
 2023              		.loc 1 661 30 view .LVU644
 2024 00b4 9A69     		ldr	r2, [r3, #24]
 661:Middlewares/ST/STM32_USB_Device_Library/Core/Src/usbd_core.c ****         {
 2025              		.loc 1 661 12 view .LVU645
 2026 00b6 42B1     		cbz	r2, .L147
 663:Middlewares/ST/STM32_USB_Device_Library/Core/Src/usbd_core.c ****           ret = (USBD_StatusTypeDef)pdev->pClass[idx]->DataOut(pdev, epnum);
 2027              		.loc 1 663 11 is_stmt 1 view .LVU646
 663:Middlewares/ST/STM32_USB_Device_Library/Core/Src/usbd_core.c ****           ret = (USBD_StatusTypeDef)pdev->pClass[idx]->DataOut(pdev, epnum);
 2028              		.loc 1 663 25 is_stmt 0 view .LVU647
 2029 00b8 C4F8F802 		str	r0, [r4, #760]
 664:Middlewares/ST/STM32_USB_Device_Library/Core/Src/usbd_core.c ****         }
 2030              		.loc 1 664 11 is_stmt 1 view .LVU648
 664:Middlewares/ST/STM32_USB_Device_Library/Core/Src/usbd_core.c ****         }
 2031              		.loc 1 664 54 is_stmt 0 view .LVU649
 2032 00bc 9B69     		ldr	r3, [r3, #24]
 664:Middlewares/ST/STM32_USB_Device_Library/Core/Src/usbd_core.c ****         }
 2033              		.loc 1 664 37 view .LVU650
 2034 00be 2946     		mov	r1, r5
 2035 00c0 2046     		mov	r0, r4
 2036              	.LVL164:
 664:Middlewares/ST/STM32_USB_Device_Library/Core/Src/usbd_core.c ****         }
 2037              		.loc 1 664 37 view .LVU651
 2038 00c2 9847     		blx	r3
 2039              	.LVL165:
 667:Middlewares/ST/STM32_USB_Device_Library/Core/Src/usbd_core.c ****       {
 2040              		.loc 1 667 7 is_stmt 1 view .LVU652
 2041 00c4 A7E7     		b	.L137
 2042              	.LVL166:
 2043              	.L145:
 674:Middlewares/ST/STM32_USB_Device_Library/Core/Src/usbd_core.c **** }
 2044              		.loc 1 674 10 is_stmt 0 view .LVU653
 2045 00c6 0020     		movs	r0, #0
 2046              	.LVL167:
 674:Middlewares/ST/STM32_USB_Device_Library/Core/Src/usbd_core.c **** }
 2047              		.loc 1 674 10 view .LVU654
 2048 00c8 A5E7     		b	.L137
 2049              	.LVL168:
 2050              	.L147:
 674:Middlewares/ST/STM32_USB_Device_Library/Core/Src/usbd_core.c **** }
 2051              		.loc 1 674 10 view .LVU655
 2052 00ca 0020     		movs	r0, #0
 2053              	.LVL169:
 674:Middlewares/ST/STM32_USB_Device_Library/Core/Src/usbd_core.c **** }
 2054              		.loc 1 674 10 view .LVU656
 2055 00cc A3E7     		b	.L137
 2056              		.cfi_endproc
 2057              	.LFE145:
 2059              		.section	.text.USBD_LL_DataInStage,"ax",%progbits
 2060              		.align	1
 2061              		.global	USBD_LL_DataInStage
 2062              		.syntax unified
 2063              		.thumb
ARM GAS  C:\Users\ADMINI~1\AppData\Local\Temp\cczL7LlO.s 			page 60


 2064              		.thumb_func
 2066              	USBD_LL_DataInStage:
 2067              	.LVL170:
 2068              	.LFB146:
 686:Middlewares/ST/STM32_USB_Device_Library/Core/Src/usbd_core.c ****   USBD_EndpointTypeDef *pep;
 2069              		.loc 1 686 1 is_stmt 1 view -0
 2070              		.cfi_startproc
 2071              		@ args = 0, pretend = 0, frame = 0
 2072              		@ frame_needed = 0, uses_anonymous_args = 0
 686:Middlewares/ST/STM32_USB_Device_Library/Core/Src/usbd_core.c ****   USBD_EndpointTypeDef *pep;
 2073              		.loc 1 686 1 is_stmt 0 view .LVU658
 2074 0000 38B5     		push	{r3, r4, r5, lr}
 2075              	.LCFI23:
 2076              		.cfi_def_cfa_offset 16
 2077              		.cfi_offset 3, -16
 2078              		.cfi_offset 4, -12
 2079              		.cfi_offset 5, -8
 2080              		.cfi_offset 14, -4
 2081 0002 0446     		mov	r4, r0
 687:Middlewares/ST/STM32_USB_Device_Library/Core/Src/usbd_core.c ****   USBD_StatusTypeDef ret;
 2082              		.loc 1 687 3 is_stmt 1 view .LVU659
 688:Middlewares/ST/STM32_USB_Device_Library/Core/Src/usbd_core.c ****   uint8_t idx;
 2083              		.loc 1 688 3 view .LVU660
 689:Middlewares/ST/STM32_USB_Device_Library/Core/Src/usbd_core.c **** 
 2084              		.loc 1 689 3 view .LVU661
 691:Middlewares/ST/STM32_USB_Device_Library/Core/Src/usbd_core.c ****   {
 2085              		.loc 1 691 3 view .LVU662
 691:Middlewares/ST/STM32_USB_Device_Library/Core/Src/usbd_core.c ****   {
 2086              		.loc 1 691 6 is_stmt 0 view .LVU663
 2087 0004 0D46     		mov	r5, r1
 2088 0006 0029     		cmp	r1, #0
 2089 0008 4BD1     		bne	.L154
 2090 000a 1346     		mov	r3, r2
 693:Middlewares/ST/STM32_USB_Device_Library/Core/Src/usbd_core.c **** 
 2091              		.loc 1 693 5 is_stmt 1 view .LVU664
 2092              	.LVL171:
 695:Middlewares/ST/STM32_USB_Device_Library/Core/Src/usbd_core.c ****     {
 2093              		.loc 1 695 5 view .LVU665
 695:Middlewares/ST/STM32_USB_Device_Library/Core/Src/usbd_core.c ****     {
 2094              		.loc 1 695 13 is_stmt 0 view .LVU666
 2095 000c D0F89422 		ldr	r2, [r0, #660]
 2096              	.LVL172:
 695:Middlewares/ST/STM32_USB_Device_Library/Core/Src/usbd_core.c ****     {
 2097              		.loc 1 695 8 view .LVU667
 2098 0010 022A     		cmp	r2, #2
 2099 0012 07D0     		beq	.L164
 2100              	.LVL173:
 2101              	.L155:
 743:Middlewares/ST/STM32_USB_Device_Library/Core/Src/usbd_core.c **** 
 2102              		.loc 1 743 5 is_stmt 1 view .LVU668
 745:Middlewares/ST/STM32_USB_Device_Library/Core/Src/usbd_core.c ****     {
 2103              		.loc 1 745 5 view .LVU669
 745:Middlewares/ST/STM32_USB_Device_Library/Core/Src/usbd_core.c ****     {
 2104              		.loc 1 745 13 is_stmt 0 view .LVU670
 2105 0014 94F8A002 		ldrb	r0, [r4, #672]	@ zero_extendqisi2
 745:Middlewares/ST/STM32_USB_Device_Library/Core/Src/usbd_core.c ****     {
 2106              		.loc 1 745 8 view .LVU671
ARM GAS  C:\Users\ADMINI~1\AppData\Local\Temp\cczL7LlO.s 			page 61


 2107 0018 18B1     		cbz	r0, .L159
 747:Middlewares/ST/STM32_USB_Device_Library/Core/Src/usbd_core.c ****       pdev->dev_test_mode = 0U;
 2108              		.loc 1 747 7 is_stmt 1 view .LVU672
 748:Middlewares/ST/STM32_USB_Device_Library/Core/Src/usbd_core.c ****     }
 2109              		.loc 1 748 7 view .LVU673
 748:Middlewares/ST/STM32_USB_Device_Library/Core/Src/usbd_core.c ****     }
 2110              		.loc 1 748 27 is_stmt 0 view .LVU674
 2111 001a 0023     		movs	r3, #0
 2112 001c 84F8A032 		strb	r3, [r4, #672]
 775:Middlewares/ST/STM32_USB_Device_Library/Core/Src/usbd_core.c **** }
 2113              		.loc 1 775 10 view .LVU675
 2114 0020 2846     		mov	r0, r5
 2115              	.LVL174:
 2116              	.L159:
 776:Middlewares/ST/STM32_USB_Device_Library/Core/Src/usbd_core.c **** 
 2117              		.loc 1 776 1 view .LVU676
 2118 0022 38BD     		pop	{r3, r4, r5, pc}
 2119              	.LVL175:
 2120              	.L164:
 697:Middlewares/ST/STM32_USB_Device_Library/Core/Src/usbd_core.c ****       {
 2121              		.loc 1 697 7 is_stmt 1 view .LVU677
 697:Middlewares/ST/STM32_USB_Device_Library/Core/Src/usbd_core.c ****       {
 2122              		.loc 1 697 14 is_stmt 0 view .LVU678
 2123 0024 C269     		ldr	r2, [r0, #28]
 697:Middlewares/ST/STM32_USB_Device_Library/Core/Src/usbd_core.c ****       {
 2124              		.loc 1 697 32 view .LVU679
 2125 0026 016A     		ldr	r1, [r0, #32]
 2126              	.LVL176:
 697:Middlewares/ST/STM32_USB_Device_Library/Core/Src/usbd_core.c ****       {
 2127              		.loc 1 697 10 view .LVU680
 2128 0028 8A42     		cmp	r2, r1
 2129 002a 0ED8     		bhi	.L165
 709:Middlewares/ST/STM32_USB_Device_Library/Core/Src/usbd_core.c ****             (pep->total_length >= pep->maxpacket) &&
 2130              		.loc 1 709 9 is_stmt 1 view .LVU681
 709:Middlewares/ST/STM32_USB_Device_Library/Core/Src/usbd_core.c ****             (pep->total_length >= pep->maxpacket) &&
 2131              		.loc 1 709 12 is_stmt 0 view .LVU682
 2132 002c 8A42     		cmp	r2, r1
 2133 002e 18D0     		beq	.L166
 2134              	.LVL177:
 2135              	.L157:
 721:Middlewares/ST/STM32_USB_Device_Library/Core/Src/usbd_core.c ****           {
 2136              		.loc 1 721 11 is_stmt 1 view .LVU683
 721:Middlewares/ST/STM32_USB_Device_Library/Core/Src/usbd_core.c ****           {
 2137              		.loc 1 721 19 is_stmt 0 view .LVU684
 2138 0030 94F89C32 		ldrb	r3, [r4, #668]	@ zero_extendqisi2
 2139 0034 DBB2     		uxtb	r3, r3
 721:Middlewares/ST/STM32_USB_Device_Library/Core/Src/usbd_core.c ****           {
 2140              		.loc 1 721 14 view .LVU685
 2141 0036 032B     		cmp	r3, #3
 2142 0038 27D0     		beq	.L167
 2143              	.LVL178:
 2144              	.L158:
 729:Middlewares/ST/STM32_USB_Device_Library/Core/Src/usbd_core.c ****           (void)USBD_CtlReceiveStatus(pdev);
 2145              		.loc 1 729 11 is_stmt 1 view .LVU686
 729:Middlewares/ST/STM32_USB_Device_Library/Core/Src/usbd_core.c ****           (void)USBD_CtlReceiveStatus(pdev);
 2146              		.loc 1 729 17 is_stmt 0 view .LVU687
 2147 003a 8021     		movs	r1, #128
ARM GAS  C:\Users\ADMINI~1\AppData\Local\Temp\cczL7LlO.s 			page 62


 2148 003c 2046     		mov	r0, r4
 2149 003e FFF7FEFF 		bl	USBD_LL_StallEP
 2150              	.LVL179:
 730:Middlewares/ST/STM32_USB_Device_Library/Core/Src/usbd_core.c ****         }
 2151              		.loc 1 730 11 is_stmt 1 view .LVU688
 730:Middlewares/ST/STM32_USB_Device_Library/Core/Src/usbd_core.c ****         }
 2152              		.loc 1 730 17 is_stmt 0 view .LVU689
 2153 0042 2046     		mov	r0, r4
 2154 0044 FFF7FEFF 		bl	USBD_CtlReceiveStatus
 2155              	.LVL180:
 2156 0048 E4E7     		b	.L155
 2157              	.LVL181:
 2158              	.L165:
 699:Middlewares/ST/STM32_USB_Device_Library/Core/Src/usbd_core.c **** 
 2159              		.loc 1 699 9 is_stmt 1 view .LVU690
 699:Middlewares/ST/STM32_USB_Device_Library/Core/Src/usbd_core.c **** 
 2160              		.loc 1 699 25 is_stmt 0 view .LVU691
 2161 004a 521A     		subs	r2, r2, r1
 2162 004c C261     		str	r2, [r0, #28]
 701:Middlewares/ST/STM32_USB_Device_Library/Core/Src/usbd_core.c **** 
 2163              		.loc 1 701 9 is_stmt 1 view .LVU692
 701:Middlewares/ST/STM32_USB_Device_Library/Core/Src/usbd_core.c **** 
 2164              		.loc 1 701 15 is_stmt 0 view .LVU693
 2165 004e 1946     		mov	r1, r3
 2166 0050 FFF7FEFF 		bl	USBD_CtlContinueSendData
 2167              	.LVL182:
 704:Middlewares/ST/STM32_USB_Device_Library/Core/Src/usbd_core.c ****       }
 2168              		.loc 1 704 9 is_stmt 1 view .LVU694
 704:Middlewares/ST/STM32_USB_Device_Library/Core/Src/usbd_core.c ****       }
 2169              		.loc 1 704 15 is_stmt 0 view .LVU695
 2170 0054 0023     		movs	r3, #0
 2171 0056 1A46     		mov	r2, r3
 2172 0058 1946     		mov	r1, r3
 2173 005a 2046     		mov	r0, r4
 2174 005c FFF7FEFF 		bl	USBD_LL_PrepareReceive
 2175              	.LVL183:
 2176 0060 D8E7     		b	.L155
 2177              	.LVL184:
 2178              	.L166:
 710:Middlewares/ST/STM32_USB_Device_Library/Core/Src/usbd_core.c ****             (pep->total_length < pdev->ep0_data_len))
 2179              		.loc 1 710 17 discriminator 1 view .LVU696
 2180 0062 8369     		ldr	r3, [r0, #24]
 2181              	.LVL185:
 709:Middlewares/ST/STM32_USB_Device_Library/Core/Src/usbd_core.c ****             (pep->total_length >= pep->maxpacket) &&
 2182              		.loc 1 709 49 discriminator 1 view .LVU697
 2183 0064 9942     		cmp	r1, r3
 2184 0066 E3D8     		bhi	.L157
 711:Middlewares/ST/STM32_USB_Device_Library/Core/Src/usbd_core.c ****         {
 2185              		.loc 1 711 38 view .LVU698
 2186 0068 D0F89822 		ldr	r2, [r0, #664]
 710:Middlewares/ST/STM32_USB_Device_Library/Core/Src/usbd_core.c ****             (pep->total_length < pdev->ep0_data_len))
 2187              		.loc 1 710 51 view .LVU699
 2188 006c 9342     		cmp	r3, r2
 2189 006e DFD2     		bcs	.L157
 713:Middlewares/ST/STM32_USB_Device_Library/Core/Src/usbd_core.c ****           pdev->ep0_data_len = 0U;
 2190              		.loc 1 713 11 is_stmt 1 view .LVU700
 713:Middlewares/ST/STM32_USB_Device_Library/Core/Src/usbd_core.c ****           pdev->ep0_data_len = 0U;
ARM GAS  C:\Users\ADMINI~1\AppData\Local\Temp\cczL7LlO.s 			page 63


 2191              		.loc 1 713 17 is_stmt 0 view .LVU701
 2192 0070 0022     		movs	r2, #0
 2193 0072 1146     		mov	r1, r2
 2194 0074 FFF7FEFF 		bl	USBD_CtlContinueSendData
 2195              	.LVL186:
 714:Middlewares/ST/STM32_USB_Device_Library/Core/Src/usbd_core.c **** 
 2196              		.loc 1 714 11 is_stmt 1 view .LVU702
 714:Middlewares/ST/STM32_USB_Device_Library/Core/Src/usbd_core.c **** 
 2197              		.loc 1 714 30 is_stmt 0 view .LVU703
 2198 0078 0021     		movs	r1, #0
 2199 007a C4F89812 		str	r1, [r4, #664]
 717:Middlewares/ST/STM32_USB_Device_Library/Core/Src/usbd_core.c ****         }
 2200              		.loc 1 717 11 is_stmt 1 view .LVU704
 717:Middlewares/ST/STM32_USB_Device_Library/Core/Src/usbd_core.c ****         }
 2201              		.loc 1 717 17 is_stmt 0 view .LVU705
 2202 007e 0B46     		mov	r3, r1
 2203 0080 0A46     		mov	r2, r1
 2204 0082 2046     		mov	r0, r4
 2205 0084 FFF7FEFF 		bl	USBD_LL_PrepareReceive
 2206              	.LVL187:
 717:Middlewares/ST/STM32_USB_Device_Library/Core/Src/usbd_core.c ****         }
 2207              		.loc 1 717 11 view .LVU706
 2208 0088 C4E7     		b	.L155
 2209              	.LVL188:
 2210              	.L167:
 723:Middlewares/ST/STM32_USB_Device_Library/Core/Src/usbd_core.c ****             {
 2211              		.loc 1 723 13 is_stmt 1 view .LVU707
 723:Middlewares/ST/STM32_USB_Device_Library/Core/Src/usbd_core.c ****             {
 2212              		.loc 1 723 29 is_stmt 0 view .LVU708
 2213 008a D4F8B832 		ldr	r3, [r4, #696]
 723:Middlewares/ST/STM32_USB_Device_Library/Core/Src/usbd_core.c ****             {
 2214              		.loc 1 723 32 view .LVU709
 2215 008e DA68     		ldr	r2, [r3, #12]
 723:Middlewares/ST/STM32_USB_Device_Library/Core/Src/usbd_core.c ****             {
 2216              		.loc 1 723 16 view .LVU710
 2217 0090 002A     		cmp	r2, #0
 2218 0092 D2D0     		beq	.L158
 725:Middlewares/ST/STM32_USB_Device_Library/Core/Src/usbd_core.c ****               pdev->pClass[0]->EP0_TxSent(pdev);
 2219              		.loc 1 725 15 is_stmt 1 view .LVU711
 725:Middlewares/ST/STM32_USB_Device_Library/Core/Src/usbd_core.c ****               pdev->pClass[0]->EP0_TxSent(pdev);
 2220              		.loc 1 725 29 is_stmt 0 view .LVU712
 2221 0094 0022     		movs	r2, #0
 2222 0096 C4F8F822 		str	r2, [r4, #760]
 726:Middlewares/ST/STM32_USB_Device_Library/Core/Src/usbd_core.c ****             }
 2223              		.loc 1 726 15 is_stmt 1 view .LVU713
 726:Middlewares/ST/STM32_USB_Device_Library/Core/Src/usbd_core.c ****             }
 2224              		.loc 1 726 30 is_stmt 0 view .LVU714
 2225 009a DB68     		ldr	r3, [r3, #12]
 726:Middlewares/ST/STM32_USB_Device_Library/Core/Src/usbd_core.c ****             }
 2226              		.loc 1 726 15 view .LVU715
 2227 009c 2046     		mov	r0, r4
 2228              	.LVL189:
 726:Middlewares/ST/STM32_USB_Device_Library/Core/Src/usbd_core.c ****             }
 2229              		.loc 1 726 15 view .LVU716
 2230 009e 9847     		blx	r3
 2231              	.LVL190:
 2232 00a0 CBE7     		b	.L158
ARM GAS  C:\Users\ADMINI~1\AppData\Local\Temp\cczL7LlO.s 			page 64


 2233              	.LVL191:
 2234              	.L154:
 754:Middlewares/ST/STM32_USB_Device_Library/Core/Src/usbd_core.c **** 	
 2235              		.loc 1 754 5 is_stmt 1 view .LVU717
 754:Middlewares/ST/STM32_USB_Device_Library/Core/Src/usbd_core.c **** 	
 2236              		.loc 1 754 11 is_stmt 0 view .LVU718
 2237 00a2 41F08001 		orr	r1, r1, #128
 2238              	.LVL192:
 754:Middlewares/ST/STM32_USB_Device_Library/Core/Src/usbd_core.c **** 	
 2239              		.loc 1 754 11 view .LVU719
 2240 00a6 FFF7FEFF 		bl	USBD_CoreFindEP
 2241              	.LVL193:
 756:Middlewares/ST/STM32_USB_Device_Library/Core/Src/usbd_core.c ****     {
 2242              		.loc 1 756 5 is_stmt 1 view .LVU720
 756:Middlewares/ST/STM32_USB_Device_Library/Core/Src/usbd_core.c ****     {
 2243              		.loc 1 756 8 is_stmt 0 view .LVU721
 2244 00aa 0328     		cmp	r0, #3
 2245 00ac 13D8     		bhi	.L160
 759:Middlewares/ST/STM32_USB_Device_Library/Core/Src/usbd_core.c ****       {
 2246              		.loc 1 759 7 is_stmt 1 view .LVU722
 759:Middlewares/ST/STM32_USB_Device_Library/Core/Src/usbd_core.c ****       {
 2247              		.loc 1 759 15 is_stmt 0 view .LVU723
 2248 00ae 94F89C32 		ldrb	r3, [r4, #668]	@ zero_extendqisi2
 2249 00b2 DBB2     		uxtb	r3, r3
 759:Middlewares/ST/STM32_USB_Device_Library/Core/Src/usbd_core.c ****       {
 2250              		.loc 1 759 10 view .LVU724
 2251 00b4 032B     		cmp	r3, #3
 2252 00b6 01D0     		beq	.L168
 775:Middlewares/ST/STM32_USB_Device_Library/Core/Src/usbd_core.c **** }
 2253              		.loc 1 775 10 view .LVU725
 2254 00b8 0020     		movs	r0, #0
 2255              	.LVL194:
 775:Middlewares/ST/STM32_USB_Device_Library/Core/Src/usbd_core.c **** }
 2256              		.loc 1 775 10 view .LVU726
 2257 00ba B2E7     		b	.L159
 2258              	.LVL195:
 2259              	.L168:
 761:Middlewares/ST/STM32_USB_Device_Library/Core/Src/usbd_core.c ****         {
 2260              		.loc 1 761 9 is_stmt 1 view .LVU727
 761:Middlewares/ST/STM32_USB_Device_Library/Core/Src/usbd_core.c ****         {
 2261              		.loc 1 761 25 is_stmt 0 view .LVU728
 2262 00bc 00F1AE03 		add	r3, r0, #174
 2263 00c0 54F82330 		ldr	r3, [r4, r3, lsl #2]
 761:Middlewares/ST/STM32_USB_Device_Library/Core/Src/usbd_core.c ****         {
 2264              		.loc 1 761 30 view .LVU729
 2265 00c4 5A69     		ldr	r2, [r3, #20]
 761:Middlewares/ST/STM32_USB_Device_Library/Core/Src/usbd_core.c ****         {
 2266              		.loc 1 761 12 view .LVU730
 2267 00c6 42B1     		cbz	r2, .L162
 763:Middlewares/ST/STM32_USB_Device_Library/Core/Src/usbd_core.c ****           ret = (USBD_StatusTypeDef)pdev->pClass[idx]->DataIn(pdev, epnum);
 2268              		.loc 1 763 11 is_stmt 1 view .LVU731
 763:Middlewares/ST/STM32_USB_Device_Library/Core/Src/usbd_core.c ****           ret = (USBD_StatusTypeDef)pdev->pClass[idx]->DataIn(pdev, epnum);
 2269              		.loc 1 763 25 is_stmt 0 view .LVU732
 2270 00c8 C4F8F802 		str	r0, [r4, #760]
 764:Middlewares/ST/STM32_USB_Device_Library/Core/Src/usbd_core.c **** 
 2271              		.loc 1 764 11 is_stmt 1 view .LVU733
 764:Middlewares/ST/STM32_USB_Device_Library/Core/Src/usbd_core.c **** 
ARM GAS  C:\Users\ADMINI~1\AppData\Local\Temp\cczL7LlO.s 			page 65


 2272              		.loc 1 764 54 is_stmt 0 view .LVU734
 2273 00cc 5B69     		ldr	r3, [r3, #20]
 764:Middlewares/ST/STM32_USB_Device_Library/Core/Src/usbd_core.c **** 
 2274              		.loc 1 764 37 view .LVU735
 2275 00ce 2946     		mov	r1, r5
 2276 00d0 2046     		mov	r0, r4
 2277              	.LVL196:
 764:Middlewares/ST/STM32_USB_Device_Library/Core/Src/usbd_core.c **** 
 2278              		.loc 1 764 37 view .LVU736
 2279 00d2 9847     		blx	r3
 2280              	.LVL197:
 766:Middlewares/ST/STM32_USB_Device_Library/Core/Src/usbd_core.c ****           {
 2281              		.loc 1 766 11 is_stmt 1 view .LVU737
 2282 00d4 A5E7     		b	.L159
 2283              	.LVL198:
 2284              	.L160:
 775:Middlewares/ST/STM32_USB_Device_Library/Core/Src/usbd_core.c **** }
 2285              		.loc 1 775 10 is_stmt 0 view .LVU738
 2286 00d6 0020     		movs	r0, #0
 2287              	.LVL199:
 775:Middlewares/ST/STM32_USB_Device_Library/Core/Src/usbd_core.c **** }
 2288              		.loc 1 775 10 view .LVU739
 2289 00d8 A3E7     		b	.L159
 2290              	.LVL200:
 2291              	.L162:
 775:Middlewares/ST/STM32_USB_Device_Library/Core/Src/usbd_core.c **** }
 2292              		.loc 1 775 10 view .LVU740
 2293 00da 0020     		movs	r0, #0
 2294              	.LVL201:
 775:Middlewares/ST/STM32_USB_Device_Library/Core/Src/usbd_core.c **** }
 2295              		.loc 1 775 10 view .LVU741
 2296 00dc A1E7     		b	.L159
 2297              		.cfi_endproc
 2298              	.LFE146:
 2300              		.section	.text.USBD_CoreGetEPAdd,"ax",%progbits
 2301              		.align	1
 2302              		.global	USBD_CoreGetEPAdd
 2303              		.syntax unified
 2304              		.thumb
 2305              		.thumb_func
 2307              	USBD_CoreGetEPAdd:
 2308              	.LVL202:
 2309              	.LFB158:
1123:Middlewares/ST/STM32_USB_Device_Library/Core/Src/usbd_core.c **** 
1124:Middlewares/ST/STM32_USB_Device_Library/Core/Src/usbd_core.c **** #ifdef USE_USBD_COMPOSITE
1125:Middlewares/ST/STM32_USB_Device_Library/Core/Src/usbd_core.c **** /**
1126:Middlewares/ST/STM32_USB_Device_Library/Core/Src/usbd_core.c ****   * @brief  USBD_CoreGetEPAdd
1127:Middlewares/ST/STM32_USB_Device_Library/Core/Src/usbd_core.c ****   *         Get the endpoint address relative to a selected class
1128:Middlewares/ST/STM32_USB_Device_Library/Core/Src/usbd_core.c ****   * @param  pdev: device instance
1129:Middlewares/ST/STM32_USB_Device_Library/Core/Src/usbd_core.c ****   * @param  ep_dir: USBD_EP_IN or USBD_EP_OUT
1130:Middlewares/ST/STM32_USB_Device_Library/Core/Src/usbd_core.c ****   * @param  ep_type: USBD_EP_TYPE_CTRL, USBD_EP_TYPE_ISOC, USBD_EP_TYPE_BULK or USBD_EP_TYPE_INTR
1131:Middlewares/ST/STM32_USB_Device_Library/Core/Src/usbd_core.c ****   * @retval Address of the selected endpoint or 0xFFU if no endpoint found.
1132:Middlewares/ST/STM32_USB_Device_Library/Core/Src/usbd_core.c ****   */
1133:Middlewares/ST/STM32_USB_Device_Library/Core/Src/usbd_core.c **** uint8_t USBD_CoreGetEPAdd(USBD_HandleTypeDef *pdev, uint8_t ep_dir, uint8_t ep_type)
1134:Middlewares/ST/STM32_USB_Device_Library/Core/Src/usbd_core.c **** {
 2310              		.loc 1 1134 1 is_stmt 1 view -0
 2311              		.cfi_startproc
ARM GAS  C:\Users\ADMINI~1\AppData\Local\Temp\cczL7LlO.s 			page 66


 2312              		@ args = 0, pretend = 0, frame = 0
 2313              		@ frame_needed = 0, uses_anonymous_args = 0
 2314              		.loc 1 1134 1 is_stmt 0 view .LVU743
 2315 0000 30B5     		push	{r4, r5, lr}
 2316              	.LCFI24:
 2317              		.cfi_def_cfa_offset 12
 2318              		.cfi_offset 4, -12
 2319              		.cfi_offset 5, -8
 2320              		.cfi_offset 14, -4
 2321 0002 8646     		mov	lr, r0
1135:Middlewares/ST/STM32_USB_Device_Library/Core/Src/usbd_core.c ****   uint8_t idx;
 2322              		.loc 1 1135 3 is_stmt 1 view .LVU744
1136:Middlewares/ST/STM32_USB_Device_Library/Core/Src/usbd_core.c **** 
1137:Middlewares/ST/STM32_USB_Device_Library/Core/Src/usbd_core.c ****   /* Find the EP address in the selected class table */
1138:Middlewares/ST/STM32_USB_Device_Library/Core/Src/usbd_core.c ****   for (idx = 0; idx < pdev->tclasslist[pdev->classId].NumEps; idx++)
 2323              		.loc 1 1138 3 view .LVU745
 2324              	.LVL203:
 2325              		.loc 1 1138 12 is_stmt 0 view .LVU746
 2326 0004 0023     		movs	r3, #0
 2327              		.loc 1 1138 3 view .LVU747
 2328 0006 01E0     		b	.L170
 2329              	.LVL204:
 2330              	.L171:
 2331              		.loc 1 1138 63 is_stmt 1 discriminator 2 view .LVU748
 2332              		.loc 1 1138 66 is_stmt 0 discriminator 2 view .LVU749
 2333 0008 0133     		adds	r3, r3, #1
 2334              	.LVL205:
 2335              		.loc 1 1138 66 discriminator 2 view .LVU750
 2336 000a DBB2     		uxtb	r3, r3
 2337              	.LVL206:
 2338              	.L170:
 2339              		.loc 1 1138 17 is_stmt 1 discriminator 1 view .LVU751
 2340              		.loc 1 1138 44 is_stmt 0 discriminator 1 view .LVU752
 2341 000c DEF8F842 		ldr	r4, [lr, #760]
 2342              		.loc 1 1138 54 discriminator 1 view .LVU753
 2343 0010 C4EBC40C 		rsb	ip, r4, r4, lsl #3
 2344 0014 0EEBCC0C 		add	ip, lr, ip, lsl #3
 2345 0018 DCF80C03 		ldr	r0, [ip, #780]
 2346              		.loc 1 1138 3 discriminator 1 view .LVU754
 2347 001c 8342     		cmp	r3, r0
 2348 001e 22D2     		bcs	.L175
1139:Middlewares/ST/STM32_USB_Device_Library/Core/Src/usbd_core.c ****   {
1140:Middlewares/ST/STM32_USB_Device_Library/Core/Src/usbd_core.c ****     if (((pdev->tclasslist[pdev->classId].Eps[idx].add & USBD_EP_IN) == ep_dir) && \
 2349              		.loc 1 1140 5 is_stmt 1 view .LVU755
 2350              		.loc 1 1140 51 is_stmt 0 view .LVU756
 2351 0020 C4EBC40C 		rsb	ip, r4, r4, lsl #3
 2352 0024 03EB4C0C 		add	ip, r3, ip, lsl #1
 2353 0028 0CF1C40C 		add	ip, ip, #196
 2354 002c 1EF82C00 		ldrb	r0, [lr, ip, lsl #2]	@ zero_extendqisi2
 2355              		.loc 1 1140 8 view .LVU757
 2356 0030 00F0800C 		and	ip, r0, #128
 2357 0034 8C45     		cmp	ip, r1
 2358 0036 E7D1     		bne	.L171
1141:Middlewares/ST/STM32_USB_Device_Library/Core/Src/usbd_core.c ****         (pdev->tclasslist[pdev->classId].Eps[idx].type == ep_type) && \
 2359              		.loc 1 1141 50 discriminator 1 view .LVU758
 2360 0038 C4EBC40C 		rsb	ip, r4, r4, lsl #3
 2361 003c 03EB4C0C 		add	ip, r3, ip, lsl #1
ARM GAS  C:\Users\ADMINI~1\AppData\Local\Temp\cczL7LlO.s 			page 67


 2362 0040 0CF1C40C 		add	ip, ip, #196
 2363 0044 0EEB8C0C 		add	ip, lr, ip, lsl #2
 2364 0048 9CF801C0 		ldrb	ip, [ip, #1]	@ zero_extendqisi2
1140:Middlewares/ST/STM32_USB_Device_Library/Core/Src/usbd_core.c ****         (pdev->tclasslist[pdev->classId].Eps[idx].type == ep_type) && \
 2365              		.loc 1 1140 81 discriminator 1 view .LVU759
 2366 004c 9445     		cmp	ip, r2
 2367 004e DBD1     		bne	.L171
1142:Middlewares/ST/STM32_USB_Device_Library/Core/Src/usbd_core.c ****         (pdev->tclasslist[pdev->classId].Eps[idx].is_used != 0U))
 2368              		.loc 1 1142 50 view .LVU760
 2369 0050 C4EBC404 		rsb	r4, r4, r4, lsl #3
 2370 0054 03EB4405 		add	r5, r3, r4, lsl #1
 2371 0058 C435     		adds	r5, r5, #196
 2372 005a 0EEB8505 		add	r5, lr, r5, lsl #2
 2373 005e EC78     		ldrb	r4, [r5, #3]	@ zero_extendqisi2
1141:Middlewares/ST/STM32_USB_Device_Library/Core/Src/usbd_core.c ****         (pdev->tclasslist[pdev->classId].Eps[idx].type == ep_type) && \
 2374              		.loc 1 1141 68 view .LVU761
 2375 0060 002C     		cmp	r4, #0
 2376 0062 D1D0     		beq	.L171
 2377 0064 00E0     		b	.L172
 2378              	.L175:
1143:Middlewares/ST/STM32_USB_Device_Library/Core/Src/usbd_core.c ****     {
1144:Middlewares/ST/STM32_USB_Device_Library/Core/Src/usbd_core.c ****       return (pdev->tclasslist[pdev->classId].Eps[idx].add);
1145:Middlewares/ST/STM32_USB_Device_Library/Core/Src/usbd_core.c ****     }
1146:Middlewares/ST/STM32_USB_Device_Library/Core/Src/usbd_core.c ****   }
1147:Middlewares/ST/STM32_USB_Device_Library/Core/Src/usbd_core.c **** 
1148:Middlewares/ST/STM32_USB_Device_Library/Core/Src/usbd_core.c ****   /* If reaching this point, then no endpoint was found */
1149:Middlewares/ST/STM32_USB_Device_Library/Core/Src/usbd_core.c ****   return 0xFFU;
 2379              		.loc 1 1149 10 view .LVU762
 2380 0066 FF20     		movs	r0, #255
 2381              	.L172:
1150:Middlewares/ST/STM32_USB_Device_Library/Core/Src/usbd_core.c **** }
 2382              		.loc 1 1150 1 view .LVU763
 2383 0068 30BD     		pop	{r4, r5, pc}
 2384              		.cfi_endproc
 2385              	.LFE158:
 2387              		.section	.text.USBD_GetNextDesc,"ax",%progbits
 2388              		.align	1
 2389              		.global	USBD_GetNextDesc
 2390              		.syntax unified
 2391              		.thumb
 2392              		.thumb_func
 2394              	USBD_GetNextDesc:
 2395              	.LVL207:
 2396              	.LFB160:
1151:Middlewares/ST/STM32_USB_Device_Library/Core/Src/usbd_core.c **** #endif /* USE_USBD_COMPOSITE */
1152:Middlewares/ST/STM32_USB_Device_Library/Core/Src/usbd_core.c **** 
1153:Middlewares/ST/STM32_USB_Device_Library/Core/Src/usbd_core.c **** /**
1154:Middlewares/ST/STM32_USB_Device_Library/Core/Src/usbd_core.c ****   * @brief  USBD_GetEpDesc
1155:Middlewares/ST/STM32_USB_Device_Library/Core/Src/usbd_core.c ****   *         This function return the Endpoint descriptor
1156:Middlewares/ST/STM32_USB_Device_Library/Core/Src/usbd_core.c ****   * @param  pdev: device instance
1157:Middlewares/ST/STM32_USB_Device_Library/Core/Src/usbd_core.c ****   * @param  pConfDesc:  pointer to Bos descriptor
1158:Middlewares/ST/STM32_USB_Device_Library/Core/Src/usbd_core.c ****   * @param  EpAddr:  endpoint address
1159:Middlewares/ST/STM32_USB_Device_Library/Core/Src/usbd_core.c ****   * @retval pointer to video endpoint descriptor
1160:Middlewares/ST/STM32_USB_Device_Library/Core/Src/usbd_core.c ****   */
1161:Middlewares/ST/STM32_USB_Device_Library/Core/Src/usbd_core.c **** void *USBD_GetEpDesc(uint8_t *pConfDesc, uint8_t EpAddr)
1162:Middlewares/ST/STM32_USB_Device_Library/Core/Src/usbd_core.c **** {
1163:Middlewares/ST/STM32_USB_Device_Library/Core/Src/usbd_core.c ****   USBD_DescHeaderTypeDef *pdesc = (USBD_DescHeaderTypeDef *)(void *)pConfDesc;
ARM GAS  C:\Users\ADMINI~1\AppData\Local\Temp\cczL7LlO.s 			page 68


1164:Middlewares/ST/STM32_USB_Device_Library/Core/Src/usbd_core.c ****   USBD_ConfigDescTypeDef *desc = (USBD_ConfigDescTypeDef *)(void *)pConfDesc;
1165:Middlewares/ST/STM32_USB_Device_Library/Core/Src/usbd_core.c ****   USBD_EpDescTypeDef *pEpDesc = NULL;
1166:Middlewares/ST/STM32_USB_Device_Library/Core/Src/usbd_core.c ****   uint16_t ptr;
1167:Middlewares/ST/STM32_USB_Device_Library/Core/Src/usbd_core.c **** 
1168:Middlewares/ST/STM32_USB_Device_Library/Core/Src/usbd_core.c ****   if (desc->wTotalLength > desc->bLength)
1169:Middlewares/ST/STM32_USB_Device_Library/Core/Src/usbd_core.c ****   {
1170:Middlewares/ST/STM32_USB_Device_Library/Core/Src/usbd_core.c ****     ptr = desc->bLength;
1171:Middlewares/ST/STM32_USB_Device_Library/Core/Src/usbd_core.c **** 
1172:Middlewares/ST/STM32_USB_Device_Library/Core/Src/usbd_core.c ****     while (ptr < desc->wTotalLength)
1173:Middlewares/ST/STM32_USB_Device_Library/Core/Src/usbd_core.c ****     {
1174:Middlewares/ST/STM32_USB_Device_Library/Core/Src/usbd_core.c ****       pdesc = USBD_GetNextDesc((uint8_t *)pdesc, &ptr);
1175:Middlewares/ST/STM32_USB_Device_Library/Core/Src/usbd_core.c **** 
1176:Middlewares/ST/STM32_USB_Device_Library/Core/Src/usbd_core.c ****       if (pdesc->bDescriptorType == USB_DESC_TYPE_ENDPOINT)
1177:Middlewares/ST/STM32_USB_Device_Library/Core/Src/usbd_core.c ****       {
1178:Middlewares/ST/STM32_USB_Device_Library/Core/Src/usbd_core.c ****         pEpDesc = (USBD_EpDescTypeDef *)(void *)pdesc;
1179:Middlewares/ST/STM32_USB_Device_Library/Core/Src/usbd_core.c **** 
1180:Middlewares/ST/STM32_USB_Device_Library/Core/Src/usbd_core.c ****         if (pEpDesc->bEndpointAddress == EpAddr)
1181:Middlewares/ST/STM32_USB_Device_Library/Core/Src/usbd_core.c ****         {
1182:Middlewares/ST/STM32_USB_Device_Library/Core/Src/usbd_core.c ****           break;
1183:Middlewares/ST/STM32_USB_Device_Library/Core/Src/usbd_core.c ****         }
1184:Middlewares/ST/STM32_USB_Device_Library/Core/Src/usbd_core.c ****         else
1185:Middlewares/ST/STM32_USB_Device_Library/Core/Src/usbd_core.c ****         {
1186:Middlewares/ST/STM32_USB_Device_Library/Core/Src/usbd_core.c ****           pEpDesc = NULL;
1187:Middlewares/ST/STM32_USB_Device_Library/Core/Src/usbd_core.c ****         }
1188:Middlewares/ST/STM32_USB_Device_Library/Core/Src/usbd_core.c ****       }
1189:Middlewares/ST/STM32_USB_Device_Library/Core/Src/usbd_core.c ****     }
1190:Middlewares/ST/STM32_USB_Device_Library/Core/Src/usbd_core.c ****   }
1191:Middlewares/ST/STM32_USB_Device_Library/Core/Src/usbd_core.c **** 
1192:Middlewares/ST/STM32_USB_Device_Library/Core/Src/usbd_core.c ****   return (void *)pEpDesc;
1193:Middlewares/ST/STM32_USB_Device_Library/Core/Src/usbd_core.c **** }
1194:Middlewares/ST/STM32_USB_Device_Library/Core/Src/usbd_core.c **** 
1195:Middlewares/ST/STM32_USB_Device_Library/Core/Src/usbd_core.c **** /**
1196:Middlewares/ST/STM32_USB_Device_Library/Core/Src/usbd_core.c ****   * @brief  USBD_GetNextDesc
1197:Middlewares/ST/STM32_USB_Device_Library/Core/Src/usbd_core.c ****   *         This function return the next descriptor header
1198:Middlewares/ST/STM32_USB_Device_Library/Core/Src/usbd_core.c ****   * @param  buf: Buffer where the descriptor is available
1199:Middlewares/ST/STM32_USB_Device_Library/Core/Src/usbd_core.c ****   * @param  ptr: data pointer inside the descriptor
1200:Middlewares/ST/STM32_USB_Device_Library/Core/Src/usbd_core.c ****   * @retval next header
1201:Middlewares/ST/STM32_USB_Device_Library/Core/Src/usbd_core.c ****   */
1202:Middlewares/ST/STM32_USB_Device_Library/Core/Src/usbd_core.c **** USBD_DescHeaderTypeDef *USBD_GetNextDesc(uint8_t *pbuf, uint16_t *ptr)
1203:Middlewares/ST/STM32_USB_Device_Library/Core/Src/usbd_core.c **** {
 2397              		.loc 1 1203 1 is_stmt 1 view -0
 2398              		.cfi_startproc
 2399              		@ args = 0, pretend = 0, frame = 0
 2400              		@ frame_needed = 0, uses_anonymous_args = 0
 2401              		@ link register save eliminated.
1204:Middlewares/ST/STM32_USB_Device_Library/Core/Src/usbd_core.c ****   USBD_DescHeaderTypeDef *pnext = (USBD_DescHeaderTypeDef *)(void *)pbuf;
 2402              		.loc 1 1204 3 view .LVU765
1205:Middlewares/ST/STM32_USB_Device_Library/Core/Src/usbd_core.c **** 
1206:Middlewares/ST/STM32_USB_Device_Library/Core/Src/usbd_core.c ****   *ptr += pnext->bLength;
 2403              		.loc 1 1206 3 view .LVU766
 2404              		.loc 1 1206 16 is_stmt 0 view .LVU767
 2405 0000 0378     		ldrb	r3, [r0]	@ zero_extendqisi2
 2406              		.loc 1 1206 8 view .LVU768
 2407 0002 0A88     		ldrh	r2, [r1]
 2408 0004 1344     		add	r3, r3, r2
 2409 0006 0B80     		strh	r3, [r1]	@ movhi
1207:Middlewares/ST/STM32_USB_Device_Library/Core/Src/usbd_core.c ****   pnext = (USBD_DescHeaderTypeDef *)(void *)(pbuf + pnext->bLength);
ARM GAS  C:\Users\ADMINI~1\AppData\Local\Temp\cczL7LlO.s 			page 69


 2410              		.loc 1 1207 3 is_stmt 1 view .LVU769
 2411              		.loc 1 1207 58 is_stmt 0 view .LVU770
 2412 0008 0378     		ldrb	r3, [r0]	@ zero_extendqisi2
 2413              	.LVL208:
1208:Middlewares/ST/STM32_USB_Device_Library/Core/Src/usbd_core.c **** 
1209:Middlewares/ST/STM32_USB_Device_Library/Core/Src/usbd_core.c ****   return (pnext);
 2414              		.loc 1 1209 3 is_stmt 1 view .LVU771
1210:Middlewares/ST/STM32_USB_Device_Library/Core/Src/usbd_core.c **** }
 2415              		.loc 1 1210 1 is_stmt 0 view .LVU772
 2416 000a 1844     		add	r0, r0, r3
 2417              	.LVL209:
 2418              		.loc 1 1210 1 view .LVU773
 2419 000c 7047     		bx	lr
 2420              		.cfi_endproc
 2421              	.LFE160:
 2423              		.section	.text.USBD_GetEpDesc,"ax",%progbits
 2424              		.align	1
 2425              		.global	USBD_GetEpDesc
 2426              		.syntax unified
 2427              		.thumb
 2428              		.thumb_func
 2430              	USBD_GetEpDesc:
 2431              	.LVL210:
 2432              	.LFB159:
1162:Middlewares/ST/STM32_USB_Device_Library/Core/Src/usbd_core.c ****   USBD_DescHeaderTypeDef *pdesc = (USBD_DescHeaderTypeDef *)(void *)pConfDesc;
 2433              		.loc 1 1162 1 is_stmt 1 view -0
 2434              		.cfi_startproc
 2435              		@ args = 0, pretend = 0, frame = 8
 2436              		@ frame_needed = 0, uses_anonymous_args = 0
1163:Middlewares/ST/STM32_USB_Device_Library/Core/Src/usbd_core.c ****   USBD_ConfigDescTypeDef *desc = (USBD_ConfigDescTypeDef *)(void *)pConfDesc;
 2437              		.loc 1 1163 3 view .LVU775
1164:Middlewares/ST/STM32_USB_Device_Library/Core/Src/usbd_core.c ****   USBD_EpDescTypeDef *pEpDesc = NULL;
 2438              		.loc 1 1164 3 view .LVU776
1165:Middlewares/ST/STM32_USB_Device_Library/Core/Src/usbd_core.c ****   uint16_t ptr;
 2439              		.loc 1 1165 3 view .LVU777
1166:Middlewares/ST/STM32_USB_Device_Library/Core/Src/usbd_core.c **** 
 2440              		.loc 1 1166 3 view .LVU778
1168:Middlewares/ST/STM32_USB_Device_Library/Core/Src/usbd_core.c ****   {
 2441              		.loc 1 1168 3 view .LVU779
1168:Middlewares/ST/STM32_USB_Device_Library/Core/Src/usbd_core.c ****   {
 2442              		.loc 1 1168 11 is_stmt 0 view .LVU780
 2443 0000 4288     		ldrh	r2, [r0, #2]	@ unaligned
1168:Middlewares/ST/STM32_USB_Device_Library/Core/Src/usbd_core.c ****   {
 2444              		.loc 1 1168 26 view .LVU781
 2445 0002 0378     		ldrb	r3, [r0]	@ zero_extendqisi2
1168:Middlewares/ST/STM32_USB_Device_Library/Core/Src/usbd_core.c ****   {
 2446              		.loc 1 1168 6 view .LVU782
 2447 0004 9A42     		cmp	r2, r3
 2448 0006 18D9     		bls	.L181
1162:Middlewares/ST/STM32_USB_Device_Library/Core/Src/usbd_core.c ****   USBD_DescHeaderTypeDef *pdesc = (USBD_DescHeaderTypeDef *)(void *)pConfDesc;
 2449              		.loc 1 1162 1 view .LVU783
 2450 0008 30B5     		push	{r4, r5, lr}
 2451              	.LCFI25:
 2452              		.cfi_def_cfa_offset 12
 2453              		.cfi_offset 4, -12
 2454              		.cfi_offset 5, -8
 2455              		.cfi_offset 14, -4
ARM GAS  C:\Users\ADMINI~1\AppData\Local\Temp\cczL7LlO.s 			page 70


 2456 000a 83B0     		sub	sp, sp, #12
 2457              	.LCFI26:
 2458              		.cfi_def_cfa_offset 24
 2459 000c 0446     		mov	r4, r0
 2460 000e 0D46     		mov	r5, r1
1170:Middlewares/ST/STM32_USB_Device_Library/Core/Src/usbd_core.c **** 
 2461              		.loc 1 1170 5 is_stmt 1 view .LVU784
1170:Middlewares/ST/STM32_USB_Device_Library/Core/Src/usbd_core.c **** 
 2462              		.loc 1 1170 9 is_stmt 0 view .LVU785
 2463 0010 ADF80630 		strh	r3, [sp, #6]	@ movhi
1172:Middlewares/ST/STM32_USB_Device_Library/Core/Src/usbd_core.c ****     {
 2464              		.loc 1 1172 5 is_stmt 1 view .LVU786
 2465              	.LVL211:
 2466              	.L179:
1172:Middlewares/ST/STM32_USB_Device_Library/Core/Src/usbd_core.c ****     {
 2467              		.loc 1 1172 11 view .LVU787
1172:Middlewares/ST/STM32_USB_Device_Library/Core/Src/usbd_core.c ****     {
 2468              		.loc 1 1172 22 is_stmt 0 view .LVU788
 2469 0014 6288     		ldrh	r2, [r4, #2]	@ unaligned
1172:Middlewares/ST/STM32_USB_Device_Library/Core/Src/usbd_core.c ****     {
 2470              		.loc 1 1172 16 view .LVU789
 2471 0016 BDF80630 		ldrh	r3, [sp, #6]
1172:Middlewares/ST/STM32_USB_Device_Library/Core/Src/usbd_core.c ****     {
 2472              		.loc 1 1172 11 view .LVU790
