ARM GAS  C:\Users\ADMINI~1\AppData\Local\Temp\ccFRa6xA.s 			page 1


   1              		.cpu cortex-m4
   2              		.arch armv7e-m
   3              		.fpu fpv4-sp-d16
   4              		.eabi_attribute 27, 1
   5              		.eabi_attribute 28, 1
   6              		.eabi_attribute 20, 1
   7              		.eabi_attribute 21, 1
   8              		.eabi_attribute 23, 3
   9              		.eabi_attribute 24, 1
  10              		.eabi_attribute 25, 1
  11              		.eabi_attribute 26, 1
  12              		.eabi_attribute 30, 1
  13              		.eabi_attribute 34, 1
  14              		.eabi_attribute 18, 4
  15              		.file	"usbd_conf.c"
  16              		.text
  17              	.Ltext0:
  18              		.cfi_sections	.debug_frame
  19              		.section	.text.HAL_PCD_MspInit,"ax",%progbits
  20              		.align	1
  21              		.global	HAL_PCD_MspInit
  22              		.syntax unified
  23              		.thumb
  24              		.thumb_func
  26              	HAL_PCD_MspInit:
  27              	.LVL0:
  28              	.LFB134:
  29              		.file 1 "Src/usbd_conf.c"
   1:Src/usbd_conf.c **** /* USER CODE BEGIN Header */
   2:Src/usbd_conf.c **** /**
   3:Src/usbd_conf.c ****   ******************************************************************************
   4:Src/usbd_conf.c ****   * @file           : usbd_conf.c
   5:Src/usbd_conf.c ****   * @version        : v1.0_Cube
   6:Src/usbd_conf.c ****   * @brief          : This file implements the board support package for the USB device library
   7:Src/usbd_conf.c ****   ******************************************************************************
   8:Src/usbd_conf.c ****   * @attention
   9:Src/usbd_conf.c ****   *
  10:Src/usbd_conf.c ****   * Copyright (c) 2022 STMicroelectronics.
  11:Src/usbd_conf.c ****   * All rights reserved.
  12:Src/usbd_conf.c ****   *
  13:Src/usbd_conf.c ****   * This software is licensed under terms that can be found in the LICENSE file
  14:Src/usbd_conf.c ****   * in the root directory of this software component.
  15:Src/usbd_conf.c ****   * If no LICENSE file comes with this software, it is provided AS-IS.
  16:Src/usbd_conf.c ****   *
  17:Src/usbd_conf.c ****   ******************************************************************************
  18:Src/usbd_conf.c ****   */
  19:Src/usbd_conf.c **** /* USER CODE END Header */
  20:Src/usbd_conf.c **** 
  21:Src/usbd_conf.c **** /* Includes ------------------------------------------------------------------*/
  22:Src/usbd_conf.c **** #include "stm32f4xx.h"
  23:Src/usbd_conf.c **** #include "stm32f4xx_hal.h"
  24:Src/usbd_conf.c **** #include "usbd_def.h"
  25:Src/usbd_conf.c **** #include "usbd_core.h"
  26:Src/usbd_conf.c **** 
  27:Src/usbd_conf.c **** #include "usbd_cdc.h"
  28:Src/usbd_conf.c **** 
  29:Src/usbd_conf.c **** /* USER CODE BEGIN Includes */
ARM GAS  C:\Users\ADMINI~1\AppData\Local\Temp\ccFRa6xA.s 			page 2


  30:Src/usbd_conf.c **** 
  31:Src/usbd_conf.c **** /* USER CODE END Includes */
  32:Src/usbd_conf.c **** 
  33:Src/usbd_conf.c **** /* Private typedef -----------------------------------------------------------*/
  34:Src/usbd_conf.c **** /* Private define ------------------------------------------------------------*/
  35:Src/usbd_conf.c **** /* Private macro -------------------------------------------------------------*/
  36:Src/usbd_conf.c **** 
  37:Src/usbd_conf.c **** /* USER CODE BEGIN PV */
  38:Src/usbd_conf.c **** /* Private variables ---------------------------------------------------------*/
  39:Src/usbd_conf.c **** 
  40:Src/usbd_conf.c **** /* USER CODE END PV */
  41:Src/usbd_conf.c **** 
  42:Src/usbd_conf.c **** PCD_HandleTypeDef hpcd_USB_OTG_FS;
  43:Src/usbd_conf.c **** void Error_Handler(void);
  44:Src/usbd_conf.c **** 
  45:Src/usbd_conf.c **** /* External functions --------------------------------------------------------*/
  46:Src/usbd_conf.c **** void SystemClock_Config(void);
  47:Src/usbd_conf.c **** 
  48:Src/usbd_conf.c **** /* USER CODE BEGIN 0 */
  49:Src/usbd_conf.c **** 
  50:Src/usbd_conf.c **** /* USER CODE END 0 */
  51:Src/usbd_conf.c **** 
  52:Src/usbd_conf.c **** /* USER CODE BEGIN PFP */
  53:Src/usbd_conf.c **** /* Private function prototypes -----------------------------------------------*/
  54:Src/usbd_conf.c **** USBD_StatusTypeDef USBD_Get_USB_Status(HAL_StatusTypeDef hal_status);
  55:Src/usbd_conf.c **** 
  56:Src/usbd_conf.c **** /* USER CODE END PFP */
  57:Src/usbd_conf.c **** 
  58:Src/usbd_conf.c **** /* Private functions ---------------------------------------------------------*/
  59:Src/usbd_conf.c **** 
  60:Src/usbd_conf.c **** /* USER CODE BEGIN 1 */
  61:Src/usbd_conf.c **** 
  62:Src/usbd_conf.c **** /* USER CODE END 1 */
  63:Src/usbd_conf.c **** 
  64:Src/usbd_conf.c **** /*******************************************************************************
  65:Src/usbd_conf.c ****                        LL Driver Callbacks (PCD -> USB Device Library)
  66:Src/usbd_conf.c **** *******************************************************************************/
  67:Src/usbd_conf.c **** /* MSP Init */
  68:Src/usbd_conf.c **** 
  69:Src/usbd_conf.c **** void HAL_PCD_MspInit(PCD_HandleTypeDef* pcdHandle)
  70:Src/usbd_conf.c **** {
  30              		.loc 1 70 1 view -0
  31              		.cfi_startproc
  32              		@ args = 0, pretend = 0, frame = 32
  33              		@ frame_needed = 0, uses_anonymous_args = 0
  34              		.loc 1 70 1 is_stmt 0 view .LVU1
  35 0000 30B5     		push	{r4, r5, lr}
  36              	.LCFI0:
  37              		.cfi_def_cfa_offset 12
  38              		.cfi_offset 4, -12
  39              		.cfi_offset 5, -8
  40              		.cfi_offset 14, -4
  41 0002 89B0     		sub	sp, sp, #36
  42              	.LCFI1:
  43              		.cfi_def_cfa_offset 48
  71:Src/usbd_conf.c ****   GPIO_InitTypeDef GPIO_InitStruct = {0};
  44              		.loc 1 71 3 is_stmt 1 view .LVU2
ARM GAS  C:\Users\ADMINI~1\AppData\Local\Temp\ccFRa6xA.s 			page 3


  45              		.loc 1 71 20 is_stmt 0 view .LVU3
  46 0004 0023     		movs	r3, #0
  47 0006 0393     		str	r3, [sp, #12]
  48 0008 0493     		str	r3, [sp, #16]
  49 000a 0593     		str	r3, [sp, #20]
  50 000c 0693     		str	r3, [sp, #24]
  51 000e 0793     		str	r3, [sp, #28]
  72:Src/usbd_conf.c ****   if(pcdHandle->Instance==USB_OTG_FS)
  52              		.loc 1 72 3 is_stmt 1 view .LVU4
  53              		.loc 1 72 15 is_stmt 0 view .LVU5
  54 0010 0368     		ldr	r3, [r0]
  55              		.loc 1 72 5 view .LVU6
  56 0012 B3F1A04F 		cmp	r3, #1342177280
  57 0016 01D0     		beq	.L4
  58              	.LVL1:
  59              	.L1:
  73:Src/usbd_conf.c ****   {
  74:Src/usbd_conf.c ****   /* USER CODE BEGIN USB_OTG_FS_MspInit 0 */
  75:Src/usbd_conf.c **** 
  76:Src/usbd_conf.c ****   /* USER CODE END USB_OTG_FS_MspInit 0 */
  77:Src/usbd_conf.c **** 
  78:Src/usbd_conf.c ****     __HAL_RCC_GPIOA_CLK_ENABLE();
  79:Src/usbd_conf.c ****     /**USB_OTG_FS GPIO Configuration
  80:Src/usbd_conf.c ****     PA11     ------> USB_OTG_FS_DM
  81:Src/usbd_conf.c ****     PA12     ------> USB_OTG_FS_DP
  82:Src/usbd_conf.c ****     */
  83:Src/usbd_conf.c ****     GPIO_InitStruct.Pin = GPIO_PIN_11|GPIO_PIN_12;
  84:Src/usbd_conf.c ****     GPIO_InitStruct.Mode = GPIO_MODE_AF_PP;
  85:Src/usbd_conf.c ****     GPIO_InitStruct.Pull = GPIO_NOPULL;
  86:Src/usbd_conf.c ****     GPIO_InitStruct.Speed = GPIO_SPEED_FREQ_VERY_HIGH;
  87:Src/usbd_conf.c ****     GPIO_InitStruct.Alternate = GPIO_AF10_OTG_FS;
  88:Src/usbd_conf.c ****     HAL_GPIO_Init(GPIOA, &GPIO_InitStruct);
  89:Src/usbd_conf.c **** 
  90:Src/usbd_conf.c ****     /* Peripheral clock enable */
  91:Src/usbd_conf.c ****     __HAL_RCC_USB_OTG_FS_CLK_ENABLE();
  92:Src/usbd_conf.c **** 
  93:Src/usbd_conf.c ****     /* Peripheral interrupt init */
  94:Src/usbd_conf.c ****     HAL_NVIC_SetPriority(OTG_FS_IRQn, 0, 0);
  95:Src/usbd_conf.c ****     HAL_NVIC_EnableIRQ(OTG_FS_IRQn);
  96:Src/usbd_conf.c ****   /* USER CODE BEGIN USB_OTG_FS_MspInit 1 */
  97:Src/usbd_conf.c **** 
  98:Src/usbd_conf.c ****   /* USER CODE END USB_OTG_FS_MspInit 1 */
  99:Src/usbd_conf.c ****   }
 100:Src/usbd_conf.c **** }
  60              		.loc 1 100 1 view .LVU7
  61 0018 09B0     		add	sp, sp, #36
  62              	.LCFI2:
  63              		.cfi_remember_state
  64              		.cfi_def_cfa_offset 12
  65              		@ sp needed
  66 001a 30BD     		pop	{r4, r5, pc}
  67              	.LVL2:
  68              	.L4:
  69              	.LCFI3:
  70              		.cfi_restore_state
  78:Src/usbd_conf.c ****     /**USB_OTG_FS GPIO Configuration
  71              		.loc 1 78 5 is_stmt 1 view .LVU8
ARM GAS  C:\Users\ADMINI~1\AppData\Local\Temp\ccFRa6xA.s 			page 4


  72              	.LBB2:
  78:Src/usbd_conf.c ****     /**USB_OTG_FS GPIO Configuration
  73              		.loc 1 78 5 view .LVU9
  74 001c 0025     		movs	r5, #0
  75 001e 0195     		str	r5, [sp, #4]
  78:Src/usbd_conf.c ****     /**USB_OTG_FS GPIO Configuration
  76              		.loc 1 78 5 view .LVU10
  77 0020 164C     		ldr	r4, .L5
  78 0022 236B     		ldr	r3, [r4, #48]
  79 0024 43F00103 		orr	r3, r3, #1
  80 0028 2363     		str	r3, [r4, #48]
  78:Src/usbd_conf.c ****     /**USB_OTG_FS GPIO Configuration
  81              		.loc 1 78 5 view .LVU11
  82 002a 236B     		ldr	r3, [r4, #48]
  83 002c 03F00103 		and	r3, r3, #1
  84 0030 0193     		str	r3, [sp, #4]
  78:Src/usbd_conf.c ****     /**USB_OTG_FS GPIO Configuration
  85              		.loc 1 78 5 view .LVU12
  86 0032 019B     		ldr	r3, [sp, #4]
  87              	.LBE2:
  78:Src/usbd_conf.c ****     /**USB_OTG_FS GPIO Configuration
  88              		.loc 1 78 5 view .LVU13
  83:Src/usbd_conf.c ****     GPIO_InitStruct.Mode = GPIO_MODE_AF_PP;
  89              		.loc 1 83 5 view .LVU14
  83:Src/usbd_conf.c ****     GPIO_InitStruct.Mode = GPIO_MODE_AF_PP;
  90              		.loc 1 83 25 is_stmt 0 view .LVU15
  91 0034 4FF4C053 		mov	r3, #6144
  92 0038 0393     		str	r3, [sp, #12]
  84:Src/usbd_conf.c ****     GPIO_InitStruct.Pull = GPIO_NOPULL;
  93              		.loc 1 84 5 is_stmt 1 view .LVU16
  84:Src/usbd_conf.c ****     GPIO_InitStruct.Pull = GPIO_NOPULL;
  94              		.loc 1 84 26 is_stmt 0 view .LVU17
  95 003a 0223     		movs	r3, #2
  96 003c 0493     		str	r3, [sp, #16]
  85:Src/usbd_conf.c ****     GPIO_InitStruct.Speed = GPIO_SPEED_FREQ_VERY_HIGH;
  97              		.loc 1 85 5 is_stmt 1 view .LVU18
  86:Src/usbd_conf.c ****     GPIO_InitStruct.Alternate = GPIO_AF10_OTG_FS;
  98              		.loc 1 86 5 view .LVU19
  86:Src/usbd_conf.c ****     GPIO_InitStruct.Alternate = GPIO_AF10_OTG_FS;
  99              		.loc 1 86 27 is_stmt 0 view .LVU20
 100 003e 0323     		movs	r3, #3
 101 0040 0693     		str	r3, [sp, #24]
  87:Src/usbd_conf.c ****     HAL_GPIO_Init(GPIOA, &GPIO_InitStruct);
 102              		.loc 1 87 5 is_stmt 1 view .LVU21
  87:Src/usbd_conf.c ****     HAL_GPIO_Init(GPIOA, &GPIO_InitStruct);
 103              		.loc 1 87 31 is_stmt 0 view .LVU22
 104 0042 0A23     		movs	r3, #10
 105 0044 0793     		str	r3, [sp, #28]
  88:Src/usbd_conf.c **** 
 106              		.loc 1 88 5 is_stmt 1 view .LVU23
 107 0046 03A9     		add	r1, sp, #12
 108 0048 0D48     		ldr	r0, .L5+4
 109              	.LVL3:
  88:Src/usbd_conf.c **** 
 110              		.loc 1 88 5 is_stmt 0 view .LVU24
 111 004a FFF7FEFF 		bl	HAL_GPIO_Init
 112              	.LVL4:
ARM GAS  C:\Users\ADMINI~1\AppData\Local\Temp\ccFRa6xA.s 			page 5


  91:Src/usbd_conf.c **** 
 113              		.loc 1 91 5 is_stmt 1 view .LVU25
  91:Src/usbd_conf.c **** 
 114              		.loc 1 91 5 view .LVU26
 115 004e 636B     		ldr	r3, [r4, #52]
 116 0050 43F08003 		orr	r3, r3, #128
 117 0054 6363     		str	r3, [r4, #52]
  91:Src/usbd_conf.c **** 
 118              		.loc 1 91 5 view .LVU27
 119              	.LBB3:
  91:Src/usbd_conf.c **** 
 120              		.loc 1 91 5 view .LVU28
 121 0056 0295     		str	r5, [sp, #8]
  91:Src/usbd_conf.c **** 
 122              		.loc 1 91 5 view .LVU29
 123 0058 636C     		ldr	r3, [r4, #68]
 124 005a 43F48043 		orr	r3, r3, #16384
 125 005e 6364     		str	r3, [r4, #68]
  91:Src/usbd_conf.c **** 
 126              		.loc 1 91 5 view .LVU30
 127 0060 636C     		ldr	r3, [r4, #68]
 128 0062 03F48043 		and	r3, r3, #16384
 129 0066 0293     		str	r3, [sp, #8]
  91:Src/usbd_conf.c **** 
 130              		.loc 1 91 5 view .LVU31
 131 0068 029B     		ldr	r3, [sp, #8]
 132              	.LBE3:
  91:Src/usbd_conf.c **** 
 133              		.loc 1 91 5 view .LVU32
  91:Src/usbd_conf.c **** 
 134              		.loc 1 91 5 view .LVU33
  94:Src/usbd_conf.c ****     HAL_NVIC_EnableIRQ(OTG_FS_IRQn);
 135              		.loc 1 94 5 view .LVU34
 136 006a 2A46     		mov	r2, r5
 137 006c 2946     		mov	r1, r5
 138 006e 4320     		movs	r0, #67
 139 0070 FFF7FEFF 		bl	HAL_NVIC_SetPriority
 140              	.LVL5:
  95:Src/usbd_conf.c ****   /* USER CODE BEGIN USB_OTG_FS_MspInit 1 */
 141              		.loc 1 95 5 view .LVU35
 142 0074 4320     		movs	r0, #67
 143 0076 FFF7FEFF 		bl	HAL_NVIC_EnableIRQ
 144              	.LVL6:
 145              		.loc 1 100 1 is_stmt 0 view .LVU36
 146 007a CDE7     		b	.L1
 147              	.L6:
 148              		.align	2
 149              	.L5:
 150 007c 00380240 		.word	1073887232
 151 0080 00000240 		.word	1073872896
 152              		.cfi_endproc
 153              	.LFE134:
 155              		.section	.text.HAL_PCD_MspDeInit,"ax",%progbits
 156              		.align	1
 157              		.global	HAL_PCD_MspDeInit
 158              		.syntax unified
 159              		.thumb
ARM GAS  C:\Users\ADMINI~1\AppData\Local\Temp\ccFRa6xA.s 			page 6


 160              		.thumb_func
 162              	HAL_PCD_MspDeInit:
 163              	.LVL7:
 164              	.LFB135:
 101:Src/usbd_conf.c **** 
 102:Src/usbd_conf.c **** void HAL_PCD_MspDeInit(PCD_HandleTypeDef* pcdHandle)
 103:Src/usbd_conf.c **** {
 165              		.loc 1 103 1 is_stmt 1 view -0
 166              		.cfi_startproc
 167              		@ args = 0, pretend = 0, frame = 0
 168              		@ frame_needed = 0, uses_anonymous_args = 0
 169              		.loc 1 103 1 is_stmt 0 view .LVU38
 170 0000 08B5     		push	{r3, lr}
 171              	.LCFI4:
 172              		.cfi_def_cfa_offset 8
 173              		.cfi_offset 3, -8
 174              		.cfi_offset 14, -4
 104:Src/usbd_conf.c ****   if(pcdHandle->Instance==USB_OTG_FS)
 175              		.loc 1 104 3 is_stmt 1 view .LVU39
 176              		.loc 1 104 15 is_stmt 0 view .LVU40
 177 0002 0368     		ldr	r3, [r0]
 178              		.loc 1 104 5 view .LVU41
 179 0004 B3F1A04F 		cmp	r3, #1342177280
 180 0008 00D0     		beq	.L10
 181              	.LVL8:
 182              	.L7:
 105:Src/usbd_conf.c ****   {
 106:Src/usbd_conf.c ****   /* USER CODE BEGIN USB_OTG_FS_MspDeInit 0 */
 107:Src/usbd_conf.c **** 
 108:Src/usbd_conf.c ****   /* USER CODE END USB_OTG_FS_MspDeInit 0 */
 109:Src/usbd_conf.c ****     /* Peripheral clock disable */
 110:Src/usbd_conf.c ****     __HAL_RCC_USB_OTG_FS_CLK_DISABLE();
 111:Src/usbd_conf.c **** 
 112:Src/usbd_conf.c ****     /**USB_OTG_FS GPIO Configuration
 113:Src/usbd_conf.c ****     PA11     ------> USB_OTG_FS_DM
 114:Src/usbd_conf.c ****     PA12     ------> USB_OTG_FS_DP
 115:Src/usbd_conf.c ****     */
 116:Src/usbd_conf.c ****     HAL_GPIO_DeInit(GPIOA, GPIO_PIN_11|GPIO_PIN_12);
 117:Src/usbd_conf.c **** 
 118:Src/usbd_conf.c ****     /* Peripheral interrupt Deinit*/
 119:Src/usbd_conf.c ****     HAL_NVIC_DisableIRQ(OTG_FS_IRQn);
 120:Src/usbd_conf.c **** 
 121:Src/usbd_conf.c ****   /* USER CODE BEGIN USB_OTG_FS_MspDeInit 1 */
 122:Src/usbd_conf.c **** 
 123:Src/usbd_conf.c ****   /* USER CODE END USB_OTG_FS_MspDeInit 1 */
 124:Src/usbd_conf.c ****   }
 125:Src/usbd_conf.c **** }
 183              		.loc 1 125 1 view .LVU42
 184 000a 08BD     		pop	{r3, pc}
 185              	.LVL9:
 186              	.L10:
 110:Src/usbd_conf.c **** 
 187              		.loc 1 110 5 is_stmt 1 view .LVU43
 188 000c 064A     		ldr	r2, .L11
 189 000e 536B     		ldr	r3, [r2, #52]
 190 0010 23F08003 		bic	r3, r3, #128
 191 0014 5363     		str	r3, [r2, #52]
ARM GAS  C:\Users\ADMINI~1\AppData\Local\Temp\ccFRa6xA.s 			page 7


 116:Src/usbd_conf.c **** 
 192              		.loc 1 116 5 view .LVU44
 193 0016 4FF4C051 		mov	r1, #6144
 194 001a 0448     		ldr	r0, .L11+4
 195              	.LVL10:
 116:Src/usbd_conf.c **** 
 196              		.loc 1 116 5 is_stmt 0 view .LVU45
 197 001c FFF7FEFF 		bl	HAL_GPIO_DeInit
 198              	.LVL11:
 119:Src/usbd_conf.c **** 
 199              		.loc 1 119 5 is_stmt 1 view .LVU46
 200 0020 4320     		movs	r0, #67
 201 0022 FFF7FEFF 		bl	HAL_NVIC_DisableIRQ
 202              	.LVL12:
 203              		.loc 1 125 1 is_stmt 0 view .LVU47
 204 0026 F0E7     		b	.L7
 205              	.L12:
 206              		.align	2
 207              	.L11:
 208 0028 00380240 		.word	1073887232
 209 002c 00000240 		.word	1073872896
 210              		.cfi_endproc
 211              	.LFE135:
 213              		.section	.text.HAL_PCD_SetupStageCallback,"ax",%progbits
 214              		.align	1
 215              		.global	HAL_PCD_SetupStageCallback
 216              		.syntax unified
 217              		.thumb
 218              		.thumb_func
 220              	HAL_PCD_SetupStageCallback:
 221              	.LVL13:
 222              	.LFB136:
 126:Src/usbd_conf.c **** 
 127:Src/usbd_conf.c **** /**
 128:Src/usbd_conf.c ****   * @brief  Setup stage callback
 129:Src/usbd_conf.c ****   * @param  hpcd: PCD handle
 130:Src/usbd_conf.c ****   * @retval None
 131:Src/usbd_conf.c ****   */
 132:Src/usbd_conf.c **** #if (USE_HAL_PCD_REGISTER_CALLBACKS == 1U)
 133:Src/usbd_conf.c **** static void PCD_SetupStageCallback(PCD_HandleTypeDef *hpcd)
 134:Src/usbd_conf.c **** #else
 135:Src/usbd_conf.c **** void HAL_PCD_SetupStageCallback(PCD_HandleTypeDef *hpcd)
 136:Src/usbd_conf.c **** #endif /* USE_HAL_PCD_REGISTER_CALLBACKS */
 137:Src/usbd_conf.c **** {
 223              		.loc 1 137 1 is_stmt 1 view -0
 224              		.cfi_startproc
 225              		@ args = 0, pretend = 0, frame = 0
 226              		@ frame_needed = 0, uses_anonymous_args = 0
 227              		.loc 1 137 1 is_stmt 0 view .LVU49
 228 0000 08B5     		push	{r3, lr}
 229              	.LCFI5:
 230              		.cfi_def_cfa_offset 8
 231              		.cfi_offset 3, -8
 232              		.cfi_offset 14, -4
 138:Src/usbd_conf.c ****   USBD_LL_SetupStage((USBD_HandleTypeDef*)hpcd->pData, (uint8_t *)hpcd->Setup);
 233              		.loc 1 138 3 is_stmt 1 view .LVU50
 234 0002 00F2C441 		addw	r1, r0, #1220
ARM GAS  C:\Users\ADMINI~1\AppData\Local\Temp\ccFRa6xA.s 			page 8


 235 0006 D0F80805 		ldr	r0, [r0, #1288]
 236              	.LVL14:
 237              		.loc 1 138 3 is_stmt 0 view .LVU51
 238 000a FFF7FEFF 		bl	USBD_LL_SetupStage
 239              	.LVL15:
 139:Src/usbd_conf.c **** }
 240              		.loc 1 139 1 view .LVU52
 241 000e 08BD     		pop	{r3, pc}
 242              		.cfi_endproc
 243              	.LFE136:
 245              		.section	.text.HAL_PCD_DataOutStageCallback,"ax",%progbits
 246              		.align	1
 247              		.global	HAL_PCD_DataOutStageCallback
 248              		.syntax unified
 249              		.thumb
 250              		.thumb_func
 252              	HAL_PCD_DataOutStageCallback:
 253              	.LVL16:
 254              	.LFB137:
 140:Src/usbd_conf.c **** 
 141:Src/usbd_conf.c **** /**
 142:Src/usbd_conf.c ****   * @brief  Data Out stage callback.
 143:Src/usbd_conf.c ****   * @param  hpcd: PCD handle
 144:Src/usbd_conf.c ****   * @param  epnum: Endpoint number
 145:Src/usbd_conf.c ****   * @retval None
 146:Src/usbd_conf.c ****   */
 147:Src/usbd_conf.c **** #if (USE_HAL_PCD_REGISTER_CALLBACKS == 1U)
 148:Src/usbd_conf.c **** static void PCD_DataOutStageCallback(PCD_HandleTypeDef *hpcd, uint8_t epnum)
 149:Src/usbd_conf.c **** #else
 150:Src/usbd_conf.c **** void HAL_PCD_DataOutStageCallback(PCD_HandleTypeDef *hpcd, uint8_t epnum)
 151:Src/usbd_conf.c **** #endif /* USE_HAL_PCD_REGISTER_CALLBACKS */
 152:Src/usbd_conf.c **** {
 255              		.loc 1 152 1 is_stmt 1 view -0
 256              		.cfi_startproc
 257              		@ args = 0, pretend = 0, frame = 0
 258              		@ frame_needed = 0, uses_anonymous_args = 0
 259              		.loc 1 152 1 is_stmt 0 view .LVU54
 260 0000 08B5     		push	{r3, lr}
 261              	.LCFI6:
 262              		.cfi_def_cfa_offset 8
 263              		.cfi_offset 3, -8
 264              		.cfi_offset 14, -4
 153:Src/usbd_conf.c ****   USBD_LL_DataOutStage((USBD_HandleTypeDef*)hpcd->pData, epnum, hpcd->OUT_ep[epnum].xfer_buff);
 265              		.loc 1 153 3 is_stmt 1 view .LVU55
 266 0002 01EBC103 		add	r3, r1, r1, lsl #3
 267 0006 00EB8303 		add	r3, r0, r3, lsl #2
 268 000a D3F88C22 		ldr	r2, [r3, #652]
 269 000e D0F80805 		ldr	r0, [r0, #1288]
 270              	.LVL17:
 271              		.loc 1 153 3 is_stmt 0 view .LVU56
 272 0012 FFF7FEFF 		bl	USBD_LL_DataOutStage
 273              	.LVL18:
 154:Src/usbd_conf.c **** }
 274              		.loc 1 154 1 view .LVU57
 275 0016 08BD     		pop	{r3, pc}
 276              		.cfi_endproc
 277              	.LFE137:
ARM GAS  C:\Users\ADMINI~1\AppData\Local\Temp\ccFRa6xA.s 			page 9


 279              		.section	.text.HAL_PCD_DataInStageCallback,"ax",%progbits
 280              		.align	1
 281              		.global	HAL_PCD_DataInStageCallback
 282              		.syntax unified
 283              		.thumb
 284              		.thumb_func
 286              	HAL_PCD_DataInStageCallback:
 287              	.LVL19:
 288              	.LFB138:
 155:Src/usbd_conf.c **** 
 156:Src/usbd_conf.c **** /**
 157:Src/usbd_conf.c ****   * @brief  Data In stage callback.
 158:Src/usbd_conf.c ****   * @param  hpcd: PCD handle
 159:Src/usbd_conf.c ****   * @param  epnum: Endpoint number
 160:Src/usbd_conf.c ****   * @retval None
 161:Src/usbd_conf.c ****   */
 162:Src/usbd_conf.c **** #if (USE_HAL_PCD_REGISTER_CALLBACKS == 1U)
 163:Src/usbd_conf.c **** static void PCD_DataInStageCallback(PCD_HandleTypeDef *hpcd, uint8_t epnum)
 164:Src/usbd_conf.c **** #else
 165:Src/usbd_conf.c **** void HAL_PCD_DataInStageCallback(PCD_HandleTypeDef *hpcd, uint8_t epnum)
 166:Src/usbd_conf.c **** #endif /* USE_HAL_PCD_REGISTER_CALLBACKS */
 167:Src/usbd_conf.c **** {
 289              		.loc 1 167 1 is_stmt 1 view -0
 290              		.cfi_startproc
 291              		@ args = 0, pretend = 0, frame = 0
 292              		@ frame_needed = 0, uses_anonymous_args = 0
 293              		.loc 1 167 1 is_stmt 0 view .LVU59
 294 0000 08B5     		push	{r3, lr}
 295              	.LCFI7:
 296              		.cfi_def_cfa_offset 8
 297              		.cfi_offset 3, -8
 298              		.cfi_offset 14, -4
 168:Src/usbd_conf.c ****   USBD_LL_DataInStage((USBD_HandleTypeDef*)hpcd->pData, epnum, hpcd->IN_ep[epnum].xfer_buff);
 299              		.loc 1 168 3 is_stmt 1 view .LVU60
 300 0002 01EBC103 		add	r3, r1, r1, lsl #3
 301 0006 00EB8303 		add	r3, r0, r3, lsl #2
 302 000a DA6C     		ldr	r2, [r3, #76]
 303 000c D0F80805 		ldr	r0, [r0, #1288]
 304              	.LVL20:
 305              		.loc 1 168 3 is_stmt 0 view .LVU61
 306 0010 FFF7FEFF 		bl	USBD_LL_DataInStage
 307              	.LVL21:
 169:Src/usbd_conf.c **** }
 308              		.loc 1 169 1 view .LVU62
 309 0014 08BD     		pop	{r3, pc}
 310              		.cfi_endproc
 311              	.LFE138:
 313              		.section	.text.HAL_PCD_SOFCallback,"ax",%progbits
 314              		.align	1
 315              		.global	HAL_PCD_SOFCallback
 316              		.syntax unified
 317              		.thumb
 318              		.thumb_func
 320              	HAL_PCD_SOFCallback:
 321              	.LVL22:
 322              	.LFB139:
 170:Src/usbd_conf.c **** 
ARM GAS  C:\Users\ADMINI~1\AppData\Local\Temp\ccFRa6xA.s 			page 10


 171:Src/usbd_conf.c **** /**
 172:Src/usbd_conf.c ****   * @brief  SOF callback.
 173:Src/usbd_conf.c ****   * @param  hpcd: PCD handle
 174:Src/usbd_conf.c ****   * @retval None
 175:Src/usbd_conf.c ****   */
 176:Src/usbd_conf.c **** #if (USE_HAL_PCD_REGISTER_CALLBACKS == 1U)
 177:Src/usbd_conf.c **** static void PCD_SOFCallback(PCD_HandleTypeDef *hpcd)
 178:Src/usbd_conf.c **** #else
 179:Src/usbd_conf.c **** void HAL_PCD_SOFCallback(PCD_HandleTypeDef *hpcd)
 180:Src/usbd_conf.c **** #endif /* USE_HAL_PCD_REGISTER_CALLBACKS */
 181:Src/usbd_conf.c **** {
 323              		.loc 1 181 1 is_stmt 1 view -0
 324              		.cfi_startproc
 325              		@ args = 0, pretend = 0, frame = 0
 326              		@ frame_needed = 0, uses_anonymous_args = 0
 327              		.loc 1 181 1 is_stmt 0 view .LVU64
 328 0000 08B5     		push	{r3, lr}
 329              	.LCFI8:
 330              		.cfi_def_cfa_offset 8
 331              		.cfi_offset 3, -8
 332              		.cfi_offset 14, -4
 182:Src/usbd_conf.c ****   USBD_LL_SOF((USBD_HandleTypeDef*)hpcd->pData);
 333              		.loc 1 182 3 is_stmt 1 view .LVU65
 334 0002 D0F80805 		ldr	r0, [r0, #1288]
 335              	.LVL23:
 336              		.loc 1 182 3 is_stmt 0 view .LVU66
 337 0006 FFF7FEFF 		bl	USBD_LL_SOF
 338              	.LVL24:
 183:Src/usbd_conf.c **** }
 339              		.loc 1 183 1 view .LVU67
 340 000a 08BD     		pop	{r3, pc}
 341              		.cfi_endproc
 342              	.LFE139:
 344              		.section	.text.HAL_PCD_ResetCallback,"ax",%progbits
 345              		.align	1
 346              		.global	HAL_PCD_ResetCallback
 347              		.syntax unified
 348              		.thumb
 349              		.thumb_func
 351              	HAL_PCD_ResetCallback:
 352              	.LVL25:
 353              	.LFB140:
 184:Src/usbd_conf.c **** 
 185:Src/usbd_conf.c **** /**
 186:Src/usbd_conf.c ****   * @brief  Reset callback.
 187:Src/usbd_conf.c ****   * @param  hpcd: PCD handle
 188:Src/usbd_conf.c ****   * @retval None
 189:Src/usbd_conf.c ****   */
 190:Src/usbd_conf.c **** #if (USE_HAL_PCD_REGISTER_CALLBACKS == 1U)
 191:Src/usbd_conf.c **** static void PCD_ResetCallback(PCD_HandleTypeDef *hpcd)
 192:Src/usbd_conf.c **** #else
 193:Src/usbd_conf.c **** void HAL_PCD_ResetCallback(PCD_HandleTypeDef *hpcd)
 194:Src/usbd_conf.c **** #endif /* USE_HAL_PCD_REGISTER_CALLBACKS */
 195:Src/usbd_conf.c **** {
 354              		.loc 1 195 1 is_stmt 1 view -0
 355              		.cfi_startproc
 356              		@ args = 0, pretend = 0, frame = 0
ARM GAS  C:\Users\ADMINI~1\AppData\Local\Temp\ccFRa6xA.s 			page 11


 357              		@ frame_needed = 0, uses_anonymous_args = 0
 358              		.loc 1 195 1 is_stmt 0 view .LVU69
 359 0000 10B5     		push	{r4, lr}
 360              	.LCFI9:
 361              		.cfi_def_cfa_offset 8
 362              		.cfi_offset 4, -8
 363              		.cfi_offset 14, -4
 364 0002 0446     		mov	r4, r0
 196:Src/usbd_conf.c ****   USBD_SpeedTypeDef speed = USBD_SPEED_FULL;
 365              		.loc 1 196 3 is_stmt 1 view .LVU70
 366              	.LVL26:
 197:Src/usbd_conf.c **** 
 198:Src/usbd_conf.c ****   if ( hpcd->Init.speed == PCD_SPEED_HIGH)
 367              		.loc 1 198 3 view .LVU71
 368              		.loc 1 198 18 is_stmt 0 view .LVU72
 369 0004 C368     		ldr	r3, [r0, #12]
 370              		.loc 1 198 6 view .LVU73
 371 0006 3BB1     		cbz	r3, .L23
 199:Src/usbd_conf.c ****   {
 200:Src/usbd_conf.c ****     speed = USBD_SPEED_HIGH;
 201:Src/usbd_conf.c ****   }
 202:Src/usbd_conf.c ****   else if ( hpcd->Init.speed == PCD_SPEED_FULL)
 372              		.loc 1 202 8 is_stmt 1 view .LVU74
 373              		.loc 1 202 11 is_stmt 0 view .LVU75
 374 0008 022B     		cmp	r3, #2
 375 000a 01D1     		bne	.L26
 203:Src/usbd_conf.c ****   {
 204:Src/usbd_conf.c ****     speed = USBD_SPEED_FULL;
 376              		.loc 1 204 11 view .LVU76
 377 000c 0121     		movs	r1, #1
 378 000e 04E0     		b	.L22
 379              	.L26:
 205:Src/usbd_conf.c ****   }
 206:Src/usbd_conf.c ****   else
 207:Src/usbd_conf.c ****   {
 208:Src/usbd_conf.c ****     Error_Handler();
 380              		.loc 1 208 5 is_stmt 1 view .LVU77
 381 0010 FFF7FEFF 		bl	Error_Handler
 382              	.LVL27:
 196:Src/usbd_conf.c **** 
 383              		.loc 1 196 21 is_stmt 0 view .LVU78
 384 0014 0121     		movs	r1, #1
 385 0016 00E0     		b	.L22
 386              	.LVL28:
 387              	.L23:
 200:Src/usbd_conf.c ****   }
 388              		.loc 1 200 11 view .LVU79
 389 0018 0021     		movs	r1, #0
 390              	.LVL29:
 391              	.L22:
 209:Src/usbd_conf.c ****   }
 210:Src/usbd_conf.c ****     /* Set Speed. */
 211:Src/usbd_conf.c ****   USBD_LL_SetSpeed((USBD_HandleTypeDef*)hpcd->pData, speed);
 392              		.loc 1 211 3 is_stmt 1 view .LVU80
 393 001a D4F80805 		ldr	r0, [r4, #1288]
 394 001e FFF7FEFF 		bl	USBD_LL_SetSpeed
 395              	.LVL30:
ARM GAS  C:\Users\ADMINI~1\AppData\Local\Temp\ccFRa6xA.s 			page 12


 212:Src/usbd_conf.c **** 
 213:Src/usbd_conf.c ****   /* Reset Device. */
 214:Src/usbd_conf.c ****   USBD_LL_Reset((USBD_HandleTypeDef*)hpcd->pData);
 396              		.loc 1 214 3 view .LVU81
 397 0022 D4F80805 		ldr	r0, [r4, #1288]
 398 0026 FFF7FEFF 		bl	USBD_LL_Reset
 399              	.LVL31:
 215:Src/usbd_conf.c **** }
 400              		.loc 1 215 1 is_stmt 0 view .LVU82
 401 002a 10BD     		pop	{r4, pc}
 402              		.loc 1 215 1 view .LVU83
 403              		.cfi_endproc
 404              	.LFE140:
 406              		.section	.text.HAL_PCD_SuspendCallback,"ax",%progbits
 407              		.align	1
 408              		.global	HAL_PCD_SuspendCallback
 409              		.syntax unified
 410              		.thumb
 411              		.thumb_func
 413              	HAL_PCD_SuspendCallback:
 414              	.LVL32:
 415              	.LFB141:
 216:Src/usbd_conf.c **** 
 217:Src/usbd_conf.c **** /**
 218:Src/usbd_conf.c ****   * @brief  Suspend callback.
 219:Src/usbd_conf.c ****   * When Low power mode is enabled the debug cannot be used (IAR, Keil doesn't support it)
 220:Src/usbd_conf.c ****   * @param  hpcd: PCD handle
 221:Src/usbd_conf.c ****   * @retval None
 222:Src/usbd_conf.c ****   */
 223:Src/usbd_conf.c **** #if (USE_HAL_PCD_REGISTER_CALLBACKS == 1U)
 224:Src/usbd_conf.c **** static void PCD_SuspendCallback(PCD_HandleTypeDef *hpcd)
 225:Src/usbd_conf.c **** #else
 226:Src/usbd_conf.c **** void HAL_PCD_SuspendCallback(PCD_HandleTypeDef *hpcd)
 227:Src/usbd_conf.c **** #endif /* USE_HAL_PCD_REGISTER_CALLBACKS */
 228:Src/usbd_conf.c **** {
 416              		.loc 1 228 1 is_stmt 1 view -0
 417              		.cfi_startproc
 418              		@ args = 0, pretend = 0, frame = 0
 419              		@ frame_needed = 0, uses_anonymous_args = 0
 420              		.loc 1 228 1 is_stmt 0 view .LVU85
 421 0000 10B5     		push	{r4, lr}
 422              	.LCFI10:
 423              		.cfi_def_cfa_offset 8
 424              		.cfi_offset 4, -8
 425              		.cfi_offset 14, -4
 426 0002 0446     		mov	r4, r0
 229:Src/usbd_conf.c ****   /* Inform USB library that core enters in suspend Mode. */
 230:Src/usbd_conf.c ****   USBD_LL_Suspend((USBD_HandleTypeDef*)hpcd->pData);
 427              		.loc 1 230 3 is_stmt 1 view .LVU86
 428 0004 D0F80805 		ldr	r0, [r0, #1288]
 429              	.LVL33:
 430              		.loc 1 230 3 is_stmt 0 view .LVU87
 431 0008 FFF7FEFF 		bl	USBD_LL_Suspend
 432              	.LVL34:
 231:Src/usbd_conf.c ****   __HAL_PCD_GATE_PHYCLOCK(hpcd);
 433              		.loc 1 231 3 is_stmt 1 view .LVU88
 434 000c 2268     		ldr	r2, [r4]
ARM GAS  C:\Users\ADMINI~1\AppData\Local\Temp\ccFRa6xA.s 			page 13


 435 000e D2F8003E 		ldr	r3, [r2, #3584]
 436 0012 43F00103 		orr	r3, r3, #1
 437 0016 C2F8003E 		str	r3, [r2, #3584]
 232:Src/usbd_conf.c ****   /* Enter in STOP mode. */
 233:Src/usbd_conf.c ****   /* USER CODE BEGIN 2 */
 234:Src/usbd_conf.c ****   if (hpcd->Init.low_power_enable)
 438              		.loc 1 234 3 view .LVU89
 439              		.loc 1 234 17 is_stmt 0 view .LVU90
 440 001a 236A     		ldr	r3, [r4, #32]
 441              		.loc 1 234 6 view .LVU91
 442 001c 23B1     		cbz	r3, .L27
 235:Src/usbd_conf.c ****   {
 236:Src/usbd_conf.c ****     /* Set SLEEPDEEP bit and SleepOnExit of Cortex System Control Register. */
 237:Src/usbd_conf.c ****     SCB->SCR |= (uint32_t)((uint32_t)(SCB_SCR_SLEEPDEEP_Msk | SCB_SCR_SLEEPONEXIT_Msk));
 443              		.loc 1 237 5 is_stmt 1 view .LVU92
 444              		.loc 1 237 14 is_stmt 0 view .LVU93
 445 001e 034A     		ldr	r2, .L30
 446 0020 1369     		ldr	r3, [r2, #16]
 447 0022 43F00603 		orr	r3, r3, #6
 448 0026 1361     		str	r3, [r2, #16]
 449              	.L27:
 238:Src/usbd_conf.c ****   }
 239:Src/usbd_conf.c ****   /* USER CODE END 2 */
 240:Src/usbd_conf.c **** }
 450              		.loc 1 240 1 view .LVU94
 451 0028 10BD     		pop	{r4, pc}
 452              	.LVL35:
 453              	.L31:
 454              		.loc 1 240 1 view .LVU95
 455 002a 00BF     		.align	2
 456              	.L30:
 457 002c 00ED00E0 		.word	-536810240
 458              		.cfi_endproc
 459              	.LFE141:
 461              		.section	.text.HAL_PCD_ResumeCallback,"ax",%progbits
 462              		.align	1
 463              		.global	HAL_PCD_ResumeCallback
 464              		.syntax unified
 465              		.thumb
 466              		.thumb_func
 468              	HAL_PCD_ResumeCallback:
 469              	.LVL36:
 470              	.LFB142:
 241:Src/usbd_conf.c **** 
 242:Src/usbd_conf.c **** /**
 243:Src/usbd_conf.c ****   * @brief  Resume callback.
 244:Src/usbd_conf.c ****   * When Low power mode is enabled the debug cannot be used (IAR, Keil doesn't support it)
 245:Src/usbd_conf.c ****   * @param  hpcd: PCD handle
 246:Src/usbd_conf.c ****   * @retval None
 247:Src/usbd_conf.c ****   */
 248:Src/usbd_conf.c **** #if (USE_HAL_PCD_REGISTER_CALLBACKS == 1U)
 249:Src/usbd_conf.c **** static void PCD_ResumeCallback(PCD_HandleTypeDef *hpcd)
 250:Src/usbd_conf.c **** #else
 251:Src/usbd_conf.c **** void HAL_PCD_ResumeCallback(PCD_HandleTypeDef *hpcd)
 252:Src/usbd_conf.c **** #endif /* USE_HAL_PCD_REGISTER_CALLBACKS */
 253:Src/usbd_conf.c **** {
 471              		.loc 1 253 1 is_stmt 1 view -0
ARM GAS  C:\Users\ADMINI~1\AppData\Local\Temp\ccFRa6xA.s 			page 14


 472              		.cfi_startproc
 473              		@ args = 0, pretend = 0, frame = 0
 474              		@ frame_needed = 0, uses_anonymous_args = 0
 475              		.loc 1 253 1 is_stmt 0 view .LVU97
 476 0000 08B5     		push	{r3, lr}
 477              	.LCFI11:
 478              		.cfi_def_cfa_offset 8
 479              		.cfi_offset 3, -8
 480              		.cfi_offset 14, -4
 254:Src/usbd_conf.c ****   /* USER CODE BEGIN 3 */
 255:Src/usbd_conf.c **** 
 256:Src/usbd_conf.c ****   /* USER CODE END 3 */
 257:Src/usbd_conf.c ****   USBD_LL_Resume((USBD_HandleTypeDef*)hpcd->pData);
 481              		.loc 1 257 3 is_stmt 1 view .LVU98
 482 0002 D0F80805 		ldr	r0, [r0, #1288]
 483              	.LVL37:
 484              		.loc 1 257 3 is_stmt 0 view .LVU99
 485 0006 FFF7FEFF 		bl	USBD_LL_Resume
 486              	.LVL38:
 258:Src/usbd_conf.c **** }
 487              		.loc 1 258 1 view .LVU100
 488 000a 08BD     		pop	{r3, pc}
 489              		.cfi_endproc
 490              	.LFE142:
 492              		.section	.text.HAL_PCD_ISOOUTIncompleteCallback,"ax",%progbits
 493              		.align	1
 494              		.global	HAL_PCD_ISOOUTIncompleteCallback
 495              		.syntax unified
 496              		.thumb
 497              		.thumb_func
 499              	HAL_PCD_ISOOUTIncompleteCallback:
 500              	.LVL39:
 501              	.LFB143:
 259:Src/usbd_conf.c **** 
 260:Src/usbd_conf.c **** /**
 261:Src/usbd_conf.c ****   * @brief  ISOOUTIncomplete callback.
 262:Src/usbd_conf.c ****   * @param  hpcd: PCD handle
 263:Src/usbd_conf.c ****   * @param  epnum: Endpoint number
 264:Src/usbd_conf.c ****   * @retval None
 265:Src/usbd_conf.c ****   */
 266:Src/usbd_conf.c **** #if (USE_HAL_PCD_REGISTER_CALLBACKS == 1U)
 267:Src/usbd_conf.c **** static void PCD_ISOOUTIncompleteCallback(PCD_HandleTypeDef *hpcd, uint8_t epnum)
 268:Src/usbd_conf.c **** #else
 269:Src/usbd_conf.c **** void HAL_PCD_ISOOUTIncompleteCallback(PCD_HandleTypeDef *hpcd, uint8_t epnum)
 270:Src/usbd_conf.c **** #endif /* USE_HAL_PCD_REGISTER_CALLBACKS */
 271:Src/usbd_conf.c **** {
 502              		.loc 1 271 1 is_stmt 1 view -0
 503              		.cfi_startproc
 504              		@ args = 0, pretend = 0, frame = 0
 505              		@ frame_needed = 0, uses_anonymous_args = 0
 506              		.loc 1 271 1 is_stmt 0 view .LVU102
 507 0000 08B5     		push	{r3, lr}
 508              	.LCFI12:
 509              		.cfi_def_cfa_offset 8
 510              		.cfi_offset 3, -8
 511              		.cfi_offset 14, -4
 272:Src/usbd_conf.c ****   USBD_LL_IsoOUTIncomplete((USBD_HandleTypeDef*)hpcd->pData, epnum);
ARM GAS  C:\Users\ADMINI~1\AppData\Local\Temp\ccFRa6xA.s 			page 15


 512              		.loc 1 272 3 is_stmt 1 view .LVU103
 513 0002 D0F80805 		ldr	r0, [r0, #1288]
 514              	.LVL40:
 515              		.loc 1 272 3 is_stmt 0 view .LVU104
 516 0006 FFF7FEFF 		bl	USBD_LL_IsoOUTIncomplete
 517              	.LVL41:
 273:Src/usbd_conf.c **** }
 518              		.loc 1 273 1 view .LVU105
 519 000a 08BD     		pop	{r3, pc}
 520              		.cfi_endproc
 521              	.LFE143:
 523              		.section	.text.HAL_PCD_ISOINIncompleteCallback,"ax",%progbits
 524              		.align	1
 525              		.global	HAL_PCD_ISOINIncompleteCallback
 526              		.syntax unified
 527              		.thumb
 528              		.thumb_func
 530              	HAL_PCD_ISOINIncompleteCallback:
 531              	.LVL42:
 532              	.LFB144:
 274:Src/usbd_conf.c **** 
 275:Src/usbd_conf.c **** /**
 276:Src/usbd_conf.c ****   * @brief  ISOINIncomplete callback.
 277:Src/usbd_conf.c ****   * @param  hpcd: PCD handle
 278:Src/usbd_conf.c ****   * @param  epnum: Endpoint number
 279:Src/usbd_conf.c ****   * @retval None
 280:Src/usbd_conf.c ****   */
 281:Src/usbd_conf.c **** #if (USE_HAL_PCD_REGISTER_CALLBACKS == 1U)
 282:Src/usbd_conf.c **** static void PCD_ISOINIncompleteCallback(PCD_HandleTypeDef *hpcd, uint8_t epnum)
 283:Src/usbd_conf.c **** #else
 284:Src/usbd_conf.c **** void HAL_PCD_ISOINIncompleteCallback(PCD_HandleTypeDef *hpcd, uint8_t epnum)
 285:Src/usbd_conf.c **** #endif /* USE_HAL_PCD_REGISTER_CALLBACKS */
 286:Src/usbd_conf.c **** {
 533              		.loc 1 286 1 is_stmt 1 view -0
 534              		.cfi_startproc
 535              		@ args = 0, pretend = 0, frame = 0
 536              		@ frame_needed = 0, uses_anonymous_args = 0
 537              		.loc 1 286 1 is_stmt 0 view .LVU107
 538 0000 08B5     		push	{r3, lr}
 539              	.LCFI13:
 540              		.cfi_def_cfa_offset 8
 541              		.cfi_offset 3, -8
 542              		.cfi_offset 14, -4
 287:Src/usbd_conf.c ****   USBD_LL_IsoINIncomplete((USBD_HandleTypeDef*)hpcd->pData, epnum);
 543              		.loc 1 287 3 is_stmt 1 view .LVU108
 544 0002 D0F80805 		ldr	r0, [r0, #1288]
 545              	.LVL43:
 546              		.loc 1 287 3 is_stmt 0 view .LVU109
 547 0006 FFF7FEFF 		bl	USBD_LL_IsoINIncomplete
 548              	.LVL44:
 288:Src/usbd_conf.c **** }
 549              		.loc 1 288 1 view .LVU110
 550 000a 08BD     		pop	{r3, pc}
 551              		.cfi_endproc
 552              	.LFE144:
 554              		.section	.text.HAL_PCD_ConnectCallback,"ax",%progbits
 555              		.align	1
ARM GAS  C:\Users\ADMINI~1\AppData\Local\Temp\ccFRa6xA.s 			page 16


 556              		.global	HAL_PCD_ConnectCallback
 557              		.syntax unified
 558              		.thumb
 559              		.thumb_func
 561              	HAL_PCD_ConnectCallback:
 562              	.LVL45:
 563              	.LFB145:
 289:Src/usbd_conf.c **** 
 290:Src/usbd_conf.c **** /**
 291:Src/usbd_conf.c ****   * @brief  Connect callback.
 292:Src/usbd_conf.c ****   * @param  hpcd: PCD handle
 293:Src/usbd_conf.c ****   * @retval None
 294:Src/usbd_conf.c ****   */
 295:Src/usbd_conf.c **** #if (USE_HAL_PCD_REGISTER_CALLBACKS == 1U)
 296:Src/usbd_conf.c **** static void PCD_ConnectCallback(PCD_HandleTypeDef *hpcd)
 297:Src/usbd_conf.c **** #else
 298:Src/usbd_conf.c **** void HAL_PCD_ConnectCallback(PCD_HandleTypeDef *hpcd)
 299:Src/usbd_conf.c **** #endif /* USE_HAL_PCD_REGISTER_CALLBACKS */
 300:Src/usbd_conf.c **** {
 564              		.loc 1 300 1 is_stmt 1 view -0
 565              		.cfi_startproc
 566              		@ args = 0, pretend = 0, frame = 0
 567              		@ frame_needed = 0, uses_anonymous_args = 0
 568              		.loc 1 300 1 is_stmt 0 view .LVU112
 569 0000 08B5     		push	{r3, lr}
 570              	.LCFI14:
 571              		.cfi_def_cfa_offset 8
 572              		.cfi_offset 3, -8
 573              		.cfi_offset 14, -4
 301:Src/usbd_conf.c ****   USBD_LL_DevConnected((USBD_HandleTypeDef*)hpcd->pData);
 574              		.loc 1 301 3 is_stmt 1 view .LVU113
 575 0002 D0F80805 		ldr	r0, [r0, #1288]
 576              	.LVL46:
 577              		.loc 1 301 3 is_stmt 0 view .LVU114
 578 0006 FFF7FEFF 		bl	USBD_LL_DevConnected
 579              	.LVL47:
 302:Src/usbd_conf.c **** }
 580              		.loc 1 302 1 view .LVU115
 581 000a 08BD     		pop	{r3, pc}
 582              		.cfi_endproc
 583              	.LFE145:
 585              		.section	.text.HAL_PCD_DisconnectCallback,"ax",%progbits
 586              		.align	1
 587              		.global	HAL_PCD_DisconnectCallback
 588              		.syntax unified
 589              		.thumb
 590              		.thumb_func
 592              	HAL_PCD_DisconnectCallback:
 593              	.LVL48:
 594              	.LFB146:
 303:Src/usbd_conf.c **** 
 304:Src/usbd_conf.c **** /**
 305:Src/usbd_conf.c ****   * @brief  Disconnect callback.
 306:Src/usbd_conf.c ****   * @param  hpcd: PCD handle
 307:Src/usbd_conf.c ****   * @retval None
 308:Src/usbd_conf.c ****   */
 309:Src/usbd_conf.c **** #if (USE_HAL_PCD_REGISTER_CALLBACKS == 1U)
ARM GAS  C:\Users\ADMINI~1\AppData\Local\Temp\ccFRa6xA.s 			page 17


 310:Src/usbd_conf.c **** static void PCD_DisconnectCallback(PCD_HandleTypeDef *hpcd)
 311:Src/usbd_conf.c **** #else
 312:Src/usbd_conf.c **** void HAL_PCD_DisconnectCallback(PCD_HandleTypeDef *hpcd)
 313:Src/usbd_conf.c **** #endif /* USE_HAL_PCD_REGISTER_CALLBACKS */
 314:Src/usbd_conf.c **** {
 595              		.loc 1 314 1 is_stmt 1 view -0
 596              		.cfi_startproc
 597              		@ args = 0, pretend = 0, frame = 0
 598              		@ frame_needed = 0, uses_anonymous_args = 0
 599              		.loc 1 314 1 is_stmt 0 view .LVU117
 600 0000 08B5     		push	{r3, lr}
 601              	.LCFI15:
 602              		.cfi_def_cfa_offset 8
 603              		.cfi_offset 3, -8
 604              		.cfi_offset 14, -4
 315:Src/usbd_conf.c ****   USBD_LL_DevDisconnected((USBD_HandleTypeDef*)hpcd->pData);
 605              		.loc 1 315 3 is_stmt 1 view .LVU118
 606 0002 D0F80805 		ldr	r0, [r0, #1288]
 607              	.LVL49:
 608              		.loc 1 315 3 is_stmt 0 view .LVU119
 609 0006 FFF7FEFF 		bl	USBD_LL_DevDisconnected
 610              	.LVL50:
 316:Src/usbd_conf.c **** }
 611              		.loc 1 316 1 view .LVU120
 612 000a 08BD     		pop	{r3, pc}
 613              		.cfi_endproc
 614              	.LFE146:
 616              		.section	.text.USBD_LL_Init,"ax",%progbits
 617              		.align	1
 618              		.global	USBD_LL_Init
 619              		.syntax unified
 620              		.thumb
 621              		.thumb_func
 623              	USBD_LL_Init:
 624              	.LVL51:
 625              	.LFB147:
 317:Src/usbd_conf.c **** 
 318:Src/usbd_conf.c **** /*******************************************************************************
 319:Src/usbd_conf.c ****                        LL Driver Interface (USB Device Library --> PCD)
 320:Src/usbd_conf.c **** *******************************************************************************/
 321:Src/usbd_conf.c **** 
 322:Src/usbd_conf.c **** /**
 323:Src/usbd_conf.c ****   * @brief  Initializes the low level portion of the device driver.
 324:Src/usbd_conf.c ****   * @param  pdev: Device handle
 325:Src/usbd_conf.c ****   * @retval USBD status
 326:Src/usbd_conf.c ****   */
 327:Src/usbd_conf.c **** USBD_StatusTypeDef USBD_LL_Init(USBD_HandleTypeDef *pdev)
 328:Src/usbd_conf.c **** {
 626              		.loc 1 328 1 is_stmt 1 view -0
 627              		.cfi_startproc
 628              		@ args = 0, pretend = 0, frame = 0
 629              		@ frame_needed = 0, uses_anonymous_args = 0
 329:Src/usbd_conf.c ****   /* Init USB Ip. */
 330:Src/usbd_conf.c ****   if (pdev->id == DEVICE_FS) {
 630              		.loc 1 330 3 view .LVU122
 631              		.loc 1 330 11 is_stmt 0 view .LVU123
 632 0000 0278     		ldrb	r2, [r0]	@ zero_extendqisi2
ARM GAS  C:\Users\ADMINI~1\AppData\Local\Temp\ccFRa6xA.s 			page 18


 633              		.loc 1 330 6 view .LVU124
 634 0002 0AB1     		cbz	r2, .L49
 331:Src/usbd_conf.c ****   /* Link the driver to the stack. */
 332:Src/usbd_conf.c ****   hpcd_USB_OTG_FS.pData = pdev;
 333:Src/usbd_conf.c ****   pdev->pData = &hpcd_USB_OTG_FS;
 334:Src/usbd_conf.c **** 
 335:Src/usbd_conf.c ****   hpcd_USB_OTG_FS.Instance = USB_OTG_FS;
 336:Src/usbd_conf.c ****   hpcd_USB_OTG_FS.Init.dev_endpoints = 6;
 337:Src/usbd_conf.c ****   hpcd_USB_OTG_FS.Init.speed = PCD_SPEED_FULL;
 338:Src/usbd_conf.c ****   hpcd_USB_OTG_FS.Init.dma_enable = DISABLE;
 339:Src/usbd_conf.c ****   hpcd_USB_OTG_FS.Init.phy_itface = PCD_PHY_EMBEDDED;
 340:Src/usbd_conf.c ****   hpcd_USB_OTG_FS.Init.Sof_enable = DISABLE;
 341:Src/usbd_conf.c ****   hpcd_USB_OTG_FS.Init.low_power_enable = DISABLE;
 342:Src/usbd_conf.c ****   hpcd_USB_OTG_FS.Init.lpm_enable = DISABLE;
 343:Src/usbd_conf.c ****   hpcd_USB_OTG_FS.Init.vbus_sensing_enable = DISABLE;
 344:Src/usbd_conf.c ****   hpcd_USB_OTG_FS.Init.use_dedicated_ep1 = DISABLE;
 345:Src/usbd_conf.c ****   if (HAL_PCD_Init(&hpcd_USB_OTG_FS) != HAL_OK)
 346:Src/usbd_conf.c ****   {
 347:Src/usbd_conf.c ****     Error_Handler( );
 348:Src/usbd_conf.c ****   }
 349:Src/usbd_conf.c **** 
 350:Src/usbd_conf.c **** #if (USE_HAL_PCD_REGISTER_CALLBACKS == 1U)
 351:Src/usbd_conf.c ****   /* Register USB PCD CallBacks */
 352:Src/usbd_conf.c ****   HAL_PCD_RegisterCallback(&hpcd_USB_OTG_FS, HAL_PCD_SOF_CB_ID, PCD_SOFCallback);
 353:Src/usbd_conf.c ****   HAL_PCD_RegisterCallback(&hpcd_USB_OTG_FS, HAL_PCD_SETUPSTAGE_CB_ID, PCD_SetupStageCallback);
 354:Src/usbd_conf.c ****   HAL_PCD_RegisterCallback(&hpcd_USB_OTG_FS, HAL_PCD_RESET_CB_ID, PCD_ResetCallback);
 355:Src/usbd_conf.c ****   HAL_PCD_RegisterCallback(&hpcd_USB_OTG_FS, HAL_PCD_SUSPEND_CB_ID, PCD_SuspendCallback);
 356:Src/usbd_conf.c ****   HAL_PCD_RegisterCallback(&hpcd_USB_OTG_FS, HAL_PCD_RESUME_CB_ID, PCD_ResumeCallback);
 357:Src/usbd_conf.c ****   HAL_PCD_RegisterCallback(&hpcd_USB_OTG_FS, HAL_PCD_CONNECT_CB_ID, PCD_ConnectCallback);
 358:Src/usbd_conf.c ****   HAL_PCD_RegisterCallback(&hpcd_USB_OTG_FS, HAL_PCD_DISCONNECT_CB_ID, PCD_DisconnectCallback);
 359:Src/usbd_conf.c **** 
 360:Src/usbd_conf.c ****   HAL_PCD_RegisterDataOutStageCallback(&hpcd_USB_OTG_FS, PCD_DataOutStageCallback);
 361:Src/usbd_conf.c ****   HAL_PCD_RegisterDataInStageCallback(&hpcd_USB_OTG_FS, PCD_DataInStageCallback);
 362:Src/usbd_conf.c ****   HAL_PCD_RegisterIsoOutIncpltCallback(&hpcd_USB_OTG_FS, PCD_ISOOUTIncompleteCallback);
 363:Src/usbd_conf.c ****   HAL_PCD_RegisterIsoInIncpltCallback(&hpcd_USB_OTG_FS, PCD_ISOINIncompleteCallback);
 364:Src/usbd_conf.c **** #endif /* USE_HAL_PCD_REGISTER_CALLBACKS */
 365:Src/usbd_conf.c ****   HAL_PCDEx_SetRxFiFo(&hpcd_USB_OTG_FS, 0x80);
 366:Src/usbd_conf.c ****   HAL_PCDEx_SetTxFiFo(&hpcd_USB_OTG_FS, 0, 0x40);
 367:Src/usbd_conf.c ****   HAL_PCDEx_SetTxFiFo(&hpcd_USB_OTG_FS, 1, 0x80);
 368:Src/usbd_conf.c ****   HAL_PCDEx_SetTxFiFo(&hpcd_USB_OTG_FS, 2, 0x40);
 369:Src/usbd_conf.c ****   HAL_PCDEx_SetTxFiFo(&hpcd_USB_OTG_FS, 3, 0x80);
 370:Src/usbd_conf.c ****   }
 371:Src/usbd_conf.c ****   return USBD_OK;
 635              		.loc 1 371 3 is_stmt 1 view .LVU125
 372:Src/usbd_conf.c **** }
 636              		.loc 1 372 1 is_stmt 0 view .LVU126
 637 0004 0020     		movs	r0, #0
 638              	.LVL52:
 639              		.loc 1 372 1 view .LVU127
 640 0006 7047     		bx	lr
 641              	.LVL53:
 642              	.L49:
 328:Src/usbd_conf.c ****   /* Init USB Ip. */
 643              		.loc 1 328 1 view .LVU128
 644 0008 10B5     		push	{r4, lr}
 645              	.LCFI16:
 646              		.cfi_def_cfa_offset 8
ARM GAS  C:\Users\ADMINI~1\AppData\Local\Temp\ccFRa6xA.s 			page 19


 647              		.cfi_offset 4, -8
 648              		.cfi_offset 14, -4
 649 000a 0346     		mov	r3, r0
 332:Src/usbd_conf.c ****   pdev->pData = &hpcd_USB_OTG_FS;
 650              		.loc 1 332 3 is_stmt 1 view .LVU129
 332:Src/usbd_conf.c ****   pdev->pData = &hpcd_USB_OTG_FS;
 651              		.loc 1 332 25 is_stmt 0 view .LVU130
 652 000c 1A48     		ldr	r0, .L51
 653              	.LVL54:
 332:Src/usbd_conf.c ****   pdev->pData = &hpcd_USB_OTG_FS;
 654              		.loc 1 332 25 view .LVU131
 655 000e C0F80835 		str	r3, [r0, #1288]
 333:Src/usbd_conf.c **** 
 656              		.loc 1 333 3 is_stmt 1 view .LVU132
 333:Src/usbd_conf.c **** 
 657              		.loc 1 333 15 is_stmt 0 view .LVU133
 658 0012 C3F8EC02 		str	r0, [r3, #748]
 335:Src/usbd_conf.c ****   hpcd_USB_OTG_FS.Init.dev_endpoints = 6;
 659              		.loc 1 335 3 is_stmt 1 view .LVU134
 335:Src/usbd_conf.c ****   hpcd_USB_OTG_FS.Init.dev_endpoints = 6;
 660              		.loc 1 335 28 is_stmt 0 view .LVU135
 661 0016 4FF0A043 		mov	r3, #1342177280
 662              	.LVL55:
 335:Src/usbd_conf.c ****   hpcd_USB_OTG_FS.Init.dev_endpoints = 6;
 663              		.loc 1 335 28 view .LVU136
 664 001a 0360     		str	r3, [r0]
 336:Src/usbd_conf.c ****   hpcd_USB_OTG_FS.Init.speed = PCD_SPEED_FULL;
 665              		.loc 1 336 3 is_stmt 1 view .LVU137
 336:Src/usbd_conf.c ****   hpcd_USB_OTG_FS.Init.speed = PCD_SPEED_FULL;
 666              		.loc 1 336 38 is_stmt 0 view .LVU138
 667 001c 0623     		movs	r3, #6
 668 001e 4360     		str	r3, [r0, #4]
 337:Src/usbd_conf.c ****   hpcd_USB_OTG_FS.Init.dma_enable = DISABLE;
 669              		.loc 1 337 3 is_stmt 1 view .LVU139
 337:Src/usbd_conf.c ****   hpcd_USB_OTG_FS.Init.dma_enable = DISABLE;
 670              		.loc 1 337 30 is_stmt 0 view .LVU140
 671 0020 0222     		movs	r2, #2
 672 0022 C260     		str	r2, [r0, #12]
 338:Src/usbd_conf.c ****   hpcd_USB_OTG_FS.Init.phy_itface = PCD_PHY_EMBEDDED;
 673              		.loc 1 338 3 is_stmt 1 view .LVU141
 338:Src/usbd_conf.c ****   hpcd_USB_OTG_FS.Init.phy_itface = PCD_PHY_EMBEDDED;
 674              		.loc 1 338 35 is_stmt 0 view .LVU142
 675 0024 0023     		movs	r3, #0
 676 0026 0361     		str	r3, [r0, #16]
 339:Src/usbd_conf.c ****   hpcd_USB_OTG_FS.Init.Sof_enable = DISABLE;
 677              		.loc 1 339 3 is_stmt 1 view .LVU143
 339:Src/usbd_conf.c ****   hpcd_USB_OTG_FS.Init.Sof_enable = DISABLE;
 678              		.loc 1 339 35 is_stmt 0 view .LVU144
 679 0028 8261     		str	r2, [r0, #24]
 340:Src/usbd_conf.c ****   hpcd_USB_OTG_FS.Init.low_power_enable = DISABLE;
 680              		.loc 1 340 3 is_stmt 1 view .LVU145
 340:Src/usbd_conf.c ****   hpcd_USB_OTG_FS.Init.low_power_enable = DISABLE;
 681              		.loc 1 340 35 is_stmt 0 view .LVU146
 682 002a C361     		str	r3, [r0, #28]
 341:Src/usbd_conf.c ****   hpcd_USB_OTG_FS.Init.lpm_enable = DISABLE;
 683              		.loc 1 341 3 is_stmt 1 view .LVU147
 341:Src/usbd_conf.c ****   hpcd_USB_OTG_FS.Init.lpm_enable = DISABLE;
ARM GAS  C:\Users\ADMINI~1\AppData\Local\Temp\ccFRa6xA.s 			page 20


 684              		.loc 1 341 41 is_stmt 0 view .LVU148
 685 002c 0362     		str	r3, [r0, #32]
 342:Src/usbd_conf.c ****   hpcd_USB_OTG_FS.Init.vbus_sensing_enable = DISABLE;
 686              		.loc 1 342 3 is_stmt 1 view .LVU149
 342:Src/usbd_conf.c ****   hpcd_USB_OTG_FS.Init.vbus_sensing_enable = DISABLE;
 687              		.loc 1 342 35 is_stmt 0 view .LVU150
 688 002e 4362     		str	r3, [r0, #36]
 343:Src/usbd_conf.c ****   hpcd_USB_OTG_FS.Init.use_dedicated_ep1 = DISABLE;
 689              		.loc 1 343 3 is_stmt 1 view .LVU151
 343:Src/usbd_conf.c ****   hpcd_USB_OTG_FS.Init.use_dedicated_ep1 = DISABLE;
 690              		.loc 1 343 44 is_stmt 0 view .LVU152
 691 0030 C362     		str	r3, [r0, #44]
 344:Src/usbd_conf.c ****   if (HAL_PCD_Init(&hpcd_USB_OTG_FS) != HAL_OK)
 692              		.loc 1 344 3 is_stmt 1 view .LVU153
 344:Src/usbd_conf.c ****   if (HAL_PCD_Init(&hpcd_USB_OTG_FS) != HAL_OK)
 693              		.loc 1 344 42 is_stmt 0 view .LVU154
 694 0032 0363     		str	r3, [r0, #48]
 345:Src/usbd_conf.c ****   {
 695              		.loc 1 345 3 is_stmt 1 view .LVU155
 345:Src/usbd_conf.c ****   {
 696              		.loc 1 345 7 is_stmt 0 view .LVU156
 697 0034 FFF7FEFF 		bl	HAL_PCD_Init
 698              	.LVL56:
 345:Src/usbd_conf.c ****   {
 699              		.loc 1 345 6 view .LVU157
 700 0038 D0B9     		cbnz	r0, .L50
 701              	.L44:
 365:Src/usbd_conf.c ****   HAL_PCDEx_SetTxFiFo(&hpcd_USB_OTG_FS, 0, 0x40);
 702              		.loc 1 365 3 is_stmt 1 view .LVU158
 703 003a 0F4C     		ldr	r4, .L51
 704 003c 8021     		movs	r1, #128
 705 003e 2046     		mov	r0, r4
 706 0040 FFF7FEFF 		bl	HAL_PCDEx_SetRxFiFo
 707              	.LVL57:
 366:Src/usbd_conf.c ****   HAL_PCDEx_SetTxFiFo(&hpcd_USB_OTG_FS, 1, 0x80);
 708              		.loc 1 366 3 view .LVU159
 709 0044 4022     		movs	r2, #64
 710 0046 0021     		movs	r1, #0
 711 0048 2046     		mov	r0, r4
 712 004a FFF7FEFF 		bl	HAL_PCDEx_SetTxFiFo
 713              	.LVL58:
 367:Src/usbd_conf.c ****   HAL_PCDEx_SetTxFiFo(&hpcd_USB_OTG_FS, 2, 0x40);
 714              		.loc 1 367 3 view .LVU160
 715 004e 8022     		movs	r2, #128
 716 0050 0121     		movs	r1, #1
 717 0052 2046     		mov	r0, r4
 718 0054 FFF7FEFF 		bl	HAL_PCDEx_SetTxFiFo
 719              	.LVL59:
 368:Src/usbd_conf.c ****   HAL_PCDEx_SetTxFiFo(&hpcd_USB_OTG_FS, 3, 0x80);
 720              		.loc 1 368 3 view .LVU161
 721 0058 4022     		movs	r2, #64
 722 005a 0221     		movs	r1, #2
 723 005c 2046     		mov	r0, r4
 724 005e FFF7FEFF 		bl	HAL_PCDEx_SetTxFiFo
 725              	.LVL60:
 369:Src/usbd_conf.c ****   }
 726              		.loc 1 369 3 view .LVU162
ARM GAS  C:\Users\ADMINI~1\AppData\Local\Temp\ccFRa6xA.s 			page 21


 727 0062 8022     		movs	r2, #128
 728 0064 0321     		movs	r1, #3
 729 0066 2046     		mov	r0, r4
 730 0068 FFF7FEFF 		bl	HAL_PCDEx_SetTxFiFo
 731              	.LVL61:
 371:Src/usbd_conf.c **** }
 732              		.loc 1 371 3 view .LVU163
 733              		.loc 1 372 1 is_stmt 0 view .LVU164
 734 006c 0020     		movs	r0, #0
 735 006e 10BD     		pop	{r4, pc}
 736              	.L50:
 347:Src/usbd_conf.c ****   }
 737              		.loc 1 347 5 is_stmt 1 view .LVU165
 738 0070 FFF7FEFF 		bl	Error_Handler
 739              	.LVL62:
 740 0074 E1E7     		b	.L44
 741              	.L52:
 742 0076 00BF     		.align	2
 743              	.L51:
 744 0078 00000000 		.word	.LANCHOR0
 745              		.cfi_endproc
 746              	.LFE147:
 748              		.section	.text.USBD_LL_IsStallEP,"ax",%progbits
 749              		.align	1
 750              		.global	USBD_LL_IsStallEP
 751              		.syntax unified
 752              		.thumb
 753              		.thumb_func
 755              	USBD_LL_IsStallEP:
 756              	.LVL63:
 757              	.LFB156:
 373:Src/usbd_conf.c **** 
 374:Src/usbd_conf.c **** /**
 375:Src/usbd_conf.c ****   * @brief  De-Initializes the low level portion of the device driver.
 376:Src/usbd_conf.c ****   * @param  pdev: Device handle
 377:Src/usbd_conf.c ****   * @retval USBD status
 378:Src/usbd_conf.c ****   */
 379:Src/usbd_conf.c **** USBD_StatusTypeDef USBD_LL_DeInit(USBD_HandleTypeDef *pdev)
 380:Src/usbd_conf.c **** {
 381:Src/usbd_conf.c ****   HAL_StatusTypeDef hal_status = HAL_OK;
 382:Src/usbd_conf.c ****   USBD_StatusTypeDef usb_status = USBD_OK;
 383:Src/usbd_conf.c **** 
 384:Src/usbd_conf.c ****   hal_status = HAL_PCD_DeInit(pdev->pData);
 385:Src/usbd_conf.c **** 
 386:Src/usbd_conf.c ****   usb_status =  USBD_Get_USB_Status(hal_status);
 387:Src/usbd_conf.c **** 
 388:Src/usbd_conf.c ****   return usb_status;
 389:Src/usbd_conf.c **** }
 390:Src/usbd_conf.c **** 
 391:Src/usbd_conf.c **** /**
 392:Src/usbd_conf.c ****   * @brief  Starts the low level portion of the device driver.
 393:Src/usbd_conf.c ****   * @param  pdev: Device handle
 394:Src/usbd_conf.c ****   * @retval USBD status
 395:Src/usbd_conf.c ****   */
 396:Src/usbd_conf.c **** USBD_StatusTypeDef USBD_LL_Start(USBD_HandleTypeDef *pdev)
 397:Src/usbd_conf.c **** {
 398:Src/usbd_conf.c ****   HAL_StatusTypeDef hal_status = HAL_OK;
ARM GAS  C:\Users\ADMINI~1\AppData\Local\Temp\ccFRa6xA.s 			page 22


 399:Src/usbd_conf.c ****   USBD_StatusTypeDef usb_status = USBD_OK;
 400:Src/usbd_conf.c **** 
 401:Src/usbd_conf.c ****   hal_status = HAL_PCD_Start(pdev->pData);
 402:Src/usbd_conf.c **** 
 403:Src/usbd_conf.c ****   usb_status =  USBD_Get_USB_Status(hal_status);
 404:Src/usbd_conf.c **** 
 405:Src/usbd_conf.c ****   return usb_status;
 406:Src/usbd_conf.c **** }
 407:Src/usbd_conf.c **** 
 408:Src/usbd_conf.c **** /**
 409:Src/usbd_conf.c ****   * @brief  Stops the low level portion of the device driver.
 410:Src/usbd_conf.c ****   * @param  pdev: Device handle
 411:Src/usbd_conf.c ****   * @retval USBD status
 412:Src/usbd_conf.c ****   */
 413:Src/usbd_conf.c **** USBD_StatusTypeDef USBD_LL_Stop(USBD_HandleTypeDef *pdev)
 414:Src/usbd_conf.c **** {
 415:Src/usbd_conf.c ****   HAL_StatusTypeDef hal_status = HAL_OK;
 416:Src/usbd_conf.c ****   USBD_StatusTypeDef usb_status = USBD_OK;
 417:Src/usbd_conf.c **** 
 418:Src/usbd_conf.c ****   hal_status = HAL_PCD_Stop(pdev->pData);
 419:Src/usbd_conf.c **** 
 420:Src/usbd_conf.c ****   usb_status =  USBD_Get_USB_Status(hal_status);
 421:Src/usbd_conf.c **** 
 422:Src/usbd_conf.c ****   return usb_status;
 423:Src/usbd_conf.c **** }
 424:Src/usbd_conf.c **** 
 425:Src/usbd_conf.c **** /**
 426:Src/usbd_conf.c ****   * @brief  Opens an endpoint of the low level driver.
 427:Src/usbd_conf.c ****   * @param  pdev: Device handle
 428:Src/usbd_conf.c ****   * @param  ep_addr: Endpoint number
 429:Src/usbd_conf.c ****   * @param  ep_type: Endpoint type
 430:Src/usbd_conf.c ****   * @param  ep_mps: Endpoint max packet size
 431:Src/usbd_conf.c ****   * @retval USBD status
 432:Src/usbd_conf.c ****   */
 433:Src/usbd_conf.c **** USBD_StatusTypeDef USBD_LL_OpenEP(USBD_HandleTypeDef *pdev, uint8_t ep_addr, uint8_t ep_type, uint1
 434:Src/usbd_conf.c **** {
 435:Src/usbd_conf.c ****   HAL_StatusTypeDef hal_status = HAL_OK;
 436:Src/usbd_conf.c ****   USBD_StatusTypeDef usb_status = USBD_OK;
 437:Src/usbd_conf.c **** 
 438:Src/usbd_conf.c ****   hal_status = HAL_PCD_EP_Open(pdev->pData, ep_addr, ep_mps, ep_type);
 439:Src/usbd_conf.c **** 
 440:Src/usbd_conf.c ****   usb_status =  USBD_Get_USB_Status(hal_status);
 441:Src/usbd_conf.c **** 
 442:Src/usbd_conf.c ****   return usb_status;
 443:Src/usbd_conf.c **** }
 444:Src/usbd_conf.c **** 
 445:Src/usbd_conf.c **** /**
 446:Src/usbd_conf.c ****   * @brief  Closes an endpoint of the low level driver.
 447:Src/usbd_conf.c ****   * @param  pdev: Device handle
 448:Src/usbd_conf.c ****   * @param  ep_addr: Endpoint number
 449:Src/usbd_conf.c ****   * @retval USBD status
 450:Src/usbd_conf.c ****   */
 451:Src/usbd_conf.c **** USBD_StatusTypeDef USBD_LL_CloseEP(USBD_HandleTypeDef *pdev, uint8_t ep_addr)
 452:Src/usbd_conf.c **** {
 453:Src/usbd_conf.c ****   HAL_StatusTypeDef hal_status = HAL_OK;
 454:Src/usbd_conf.c ****   USBD_StatusTypeDef usb_status = USBD_OK;
 455:Src/usbd_conf.c **** 
ARM GAS  C:\Users\ADMINI~1\AppData\Local\Temp\ccFRa6xA.s 			page 23


 456:Src/usbd_conf.c ****   hal_status = HAL_PCD_EP_Close(pdev->pData, ep_addr);
 457:Src/usbd_conf.c **** 
 458:Src/usbd_conf.c ****   usb_status =  USBD_Get_USB_Status(hal_status);
 459:Src/usbd_conf.c **** 
 460:Src/usbd_conf.c ****   return usb_status;
 461:Src/usbd_conf.c **** }
 462:Src/usbd_conf.c **** 
 463:Src/usbd_conf.c **** /**
 464:Src/usbd_conf.c ****   * @brief  Flushes an endpoint of the Low Level Driver.
 465:Src/usbd_conf.c ****   * @param  pdev: Device handle
 466:Src/usbd_conf.c ****   * @param  ep_addr: Endpoint number
 467:Src/usbd_conf.c ****   * @retval USBD status
 468:Src/usbd_conf.c ****   */
 469:Src/usbd_conf.c **** USBD_StatusTypeDef USBD_LL_FlushEP(USBD_HandleTypeDef *pdev, uint8_t ep_addr)
 470:Src/usbd_conf.c **** {
 471:Src/usbd_conf.c ****   HAL_StatusTypeDef hal_status = HAL_OK;
 472:Src/usbd_conf.c ****   USBD_StatusTypeDef usb_status = USBD_OK;
 473:Src/usbd_conf.c **** 
 474:Src/usbd_conf.c ****   hal_status = HAL_PCD_EP_Flush(pdev->pData, ep_addr);
 475:Src/usbd_conf.c **** 
 476:Src/usbd_conf.c ****   usb_status =  USBD_Get_USB_Status(hal_status);
 477:Src/usbd_conf.c **** 
 478:Src/usbd_conf.c ****   return usb_status;
 479:Src/usbd_conf.c **** }
 480:Src/usbd_conf.c **** 
 481:Src/usbd_conf.c **** /**
 482:Src/usbd_conf.c ****   * @brief  Sets a Stall condition on an endpoint of the Low Level Driver.
 483:Src/usbd_conf.c ****   * @param  pdev: Device handle
 484:Src/usbd_conf.c ****   * @param  ep_addr: Endpoint number
 485:Src/usbd_conf.c ****   * @retval USBD status
 486:Src/usbd_conf.c ****   */
 487:Src/usbd_conf.c **** USBD_StatusTypeDef USBD_LL_StallEP(USBD_HandleTypeDef *pdev, uint8_t ep_addr)
 488:Src/usbd_conf.c **** {
 489:Src/usbd_conf.c ****   HAL_StatusTypeDef hal_status = HAL_OK;
 490:Src/usbd_conf.c ****   USBD_StatusTypeDef usb_status = USBD_OK;
 491:Src/usbd_conf.c **** 
 492:Src/usbd_conf.c ****   hal_status = HAL_PCD_EP_SetStall(pdev->pData, ep_addr);
 493:Src/usbd_conf.c **** 
 494:Src/usbd_conf.c ****   usb_status =  USBD_Get_USB_Status(hal_status);
 495:Src/usbd_conf.c **** 
 496:Src/usbd_conf.c ****   return usb_status;
 497:Src/usbd_conf.c **** }
 498:Src/usbd_conf.c **** 
 499:Src/usbd_conf.c **** /**
 500:Src/usbd_conf.c ****   * @brief  Clears a Stall condition on an endpoint of the Low Level Driver.
 501:Src/usbd_conf.c ****   * @param  pdev: Device handle
 502:Src/usbd_conf.c ****   * @param  ep_addr: Endpoint number
 503:Src/usbd_conf.c ****   * @retval USBD status
 504:Src/usbd_conf.c ****   */
 505:Src/usbd_conf.c **** USBD_StatusTypeDef USBD_LL_ClearStallEP(USBD_HandleTypeDef *pdev, uint8_t ep_addr)
 506:Src/usbd_conf.c **** {
 507:Src/usbd_conf.c ****   HAL_StatusTypeDef hal_status = HAL_OK;
 508:Src/usbd_conf.c ****   USBD_StatusTypeDef usb_status = USBD_OK;
 509:Src/usbd_conf.c **** 
 510:Src/usbd_conf.c ****   hal_status = HAL_PCD_EP_ClrStall(pdev->pData, ep_addr);
 511:Src/usbd_conf.c **** 
 512:Src/usbd_conf.c ****   usb_status =  USBD_Get_USB_Status(hal_status);
ARM GAS  C:\Users\ADMINI~1\AppData\Local\Temp\ccFRa6xA.s 			page 24


 513:Src/usbd_conf.c **** 
 514:Src/usbd_conf.c ****   return usb_status;
 515:Src/usbd_conf.c **** }
 516:Src/usbd_conf.c **** 
 517:Src/usbd_conf.c **** /**
 518:Src/usbd_conf.c ****   * @brief  Returns Stall condition.
 519:Src/usbd_conf.c ****   * @param  pdev: Device handle
 520:Src/usbd_conf.c ****   * @param  ep_addr: Endpoint number
 521:Src/usbd_conf.c ****   * @retval Stall (1: Yes, 0: No)
 522:Src/usbd_conf.c ****   */
 523:Src/usbd_conf.c **** uint8_t USBD_LL_IsStallEP(USBD_HandleTypeDef *pdev, uint8_t ep_addr)
 524:Src/usbd_conf.c **** {
 758              		.loc 1 524 1 view -0
 759              		.cfi_startproc
 760              		@ args = 0, pretend = 0, frame = 0
 761              		@ frame_needed = 0, uses_anonymous_args = 0
 762              		@ link register save eliminated.
 525:Src/usbd_conf.c ****   PCD_HandleTypeDef *hpcd = (PCD_HandleTypeDef*) pdev->pData;
 763              		.loc 1 525 3 view .LVU167
 764              		.loc 1 525 22 is_stmt 0 view .LVU168
 765 0000 D0F8EC32 		ldr	r3, [r0, #748]
 766              	.LVL64:
 526:Src/usbd_conf.c **** 
 527:Src/usbd_conf.c ****   if((ep_addr & 0x80) == 0x80)
 767              		.loc 1 527 3 is_stmt 1 view .LVU169
 768              		.loc 1 527 5 is_stmt 0 view .LVU170
 769 0004 11F0800F 		tst	r1, #128
 770 0008 08D1     		bne	.L56
 528:Src/usbd_conf.c ****   {
 529:Src/usbd_conf.c ****     return hpcd->IN_ep[ep_addr & 0x7F].is_stall;
 530:Src/usbd_conf.c ****   }
 531:Src/usbd_conf.c ****   else
 532:Src/usbd_conf.c ****   {
 533:Src/usbd_conf.c ****     return hpcd->OUT_ep[ep_addr & 0x7F].is_stall;
 771              		.loc 1 533 5 is_stmt 1 view .LVU171
 772              		.loc 1 533 33 is_stmt 0 view .LVU172
 773 000a 01F07F01 		and	r1, r1, #127
 774              	.LVL65:
 775              		.loc 1 533 40 view .LVU173
 776 000e 01EBC101 		add	r1, r1, r1, lsl #3
 777 0012 03EB8101 		add	r1, r3, r1, lsl #2
 778 0016 91F87E02 		ldrb	r0, [r1, #638]	@ zero_extendqisi2
 779              	.LVL66:
 534:Src/usbd_conf.c ****   }
 535:Src/usbd_conf.c **** }
 780              		.loc 1 535 1 view .LVU174
 781 001a 7047     		bx	lr
 782              	.LVL67:
 783              	.L56:
 529:Src/usbd_conf.c ****   }
 784              		.loc 1 529 5 is_stmt 1 view .LVU175
 529:Src/usbd_conf.c ****   }
 785              		.loc 1 529 32 is_stmt 0 view .LVU176
 786 001c 01F07F01 		and	r1, r1, #127
 787              	.LVL68:
 529:Src/usbd_conf.c ****   }
 788              		.loc 1 529 39 view .LVU177
ARM GAS  C:\Users\ADMINI~1\AppData\Local\Temp\ccFRa6xA.s 			page 25


 789 0020 01EBC101 		add	r1, r1, r1, lsl #3
 790 0024 03EB8101 		add	r1, r3, r1, lsl #2
 791 0028 91F83E00 		ldrb	r0, [r1, #62]	@ zero_extendqisi2
 792              	.LVL69:
 529:Src/usbd_conf.c ****   }
 793              		.loc 1 529 39 view .LVU178
 794 002c 7047     		bx	lr
 795              		.cfi_endproc
 796              	.LFE156:
 798              		.section	.text.USBD_LL_GetRxDataSize,"ax",%progbits
 799              		.align	1
 800              		.global	USBD_LL_GetRxDataSize
 801              		.syntax unified
 802              		.thumb
 803              		.thumb_func
 805              	USBD_LL_GetRxDataSize:
 806              	.LVL70:
 807              	.LFB160:
 536:Src/usbd_conf.c **** 
 537:Src/usbd_conf.c **** /**
 538:Src/usbd_conf.c ****   * @brief  Assigns a USB address to the device.
 539:Src/usbd_conf.c ****   * @param  pdev: Device handle
 540:Src/usbd_conf.c ****   * @param  dev_addr: Device address
 541:Src/usbd_conf.c ****   * @retval USBD status
 542:Src/usbd_conf.c ****   */
 543:Src/usbd_conf.c **** USBD_StatusTypeDef USBD_LL_SetUSBAddress(USBD_HandleTypeDef *pdev, uint8_t dev_addr)
 544:Src/usbd_conf.c **** {
 545:Src/usbd_conf.c ****   HAL_StatusTypeDef hal_status = HAL_OK;
 546:Src/usbd_conf.c ****   USBD_StatusTypeDef usb_status = USBD_OK;
 547:Src/usbd_conf.c **** 
 548:Src/usbd_conf.c ****   hal_status = HAL_PCD_SetAddress(pdev->pData, dev_addr);
 549:Src/usbd_conf.c **** 
 550:Src/usbd_conf.c ****   usb_status =  USBD_Get_USB_Status(hal_status);
 551:Src/usbd_conf.c **** 
 552:Src/usbd_conf.c ****   return usb_status;
 553:Src/usbd_conf.c **** }
 554:Src/usbd_conf.c **** 
 555:Src/usbd_conf.c **** /**
 556:Src/usbd_conf.c ****   * @brief  Transmits data over an endpoint.
 557:Src/usbd_conf.c ****   * @param  pdev: Device handle
 558:Src/usbd_conf.c ****   * @param  ep_addr: Endpoint number
 559:Src/usbd_conf.c ****   * @param  pbuf: Pointer to data to be sent
 560:Src/usbd_conf.c ****   * @param  size: Data size
 561:Src/usbd_conf.c ****   * @retval USBD status
 562:Src/usbd_conf.c ****   */
 563:Src/usbd_conf.c **** USBD_StatusTypeDef USBD_LL_Transmit(USBD_HandleTypeDef *pdev, uint8_t ep_addr, uint8_t *pbuf, uint3
 564:Src/usbd_conf.c **** {
 565:Src/usbd_conf.c ****   HAL_StatusTypeDef hal_status = HAL_OK;
 566:Src/usbd_conf.c ****   USBD_StatusTypeDef usb_status = USBD_OK;
 567:Src/usbd_conf.c **** 
 568:Src/usbd_conf.c ****   hal_status = HAL_PCD_EP_Transmit(pdev->pData, ep_addr, pbuf, size);
 569:Src/usbd_conf.c **** 
 570:Src/usbd_conf.c ****   usb_status =  USBD_Get_USB_Status(hal_status);
 571:Src/usbd_conf.c **** 
 572:Src/usbd_conf.c ****   return usb_status;
 573:Src/usbd_conf.c **** }
 574:Src/usbd_conf.c **** 
ARM GAS  C:\Users\ADMINI~1\AppData\Local\Temp\ccFRa6xA.s 			page 26


 575:Src/usbd_conf.c **** /**
 576:Src/usbd_conf.c ****   * @brief  Prepares an endpoint for reception.
 577:Src/usbd_conf.c ****   * @param  pdev: Device handle
 578:Src/usbd_conf.c ****   * @param  ep_addr: Endpoint number
 579:Src/usbd_conf.c ****   * @param  pbuf: Pointer to data to be received
 580:Src/usbd_conf.c ****   * @param  size: Data size
 581:Src/usbd_conf.c ****   * @retval USBD status
 582:Src/usbd_conf.c ****   */
 583:Src/usbd_conf.c **** USBD_StatusTypeDef USBD_LL_PrepareReceive(USBD_HandleTypeDef *pdev, uint8_t ep_addr, uint8_t *pbuf,
 584:Src/usbd_conf.c **** {
 585:Src/usbd_conf.c ****   HAL_StatusTypeDef hal_status = HAL_OK;
 586:Src/usbd_conf.c ****   USBD_StatusTypeDef usb_status = USBD_OK;
 587:Src/usbd_conf.c **** 
 588:Src/usbd_conf.c ****   hal_status = HAL_PCD_EP_Receive(pdev->pData, ep_addr, pbuf, size);
 589:Src/usbd_conf.c **** 
 590:Src/usbd_conf.c ****   usb_status =  USBD_Get_USB_Status(hal_status);
 591:Src/usbd_conf.c **** 
 592:Src/usbd_conf.c ****   return usb_status;
 593:Src/usbd_conf.c **** }
 594:Src/usbd_conf.c **** 
 595:Src/usbd_conf.c **** /**
 596:Src/usbd_conf.c ****   * @brief  Returns the last transferred packet size.
 597:Src/usbd_conf.c ****   * @param  pdev: Device handle
 598:Src/usbd_conf.c ****   * @param  ep_addr: Endpoint number
 599:Src/usbd_conf.c ****   * @retval Received Data Size
 600:Src/usbd_conf.c ****   */
 601:Src/usbd_conf.c **** uint32_t USBD_LL_GetRxDataSize(USBD_HandleTypeDef *pdev, uint8_t ep_addr)
 602:Src/usbd_conf.c **** {
 808              		.loc 1 602 1 is_stmt 1 view -0
 809              		.cfi_startproc
 810              		@ args = 0, pretend = 0, frame = 0
 811              		@ frame_needed = 0, uses_anonymous_args = 0
 812              		.loc 1 602 1 is_stmt 0 view .LVU180
 813 0000 08B5     		push	{r3, lr}
 814              	.LCFI17:
 815              		.cfi_def_cfa_offset 8
 816              		.cfi_offset 3, -8
 817              		.cfi_offset 14, -4
 603:Src/usbd_conf.c ****   return HAL_PCD_EP_GetRxCount((PCD_HandleTypeDef*) pdev->pData, ep_addr);
 818              		.loc 1 603 3 is_stmt 1 view .LVU181
 819              		.loc 1 603 10 is_stmt 0 view .LVU182
 820 0002 D0F8EC02 		ldr	r0, [r0, #748]
 821              	.LVL71:
 822              		.loc 1 603 10 view .LVU183
 823 0006 FFF7FEFF 		bl	HAL_PCD_EP_GetRxCount
 824              	.LVL72:
 604:Src/usbd_conf.c **** }
 825              		.loc 1 604 1 view .LVU184
 826 000a 08BD     		pop	{r3, pc}
 827              		.cfi_endproc
 828              	.LFE160:
 830              		.section	.text.USBD_static_malloc,"ax",%progbits
 831              		.align	1
 832              		.global	USBD_static_malloc
 833              		.syntax unified
 834              		.thumb
 835              		.thumb_func
ARM GAS  C:\Users\ADMINI~1\AppData\Local\Temp\ccFRa6xA.s 			page 27


 837              	USBD_static_malloc:
 838              	.LVL73:
 839              	.LFB161:
 605:Src/usbd_conf.c **** 
 606:Src/usbd_conf.c **** #ifdef USBD_HS_TESTMODE_ENABLE
 607:Src/usbd_conf.c **** /**
 608:Src/usbd_conf.c ****   * @brief  Set High speed Test mode.
 609:Src/usbd_conf.c ****   * @param  pdev: Device handle
 610:Src/usbd_conf.c ****   * @param  testmode: test mode
 611:Src/usbd_conf.c ****   * @retval USBD Status
 612:Src/usbd_conf.c ****   */
 613:Src/usbd_conf.c **** USBD_StatusTypeDef USBD_LL_SetTestMode(USBD_HandleTypeDef *pdev, uint8_t testmode)
 614:Src/usbd_conf.c **** {
 615:Src/usbd_conf.c ****   UNUSED(pdev);
 616:Src/usbd_conf.c ****   UNUSED(testmode);
 617:Src/usbd_conf.c **** 
 618:Src/usbd_conf.c ****   return USBD_OK;
 619:Src/usbd_conf.c **** }
 620:Src/usbd_conf.c **** #endif /* USBD_HS_TESTMODE_ENABLE */
 621:Src/usbd_conf.c **** 
 622:Src/usbd_conf.c **** /**
 623:Src/usbd_conf.c ****   * @brief  Static single allocation.
 624:Src/usbd_conf.c ****   * @param  size: Size of allocated memory
 625:Src/usbd_conf.c ****   * @retval None
 626:Src/usbd_conf.c ****   */
 627:Src/usbd_conf.c **** void *USBD_static_malloc(uint32_t size)
 628:Src/usbd_conf.c **** {
 840              		.loc 1 628 1 is_stmt 1 view -0
 841              		.cfi_startproc
 842              		@ args = 0, pretend = 0, frame = 0
 843              		@ frame_needed = 0, uses_anonymous_args = 0
 844              		@ link register save eliminated.
 629:Src/usbd_conf.c ****   static uint32_t mem[(sizeof(USBD_CDC_HandleTypeDef)/4)+1];/* On 32-bit boundary */
 845              		.loc 1 629 3 view .LVU186
 630:Src/usbd_conf.c ****   return mem;
 846              		.loc 1 630 3 view .LVU187
 631:Src/usbd_conf.c **** }
 847              		.loc 1 631 1 is_stmt 0 view .LVU188
 848 0000 0048     		ldr	r0, .L60
 849              	.LVL74:
 850              		.loc 1 631 1 view .LVU189
 851 0002 7047     		bx	lr
 852              	.L61:
 853              		.align	2
 854              	.L60:
 855 0004 00000000 		.word	.LANCHOR1
 856              		.cfi_endproc
 857              	.LFE161:
 859              		.section	.text.USBD_static_free,"ax",%progbits
 860              		.align	1
 861              		.global	USBD_static_free
 862              		.syntax unified
 863              		.thumb
 864              		.thumb_func
 866              	USBD_static_free:
 867              	.LVL75:
 868              	.LFB162:
ARM GAS  C:\Users\ADMINI~1\AppData\Local\Temp\ccFRa6xA.s 			page 28


 632:Src/usbd_conf.c **** 
 633:Src/usbd_conf.c **** /**
 634:Src/usbd_conf.c ****   * @brief  Dummy memory free
 635:Src/usbd_conf.c ****   * @param  p: Pointer to allocated  memory address
 636:Src/usbd_conf.c ****   * @retval None
 637:Src/usbd_conf.c ****   */
 638:Src/usbd_conf.c **** void USBD_static_free(void *p)
 639:Src/usbd_conf.c **** {
 869              		.loc 1 639 1 is_stmt 1 view -0
 870              		.cfi_startproc
 871              		@ args = 0, pretend = 0, frame = 0
 872              		@ frame_needed = 0, uses_anonymous_args = 0
 873              		@ link register save eliminated.
 640:Src/usbd_conf.c **** 
 641:Src/usbd_conf.c **** }
 874              		.loc 1 641 1 view .LVU191
 875 0000 7047     		bx	lr
 876              		.cfi_endproc
 877              	.LFE162:
 879              		.section	.text.USBD_LL_Delay,"ax",%progbits
 880              		.align	1
 881              		.global	USBD_LL_Delay
 882              		.syntax unified
 883              		.thumb
 884              		.thumb_func
 886              	USBD_LL_Delay:
 887              	.LVL76:
 888              	.LFB163:
 642:Src/usbd_conf.c **** 
 643:Src/usbd_conf.c **** /**
 644:Src/usbd_conf.c ****   * @brief  Delays routine for the USB Device Library.
 645:Src/usbd_conf.c ****   * @param  Delay: Delay in ms
 646:Src/usbd_conf.c ****   * @retval None
 647:Src/usbd_conf.c ****   */
 648:Src/usbd_conf.c **** void USBD_LL_Delay(uint32_t Delay)
 649:Src/usbd_conf.c **** {
 889              		.loc 1 649 1 view -0
 890              		.cfi_startproc
 891              		@ args = 0, pretend = 0, frame = 0
 892              		@ frame_needed = 0, uses_anonymous_args = 0
 893              		.loc 1 649 1 is_stmt 0 view .LVU193
 894 0000 08B5     		push	{r3, lr}
 895              	.LCFI18:
 896              		.cfi_def_cfa_offset 8
 897              		.cfi_offset 3, -8
 898              		.cfi_offset 14, -4
 650:Src/usbd_conf.c ****   HAL_Delay(Delay);
 899              		.loc 1 650 3 is_stmt 1 view .LVU194
 900 0002 FFF7FEFF 		bl	HAL_Delay
 901              	.LVL77:
 651:Src/usbd_conf.c **** }
 902              		.loc 1 651 1 is_stmt 0 view .LVU195
 903 0006 08BD     		pop	{r3, pc}
 904              		.cfi_endproc
 905              	.LFE163:
 907              		.section	.text.USBD_Get_USB_Status,"ax",%progbits
 908              		.align	1
ARM GAS  C:\Users\ADMINI~1\AppData\Local\Temp\ccFRa6xA.s 			page 29


 909              		.global	USBD_Get_USB_Status
 910              		.syntax unified
 911              		.thumb
 912              		.thumb_func
 914              	USBD_Get_USB_Status:
 915              	.LVL78:
 916              	.LFB164:
 652:Src/usbd_conf.c **** 
 653:Src/usbd_conf.c **** /**
 654:Src/usbd_conf.c ****   * @brief  Returns the USB status depending on the HAL status:
 655:Src/usbd_conf.c ****   * @param  hal_status: HAL status
 656:Src/usbd_conf.c ****   * @retval USB status
 657:Src/usbd_conf.c ****   */
 658:Src/usbd_conf.c **** USBD_StatusTypeDef USBD_Get_USB_Status(HAL_StatusTypeDef hal_status)
 659:Src/usbd_conf.c **** {
 917              		.loc 1 659 1 is_stmt 1 view -0
 918              		.cfi_startproc
 919              		@ args = 0, pretend = 0, frame = 0
 920              		@ frame_needed = 0, uses_anonymous_args = 0
 921              		@ link register save eliminated.
 660:Src/usbd_conf.c ****   USBD_StatusTypeDef usb_status = USBD_OK;
 922              		.loc 1 660 3 view .LVU197
 661:Src/usbd_conf.c **** 
 662:Src/usbd_conf.c ****   switch (hal_status)
 923              		.loc 1 662 3 view .LVU198
 924 0000 0328     		cmp	r0, #3
 925 0002 05D8     		bhi	.L71
 926 0004 DFE800F0 		tbb	[pc, r0]
 927              	.L68:
 928 0008 05       		.byte	(.L66-.L68)/2
 929 0009 04       		.byte	(.L71-.L68)/2
 930 000a 02       		.byte	(.L69-.L68)/2
 931 000b 05       		.byte	(.L66-.L68)/2
 932              		.p2align 1
 933              	.L69:
 663:Src/usbd_conf.c ****   {
 664:Src/usbd_conf.c ****     case HAL_OK :
 665:Src/usbd_conf.c ****       usb_status = USBD_OK;
 666:Src/usbd_conf.c ****     break;
 667:Src/usbd_conf.c ****     case HAL_ERROR :
 668:Src/usbd_conf.c ****       usb_status = USBD_FAIL;
 669:Src/usbd_conf.c ****     break;
 670:Src/usbd_conf.c ****     case HAL_BUSY :
 671:Src/usbd_conf.c ****       usb_status = USBD_BUSY;
 934              		.loc 1 671 7 view .LVU199
 935              	.LVL79:
 672:Src/usbd_conf.c ****     break;
 936              		.loc 1 672 5 view .LVU200
 671:Src/usbd_conf.c ****     break;
 937              		.loc 1 671 18 is_stmt 0 view .LVU201
 938 000c 0120     		movs	r0, #1
 939              	.LVL80:
 940              		.loc 1 672 5 view .LVU202
 941 000e 7047     		bx	lr
 942              	.LVL81:
 943              	.L71:
 668:Src/usbd_conf.c ****     break;
ARM GAS  C:\Users\ADMINI~1\AppData\Local\Temp\ccFRa6xA.s 			page 30


 944              		.loc 1 668 18 view .LVU203
 945 0010 0320     		movs	r0, #3
 946              	.LVL82:
 947              	.L66:
 673:Src/usbd_conf.c ****     case HAL_TIMEOUT :
 674:Src/usbd_conf.c ****       usb_status = USBD_FAIL;
 675:Src/usbd_conf.c ****     break;
 676:Src/usbd_conf.c ****     default :
 677:Src/usbd_conf.c ****       usb_status = USBD_FAIL;
 678:Src/usbd_conf.c ****     break;
 679:Src/usbd_conf.c ****   }
 680:Src/usbd_conf.c ****   return usb_status;
 948              		.loc 1 680 3 is_stmt 1 view .LVU204
 681:Src/usbd_conf.c **** }
 949              		.loc 1 681 1 is_stmt 0 view .LVU205
 950 0012 7047     		bx	lr
 951              		.cfi_endproc
 952              	.LFE164:
 954              		.section	.text.USBD_LL_DeInit,"ax",%progbits
 955              		.align	1
 956              		.global	USBD_LL_DeInit
 957              		.syntax unified
 958              		.thumb
 959              		.thumb_func
 961              	USBD_LL_DeInit:
 962              	.LVL83:
 963              	.LFB148:
 380:Src/usbd_conf.c ****   HAL_StatusTypeDef hal_status = HAL_OK;
 964              		.loc 1 380 1 is_stmt 1 view -0
 965              		.cfi_startproc
 966              		@ args = 0, pretend = 0, frame = 0
 967              		@ frame_needed = 0, uses_anonymous_args = 0
 380:Src/usbd_conf.c ****   HAL_StatusTypeDef hal_status = HAL_OK;
 968              		.loc 1 380 1 is_stmt 0 view .LVU207
 969 0000 08B5     		push	{r3, lr}
 970              	.LCFI19:
 971              		.cfi_def_cfa_offset 8
 972              		.cfi_offset 3, -8
 973              		.cfi_offset 14, -4
 381:Src/usbd_conf.c ****   USBD_StatusTypeDef usb_status = USBD_OK;
 974              		.loc 1 381 3 is_stmt 1 view .LVU208
 975              	.LVL84:
 382:Src/usbd_conf.c **** 
 976              		.loc 1 382 3 view .LVU209
 384:Src/usbd_conf.c **** 
 977              		.loc 1 384 3 view .LVU210
 384:Src/usbd_conf.c **** 
 978              		.loc 1 384 16 is_stmt 0 view .LVU211
 979 0002 D0F8EC02 		ldr	r0, [r0, #748]
 980              	.LVL85:
 384:Src/usbd_conf.c **** 
 981              		.loc 1 384 16 view .LVU212
 982 0006 FFF7FEFF 		bl	HAL_PCD_DeInit
 983              	.LVL86:
 386:Src/usbd_conf.c **** 
 984              		.loc 1 386 3 is_stmt 1 view .LVU213
 386:Src/usbd_conf.c **** 
ARM GAS  C:\Users\ADMINI~1\AppData\Local\Temp\ccFRa6xA.s 			page 31


 985              		.loc 1 386 17 is_stmt 0 view .LVU214
 986 000a FFF7FEFF 		bl	USBD_Get_USB_Status
 987              	.LVL87:
 388:Src/usbd_conf.c **** }
 988              		.loc 1 388 3 is_stmt 1 view .LVU215
 389:Src/usbd_conf.c **** 
 989              		.loc 1 389 1 is_stmt 0 view .LVU216
 990 000e 08BD     		pop	{r3, pc}
 991              		.cfi_endproc
 992              	.LFE148:
 994              		.section	.text.USBD_LL_Start,"ax",%progbits
 995              		.align	1
 996              		.global	USBD_LL_Start
 997              		.syntax unified
 998              		.thumb
 999              		.thumb_func
 1001              	USBD_LL_Start:
 1002              	.LVL88:
 1003              	.LFB149:
 397:Src/usbd_conf.c ****   HAL_StatusTypeDef hal_status = HAL_OK;
 1004              		.loc 1 397 1 is_stmt 1 view -0
 1005              		.cfi_startproc
 1006              		@ args = 0, pretend = 0, frame = 0
 1007              		@ frame_needed = 0, uses_anonymous_args = 0
 397:Src/usbd_conf.c ****   HAL_StatusTypeDef hal_status = HAL_OK;
 1008              		.loc 1 397 1 is_stmt 0 view .LVU218
 1009 0000 08B5     		push	{r3, lr}
 1010              	.LCFI20:
 1011              		.cfi_def_cfa_offset 8
 1012              		.cfi_offset 3, -8
 1013              		.cfi_offset 14, -4
 398:Src/usbd_conf.c ****   USBD_StatusTypeDef usb_status = USBD_OK;
 1014              		.loc 1 398 3 is_stmt 1 view .LVU219
 1015              	.LVL89:
 399:Src/usbd_conf.c **** 
 1016              		.loc 1 399 3 view .LVU220
 401:Src/usbd_conf.c **** 
 1017              		.loc 1 401 3 view .LVU221
 401:Src/usbd_conf.c **** 
 1018              		.loc 1 401 16 is_stmt 0 view .LVU222
 1019 0002 D0F8EC02 		ldr	r0, [r0, #748]
 1020              	.LVL90:
 401:Src/usbd_conf.c **** 
 1021              		.loc 1 401 16 view .LVU223
 1022 0006 FFF7FEFF 		bl	HAL_PCD_Start
 1023              	.LVL91:
 403:Src/usbd_conf.c **** 
 1024              		.loc 1 403 3 is_stmt 1 view .LVU224
 403:Src/usbd_conf.c **** 
 1025              		.loc 1 403 17 is_stmt 0 view .LVU225
 1026 000a FFF7FEFF 		bl	USBD_Get_USB_Status
 1027              	.LVL92:
 405:Src/usbd_conf.c **** }
 1028              		.loc 1 405 3 is_stmt 1 view .LVU226
 406:Src/usbd_conf.c **** 
 1029              		.loc 1 406 1 is_stmt 0 view .LVU227
 1030 000e 08BD     		pop	{r3, pc}
ARM GAS  C:\Users\ADMINI~1\AppData\Local\Temp\ccFRa6xA.s 			page 32


 1031              		.cfi_endproc
 1032              	.LFE149:
 1034              		.section	.text.USBD_LL_Stop,"ax",%progbits
 1035              		.align	1
 1036              		.global	USBD_LL_Stop
 1037              		.syntax unified
 1038              		.thumb
 1039              		.thumb_func
 1041              	USBD_LL_Stop:
 1042              	.LVL93:
 1043              	.LFB150:
 414:Src/usbd_conf.c ****   HAL_StatusTypeDef hal_status = HAL_OK;
 1044              		.loc 1 414 1 is_stmt 1 view -0
 1045              		.cfi_startproc
 1046              		@ args = 0, pretend = 0, frame = 0
 1047              		@ frame_needed = 0, uses_anonymous_args = 0
 414:Src/usbd_conf.c ****   HAL_StatusTypeDef hal_status = HAL_OK;
 1048              		.loc 1 414 1 is_stmt 0 view .LVU229
 1049 0000 08B5     		push	{r3, lr}
 1050              	.LCFI21:
 1051              		.cfi_def_cfa_offset 8
 1052              		.cfi_offset 3, -8
 1053              		.cfi_offset 14, -4
 415:Src/usbd_conf.c ****   USBD_StatusTypeDef usb_status = USBD_OK;
 1054              		.loc 1 415 3 is_stmt 1 view .LVU230
 1055              	.LVL94:
 416:Src/usbd_conf.c **** 
 1056              		.loc 1 416 3 view .LVU231
 418:Src/usbd_conf.c **** 
 1057              		.loc 1 418 3 view .LVU232
 418:Src/usbd_conf.c **** 
 1058              		.loc 1 418 16 is_stmt 0 view .LVU233
 1059 0002 D0F8EC02 		ldr	r0, [r0, #748]
 1060              	.LVL95:
 418:Src/usbd_conf.c **** 
 1061              		.loc 1 418 16 view .LVU234
 1062 0006 FFF7FEFF 		bl	HAL_PCD_Stop
 1063              	.LVL96:
 420:Src/usbd_conf.c **** 
 1064              		.loc 1 420 3 is_stmt 1 view .LVU235
 420:Src/usbd_conf.c **** 
 1065              		.loc 1 420 17 is_stmt 0 view .LVU236
 1066 000a FFF7FEFF 		bl	USBD_Get_USB_Status
 1067              	.LVL97:
 422:Src/usbd_conf.c **** }
 1068              		.loc 1 422 3 is_stmt 1 view .LVU237
 423:Src/usbd_conf.c **** 
 1069              		.loc 1 423 1 is_stmt 0 view .LVU238
 1070 000e 08BD     		pop	{r3, pc}
 1071              		.cfi_endproc
 1072              	.LFE150:
 1074              		.section	.text.USBD_LL_OpenEP,"ax",%progbits
 1075              		.align	1
 1076              		.global	USBD_LL_OpenEP
 1077              		.syntax unified
 1078              		.thumb
 1079              		.thumb_func
ARM GAS  C:\Users\ADMINI~1\AppData\Local\Temp\ccFRa6xA.s 			page 33


 1081              	USBD_LL_OpenEP:
 1082              	.LVL98:
 1083              	.LFB151:
 434:Src/usbd_conf.c ****   HAL_StatusTypeDef hal_status = HAL_OK;
 1084              		.loc 1 434 1 is_stmt 1 view -0
 1085              		.cfi_startproc
 1086              		@ args = 0, pretend = 0, frame = 0
 1087              		@ frame_needed = 0, uses_anonymous_args = 0
 434:Src/usbd_conf.c ****   HAL_StatusTypeDef hal_status = HAL_OK;
 1088              		.loc 1 434 1 is_stmt 0 view .LVU240
 1089 0000 08B5     		push	{r3, lr}
 1090              	.LCFI22:
 1091              		.cfi_def_cfa_offset 8
 1092              		.cfi_offset 3, -8
 1093              		.cfi_offset 14, -4
 1094 0002 9446     		mov	ip, r2
 1095 0004 1A46     		mov	r2, r3
 1096              	.LVL99:
 435:Src/usbd_conf.c ****   USBD_StatusTypeDef usb_status = USBD_OK;
 1097              		.loc 1 435 3 is_stmt 1 view .LVU241
 436:Src/usbd_conf.c **** 
 1098              		.loc 1 436 3 view .LVU242
 438:Src/usbd_conf.c **** 
 1099              		.loc 1 438 3 view .LVU243
 438:Src/usbd_conf.c **** 
 1100              		.loc 1 438 16 is_stmt 0 view .LVU244
 1101 0006 6346     		mov	r3, ip
 1102              	.LVL100:
 438:Src/usbd_conf.c **** 
 1103              		.loc 1 438 16 view .LVU245
 1104 0008 D0F8EC02 		ldr	r0, [r0, #748]
 1105              	.LVL101:
 438:Src/usbd_conf.c **** 
 1106              		.loc 1 438 16 view .LVU246
 1107 000c FFF7FEFF 		bl	HAL_PCD_EP_Open
 1108              	.LVL102:
 440:Src/usbd_conf.c **** 
 1109              		.loc 1 440 3 is_stmt 1 view .LVU247
 440:Src/usbd_conf.c **** 
 1110              		.loc 1 440 17 is_stmt 0 view .LVU248
 1111 0010 FFF7FEFF 		bl	USBD_Get_USB_Status
 1112              	.LVL103:
 442:Src/usbd_conf.c **** }
 1113              		.loc 1 442 3 is_stmt 1 view .LVU249
 443:Src/usbd_conf.c **** 
 1114              		.loc 1 443 1 is_stmt 0 view .LVU250
 1115 0014 08BD     		pop	{r3, pc}
 1116              		.cfi_endproc
 1117              	.LFE151:
 1119              		.section	.text.USBD_LL_CloseEP,"ax",%progbits
 1120              		.align	1
 1121              		.global	USBD_LL_CloseEP
 1122              		.syntax unified
 1123              		.thumb
 1124              		.thumb_func
 1126              	USBD_LL_CloseEP:
 1127              	.LVL104:
ARM GAS  C:\Users\ADMINI~1\AppData\Local\Temp\ccFRa6xA.s 			page 34


 1128              	.LFB152:
 452:Src/usbd_conf.c ****   HAL_StatusTypeDef hal_status = HAL_OK;
 1129              		.loc 1 452 1 is_stmt 1 view -0
 1130              		.cfi_startproc
 1131              		@ args = 0, pretend = 0, frame = 0
 1132              		@ frame_needed = 0, uses_anonymous_args = 0
 452:Src/usbd_conf.c ****   HAL_StatusTypeDef hal_status = HAL_OK;
 1133              		.loc 1 452 1 is_stmt 0 view .LVU252
 1134 0000 08B5     		push	{r3, lr}
 1135              	.LCFI23:
 1136              		.cfi_def_cfa_offset 8
 1137              		.cfi_offset 3, -8
 1138              		.cfi_offset 14, -4
 453:Src/usbd_conf.c ****   USBD_StatusTypeDef usb_status = USBD_OK;
 1139              		.loc 1 453 3 is_stmt 1 view .LVU253
 1140              	.LVL105:
 454:Src/usbd_conf.c **** 
 1141              		.loc 1 454 3 view .LVU254
 456:Src/usbd_conf.c **** 
 1142              		.loc 1 456 3 view .LVU255
 456:Src/usbd_conf.c **** 
 1143              		.loc 1 456 16 is_stmt 0 view .LVU256
 1144 0002 D0F8EC02 		ldr	r0, [r0, #748]
 1145              	.LVL106:
 456:Src/usbd_conf.c **** 
 1146              		.loc 1 456 16 view .LVU257
 1147 0006 FFF7FEFF 		bl	HAL_PCD_EP_Close
 1148              	.LVL107:
 458:Src/usbd_conf.c **** 
 1149              		.loc 1 458 3 is_stmt 1 view .LVU258
 458:Src/usbd_conf.c **** 
 1150              		.loc 1 458 17 is_stmt 0 view .LVU259
 1151 000a FFF7FEFF 		bl	USBD_Get_USB_Status
 1152              	.LVL108:
 460:Src/usbd_conf.c **** }
 1153              		.loc 1 460 3 is_stmt 1 view .LVU260
 461:Src/usbd_conf.c **** 
 1154              		.loc 1 461 1 is_stmt 0 view .LVU261
 1155 000e 08BD     		pop	{r3, pc}
 1156              		.cfi_endproc
 1157              	.LFE152:
 1159              		.section	.text.USBD_LL_FlushEP,"ax",%progbits
 1160              		.align	1
 1161              		.global	USBD_LL_FlushEP
 1162              		.syntax unified
 1163              		.thumb
 1164              		.thumb_func
 1166              	USBD_LL_FlushEP:
 1167              	.LVL109:
 1168              	.LFB153:
 470:Src/usbd_conf.c ****   HAL_StatusTypeDef hal_status = HAL_OK;
 1169              		.loc 1 470 1 is_stmt 1 view -0
 1170              		.cfi_startproc
 1171              		@ args = 0, pretend = 0, frame = 0
 1172              		@ frame_needed = 0, uses_anonymous_args = 0
 470:Src/usbd_conf.c ****   HAL_StatusTypeDef hal_status = HAL_OK;
 1173              		.loc 1 470 1 is_stmt 0 view .LVU263
ARM GAS  C:\Users\ADMINI~1\AppData\Local\Temp\ccFRa6xA.s 			page 35


 1174 0000 08B5     		push	{r3, lr}
 1175              	.LCFI24:
 1176              		.cfi_def_cfa_offset 8
 1177              		.cfi_offset 3, -8
 1178              		.cfi_offset 14, -4
 471:Src/usbd_conf.c ****   USBD_StatusTypeDef usb_status = USBD_OK;
 1179              		.loc 1 471 3 is_stmt 1 view .LVU264
 1180              	.LVL110:
 472:Src/usbd_conf.c **** 
 1181              		.loc 1 472 3 view .LVU265
 474:Src/usbd_conf.c **** 
 1182              		.loc 1 474 3 view .LVU266
 474:Src/usbd_conf.c **** 
 1183              		.loc 1 474 16 is_stmt 0 view .LVU267
 1184 0002 D0F8EC02 		ldr	r0, [r0, #748]
 1185              	.LVL111:
 474:Src/usbd_conf.c **** 
 1186              		.loc 1 474 16 view .LVU268
 1187 0006 FFF7FEFF 		bl	HAL_PCD_EP_Flush
 1188              	.LVL112:
 476:Src/usbd_conf.c **** 
 1189              		.loc 1 476 3 is_stmt 1 view .LVU269
 476:Src/usbd_conf.c **** 
 1190              		.loc 1 476 17 is_stmt 0 view .LVU270
 1191 000a FFF7FEFF 		bl	USBD_Get_USB_Status
 1192              	.LVL113:
 478:Src/usbd_conf.c **** }
 1193              		.loc 1 478 3 is_stmt 1 view .LVU271
 479:Src/usbd_conf.c **** 
 1194              		.loc 1 479 1 is_stmt 0 view .LVU272
 1195 000e 08BD     		pop	{r3, pc}
 1196              		.cfi_endproc
 1197              	.LFE153:
 1199              		.section	.text.USBD_LL_StallEP,"ax",%progbits
 1200              		.align	1
 1201              		.global	USBD_LL_StallEP
 1202              		.syntax unified
 1203              		.thumb
 1204              		.thumb_func
 1206              	USBD_LL_StallEP:
 1207              	.LVL114:
 1208              	.LFB154:
 488:Src/usbd_conf.c ****   HAL_StatusTypeDef hal_status = HAL_OK;
 1209              		.loc 1 488 1 is_stmt 1 view -0
 1210              		.cfi_startproc
 1211              		@ args = 0, pretend = 0, frame = 0
 1212              		@ frame_needed = 0, uses_anonymous_args = 0
 488:Src/usbd_conf.c ****   HAL_StatusTypeDef hal_status = HAL_OK;
 1213              		.loc 1 488 1 is_stmt 0 view .LVU274
 1214 0000 08B5     		push	{r3, lr}
 1215              	.LCFI25:
 1216              		.cfi_def_cfa_offset 8
 1217              		.cfi_offset 3, -8
 1218              		.cfi_offset 14, -4
 489:Src/usbd_conf.c ****   USBD_StatusTypeDef usb_status = USBD_OK;
 1219              		.loc 1 489 3 is_stmt 1 view .LVU275
 1220              	.LVL115:
ARM GAS  C:\Users\ADMINI~1\AppData\Local\Temp\ccFRa6xA.s 			page 36


 490:Src/usbd_conf.c **** 
 1221              		.loc 1 490 3 view .LVU276
 492:Src/usbd_conf.c **** 
 1222              		.loc 1 492 3 view .LVU277
 492:Src/usbd_conf.c **** 
 1223              		.loc 1 492 16 is_stmt 0 view .LVU278
 1224 0002 D0F8EC02 		ldr	r0, [r0, #748]
 1225              	.LVL116:
 492:Src/usbd_conf.c **** 
 1226              		.loc 1 492 16 view .LVU279
 1227 0006 FFF7FEFF 		bl	HAL_PCD_EP_SetStall
 1228              	.LVL117:
 494:Src/usbd_conf.c **** 
 1229              		.loc 1 494 3 is_stmt 1 view .LVU280
 494:Src/usbd_conf.c **** 
 1230              		.loc 1 494 17 is_stmt 0 view .LVU281
 1231 000a FFF7FEFF 		bl	USBD_Get_USB_Status
 1232              	.LVL118:
 496:Src/usbd_conf.c **** }
 1233              		.loc 1 496 3 is_stmt 1 view .LVU282
 497:Src/usbd_conf.c **** 
 1234              		.loc 1 497 1 is_stmt 0 view .LVU283
 1235 000e 08BD     		pop	{r3, pc}
 1236              		.cfi_endproc
 1237              	.LFE154:
 1239              		.section	.text.USBD_LL_ClearStallEP,"ax",%progbits
 1240              		.align	1
 1241              		.global	USBD_LL_ClearStallEP
 1242              		.syntax unified
 1243              		.thumb
 1244              		.thumb_func
 1246              	USBD_LL_ClearStallEP:
 1247              	.LVL119:
 1248              	.LFB155:
 506:Src/usbd_conf.c ****   HAL_StatusTypeDef hal_status = HAL_OK;
 1249              		.loc 1 506 1 is_stmt 1 view -0
 1250              		.cfi_startproc
 1251              		@ args = 0, pretend = 0, frame = 0
 1252              		@ frame_needed = 0, uses_anonymous_args = 0
 506:Src/usbd_conf.c ****   HAL_StatusTypeDef hal_status = HAL_OK;
 1253              		.loc 1 506 1 is_stmt 0 view .LVU285
 1254 0000 08B5     		push	{r3, lr}
 1255              	.LCFI26:
 1256              		.cfi_def_cfa_offset 8
 1257              		.cfi_offset 3, -8
 1258              		.cfi_offset 14, -4
 507:Src/usbd_conf.c ****   USBD_StatusTypeDef usb_status = USBD_OK;
 1259              		.loc 1 507 3 is_stmt 1 view .LVU286
 1260              	.LVL120:
 508:Src/usbd_conf.c **** 
 1261              		.loc 1 508 3 view .LVU287
 510:Src/usbd_conf.c **** 
 1262              		.loc 1 510 3 view .LVU288
 510:Src/usbd_conf.c **** 
 1263              		.loc 1 510 16 is_stmt 0 view .LVU289
 1264 0002 D0F8EC02 		ldr	r0, [r0, #748]
 1265              	.LVL121:
ARM GAS  C:\Users\ADMINI~1\AppData\Local\Temp\ccFRa6xA.s 			page 37


 510:Src/usbd_conf.c **** 
 1266              		.loc 1 510 16 view .LVU290
 1267 0006 FFF7FEFF 		bl	HAL_PCD_EP_ClrStall
 1268              	.LVL122:
 512:Src/usbd_conf.c **** 
 1269              		.loc 1 512 3 is_stmt 1 view .LVU291
 512:Src/usbd_conf.c **** 
 1270              		.loc 1 512 17 is_stmt 0 view .LVU292
 1271 000a FFF7FEFF 		bl	USBD_Get_USB_Status
 1272              	.LVL123:
 514:Src/usbd_conf.c **** }
 1273              		.loc 1 514 3 is_stmt 1 view .LVU293
 515:Src/usbd_conf.c **** 
 1274              		.loc 1 515 1 is_stmt 0 view .LVU294
 1275 000e 08BD     		pop	{r3, pc}
 1276              		.cfi_endproc
 1277              	.LFE155:
 1279              		.section	.text.USBD_LL_SetUSBAddress,"ax",%progbits
 1280              		.align	1
 1281              		.global	USBD_LL_SetUSBAddress
 1282              		.syntax unified
 1283              		.thumb
 1284              		.thumb_func
 1286              	USBD_LL_SetUSBAddress:
 1287              	.LVL124:
 1288              	.LFB157:
 544:Src/usbd_conf.c ****   HAL_StatusTypeDef hal_status = HAL_OK;
 1289              		.loc 1 544 1 is_stmt 1 view -0
 1290              		.cfi_startproc
 1291              		@ args = 0, pretend = 0, frame = 0
 1292              		@ frame_needed = 0, uses_anonymous_args = 0
 544:Src/usbd_conf.c ****   HAL_StatusTypeDef hal_status = HAL_OK;
 1293              		.loc 1 544 1 is_stmt 0 view .LVU296
 1294 0000 08B5     		push	{r3, lr}
 1295              	.LCFI27:
 1296              		.cfi_def_cfa_offset 8
 1297              		.cfi_offset 3, -8
 1298              		.cfi_offset 14, -4
 545:Src/usbd_conf.c ****   USBD_StatusTypeDef usb_status = USBD_OK;
 1299              		.loc 1 545 3 is_stmt 1 view .LVU297
 1300              	.LVL125:
 546:Src/usbd_conf.c **** 
 1301              		.loc 1 546 3 view .LVU298
 548:Src/usbd_conf.c **** 
 1302              		.loc 1 548 3 view .LVU299
 548:Src/usbd_conf.c **** 
 1303              		.loc 1 548 16 is_stmt 0 view .LVU300
 1304 0002 D0F8EC02 		ldr	r0, [r0, #748]
 1305              	.LVL126:
 548:Src/usbd_conf.c **** 
 1306              		.loc 1 548 16 view .LVU301
 1307 0006 FFF7FEFF 		bl	HAL_PCD_SetAddress
 1308              	.LVL127:
 550:Src/usbd_conf.c **** 
 1309              		.loc 1 550 3 is_stmt 1 view .LVU302
 550:Src/usbd_conf.c **** 
 1310              		.loc 1 550 17 is_stmt 0 view .LVU303
ARM GAS  C:\Users\ADMINI~1\AppData\Local\Temp\ccFRa6xA.s 			page 38


 1311 000a FFF7FEFF 		bl	USBD_Get_USB_Status
 1312              	.LVL128:
 552:Src/usbd_conf.c **** }
 1313              		.loc 1 552 3 is_stmt 1 view .LVU304
 553:Src/usbd_conf.c **** 
 1314              		.loc 1 553 1 is_stmt 0 view .LVU305
 1315 000e 08BD     		pop	{r3, pc}
 1316              		.cfi_endproc
 1317              	.LFE157:
 1319              		.section	.text.USBD_LL_Transmit,"ax",%progbits
 1320              		.align	1
 1321              		.global	USBD_LL_Transmit
 1322              		.syntax unified
 1323              		.thumb
 1324              		.thumb_func
 1326              	USBD_LL_Transmit:
 1327              	.LVL129:
 1328              	.LFB158:
 564:Src/usbd_conf.c ****   HAL_StatusTypeDef hal_status = HAL_OK;
 1329              		.loc 1 564 1 is_stmt 1 view -0
 1330              		.cfi_startproc
 1331              		@ args = 0, pretend = 0, frame = 0
 1332              		@ frame_needed = 0, uses_anonymous_args = 0
 564:Src/usbd_conf.c ****   HAL_StatusTypeDef hal_status = HAL_OK;
 1333              		.loc 1 564 1 is_stmt 0 view .LVU307
 1334 0000 08B5     		push	{r3, lr}
 1335              	.LCFI28:
 1336              		.cfi_def_cfa_offset 8
 1337              		.cfi_offset 3, -8
 1338              		.cfi_offset 14, -4
 565:Src/usbd_conf.c ****   USBD_StatusTypeDef usb_status = USBD_OK;
 1339              		.loc 1 565 3 is_stmt 1 view .LVU308
 1340              	.LVL130:
 566:Src/usbd_conf.c **** 
 1341              		.loc 1 566 3 view .LVU309
 568:Src/usbd_conf.c **** 
 1342              		.loc 1 568 3 view .LVU310
 568:Src/usbd_conf.c **** 
 1343              		.loc 1 568 16 is_stmt 0 view .LVU311
 1344 0002 D0F8EC02 		ldr	r0, [r0, #748]
 1345              	.LVL131:
 568:Src/usbd_conf.c **** 
 1346              		.loc 1 568 16 view .LVU312
 1347 0006 FFF7FEFF 		bl	HAL_PCD_EP_Transmit
 1348              	.LVL132:
 570:Src/usbd_conf.c **** 
 1349              		.loc 1 570 3 is_stmt 1 view .LVU313
 570:Src/usbd_conf.c **** 
 1350              		.loc 1 570 17 is_stmt 0 view .LVU314
 1351 000a FFF7FEFF 		bl	USBD_Get_USB_Status
 1352              	.LVL133:
 572:Src/usbd_conf.c **** }
 1353              		.loc 1 572 3 is_stmt 1 view .LVU315
 573:Src/usbd_conf.c **** 
 1354              		.loc 1 573 1 is_stmt 0 view .LVU316
 1355 000e 08BD     		pop	{r3, pc}
 1356              		.cfi_endproc
ARM GAS  C:\Users\ADMINI~1\AppData\Local\Temp\ccFRa6xA.s 			page 39


 1357              	.LFE158:
 1359              		.section	.text.USBD_LL_PrepareReceive,"ax",%progbits
 1360              		.align	1
 1361              		.global	USBD_LL_PrepareReceive
 1362              		.syntax unified
 1363              		.thumb
 1364              		.thumb_func
 1366              	USBD_LL_PrepareReceive:
 1367              	.LVL134:
 1368              	.LFB159:
 584:Src/usbd_conf.c ****   HAL_StatusTypeDef hal_status = HAL_OK;
 1369              		.loc 1 584 1 is_stmt 1 view -0
 1370              		.cfi_startproc
 1371              		@ args = 0, pretend = 0, frame = 0
 1372              		@ frame_needed = 0, uses_anonymous_args = 0
 584:Src/usbd_conf.c ****   HAL_StatusTypeDef hal_status = HAL_OK;
 1373              		.loc 1 584 1 is_stmt 0 view .LVU318
 1374 0000 08B5     		push	{r3, lr}
 1375              	.LCFI29:
 1376              		.cfi_def_cfa_offset 8
 1377              		.cfi_offset 3, -8
 1378              		.cfi_offset 14, -4
 585:Src/usbd_conf.c ****   USBD_StatusTypeDef usb_status = USBD_OK;
 1379              		.loc 1 585 3 is_stmt 1 view .LVU319
 1380              	.LVL135:
 586:Src/usbd_conf.c **** 
 1381              		.loc 1 586 3 view .LVU320
 588:Src/usbd_conf.c **** 
 1382              		.loc 1 588 3 view .LVU321
 588:Src/usbd_conf.c **** 
 1383              		.loc 1 588 16 is_stmt 0 view .LVU322
 1384 0002 D0F8EC02 		ldr	r0, [r0, #748]
 1385              	.LVL136:
 588:Src/usbd_conf.c **** 
 1386              		.loc 1 588 16 view .LVU323
 1387 0006 FFF7FEFF 		bl	HAL_PCD_EP_Receive
 1388              	.LVL137:
 590:Src/usbd_conf.c **** 
 1389              		.loc 1 590 3 is_stmt 1 view .LVU324
 590:Src/usbd_conf.c **** 
 1390              		.loc 1 590 17 is_stmt 0 view .LVU325
 1391 000a FFF7FEFF 		bl	USBD_Get_USB_Status
 1392              	.LVL138:
 592:Src/usbd_conf.c **** }
 1393              		.loc 1 592 3 is_stmt 1 view .LVU326
 593:Src/usbd_conf.c **** 
 1394              		.loc 1 593 1 is_stmt 0 view .LVU327
 1395 000e 08BD     		pop	{r3, pc}
 1396              		.cfi_endproc
 1397              	.LFE159:
 1399              		.global	hpcd_USB_OTG_FS
 1400              		.section	.bss.hpcd_USB_OTG_FS,"aw",%nobits
 1401              		.align	2
 1402              		.set	.LANCHOR0,. + 0
 1405              	hpcd_USB_OTG_FS:
 1406 0000 00000000 		.space	1292
 1406      00000000 
ARM GAS  C:\Users\ADMINI~1\AppData\Local\Temp\ccFRa6xA.s 			page 40


 1406      00000000 
 1406      00000000 
 1406      00000000 
 1407              		.section	.bss.mem.0,"aw",%nobits
 1408              		.align	2
 1409              		.set	.LANCHOR1,. + 0
 1412              	mem.0:
 1413 0000 00000000 		.space	544
 1413      00000000 
 1413      00000000 
 1413      00000000 
 1413      00000000 
 1414              		.text
 1415              	.Letext0:
 1416              		.file 2 "e:\\program files (x86)\\gnu arm embedded toolchain\\10 2021.10\\arm-none-eabi\\include\\
 1417              		.file 3 "e:\\program files (x86)\\gnu arm embedded toolchain\\10 2021.10\\arm-none-eabi\\include\\
 1418              		.file 4 "Drivers/CMSIS/Include/core_cm4.h"
 1419              		.file 5 "Drivers/CMSIS/Device/ST/STM32F4xx/Include/stm32f405xx.h"
 1420              		.file 6 "Drivers/CMSIS/Device/ST/STM32F4xx/Include/stm32f4xx.h"
 1421              		.file 7 "Drivers/STM32F4xx_HAL_Driver/Inc/stm32f4xx_hal_def.h"
 1422              		.file 8 "Drivers/STM32F4xx_HAL_Driver/Inc/stm32f4xx_hal_gpio.h"
 1423              		.file 9 "Drivers/STM32F4xx_HAL_Driver/Inc/stm32f4xx_ll_usb.h"
 1424              		.file 10 "Drivers/STM32F4xx_HAL_Driver/Inc/stm32f4xx_hal_pcd.h"
 1425              		.file 11 "Middlewares/ST/STM32_USB_Device_Library/Core/Inc/usbd_def.h"
 1426              		.file 12 "Drivers/STM32F4xx_HAL_Driver/Inc/stm32f4xx_hal.h"
 1427              		.file 13 "Drivers/STM32F4xx_HAL_Driver/Inc/stm32f4xx_hal_pcd_ex.h"
 1428              		.file 14 "Middlewares/ST/STM32_USB_Device_Library/Core/Inc/usbd_core.h"
 1429              		.file 15 "Drivers/STM32F4xx_HAL_Driver/Inc/stm32f4xx_hal_cortex.h"
ARM GAS  C:\Users\ADMINI~1\AppData\Local\Temp\ccFRa6xA.s 			page 41

