ARM GAS  C:\Users\ADMINI~1\AppData\Local\Temp\ccTOf8A1.s 			page 1


   1              		.cpu cortex-m4
   2              		.arch armv7e-m
   3              		.fpu fpv4-sp-d16
   4              		.eabi_attribute 27, 1
   5              		.eabi_attribute 28, 1
   6              		.eabi_attribute 20, 1
   7              		.eabi_attribute 21, 1
   8              		.eabi_attribute 23, 3
   9              		.eabi_attribute 24, 1
  10              		.eabi_attribute 25, 1
  11              		.eabi_attribute 26, 1
  12              		.eabi_attribute 30, 1
  13              		.eabi_attribute 34, 1
  14              		.eabi_attribute 18, 4
  15              		.file	"usbd_cdc_if.c"
  16              		.text
  17              	.Ltext0:
  18              		.cfi_sections	.debug_frame
  19              		.section	.text.CDC_DeInit_FS,"ax",%progbits
  20              		.align	1
  21              		.syntax unified
  22              		.thumb
  23              		.thumb_func
  25              	CDC_DeInit_FS:
  26              	.LFB135:
  27              		.file 1 "Src/usbd_cdc_if.c"
   1:Src/usbd_cdc_if.c **** /* USER CODE BEGIN Header */
   2:Src/usbd_cdc_if.c **** /**
   3:Src/usbd_cdc_if.c ****   ******************************************************************************
   4:Src/usbd_cdc_if.c ****   * @file           : usbd_cdc_if.c
   5:Src/usbd_cdc_if.c ****   * @version        : v1.0_Cube
   6:Src/usbd_cdc_if.c ****   * @brief          : Usb device for Virtual Com Port.
   7:Src/usbd_cdc_if.c ****   ******************************************************************************
   8:Src/usbd_cdc_if.c ****   * @attention
   9:Src/usbd_cdc_if.c ****   *
  10:Src/usbd_cdc_if.c ****   * Copyright (c) 2022 STMicroelectronics.
  11:Src/usbd_cdc_if.c ****   * All rights reserved.
  12:Src/usbd_cdc_if.c ****   *
  13:Src/usbd_cdc_if.c ****   * This software is licensed under terms that can be found in the LICENSE file
  14:Src/usbd_cdc_if.c ****   * in the root directory of this software component.
  15:Src/usbd_cdc_if.c ****   * If no LICENSE file comes with this software, it is provided AS-IS.
  16:Src/usbd_cdc_if.c ****   *
  17:Src/usbd_cdc_if.c ****   ******************************************************************************
  18:Src/usbd_cdc_if.c ****   */
  19:Src/usbd_cdc_if.c **** /* USER CODE END Header */
  20:Src/usbd_cdc_if.c **** 
  21:Src/usbd_cdc_if.c **** /* Includes ------------------------------------------------------------------*/
  22:Src/usbd_cdc_if.c **** #include "usbd_cdc_if.h"
  23:Src/usbd_cdc_if.c **** 
  24:Src/usbd_cdc_if.c **** /* USER CODE BEGIN INCLUDE */
  25:Src/usbd_cdc_if.c **** #include <stdio.h>
  26:Src/usbd_cdc_if.c **** /* USER CODE END INCLUDE */
  27:Src/usbd_cdc_if.c **** 
  28:Src/usbd_cdc_if.c **** /* Private typedef -----------------------------------------------------------*/
  29:Src/usbd_cdc_if.c **** /* Private define ------------------------------------------------------------*/
  30:Src/usbd_cdc_if.c **** /* Private macro -------------------------------------------------------------*/
  31:Src/usbd_cdc_if.c **** 
ARM GAS  C:\Users\ADMINI~1\AppData\Local\Temp\ccTOf8A1.s 			page 2


  32:Src/usbd_cdc_if.c **** /* USER CODE BEGIN PV */
  33:Src/usbd_cdc_if.c **** /* Private variables ---------------------------------------------------------*/
  34:Src/usbd_cdc_if.c **** 
  35:Src/usbd_cdc_if.c **** /* USER CODE END PV */
  36:Src/usbd_cdc_if.c **** 
  37:Src/usbd_cdc_if.c **** /** @addtogroup STM32_USB_OTG_DEVICE_LIBRARY
  38:Src/usbd_cdc_if.c ****   * @brief Usb device library.
  39:Src/usbd_cdc_if.c ****   * @{
  40:Src/usbd_cdc_if.c ****   */
  41:Src/usbd_cdc_if.c **** 
  42:Src/usbd_cdc_if.c **** /** @addtogroup USBD_CDC_IF
  43:Src/usbd_cdc_if.c ****   * @{
  44:Src/usbd_cdc_if.c ****   */
  45:Src/usbd_cdc_if.c **** 
  46:Src/usbd_cdc_if.c **** /** @defgroup USBD_CDC_IF_Private_TypesDefinitions USBD_CDC_IF_Private_TypesDefinitions
  47:Src/usbd_cdc_if.c ****   * @brief Private types.
  48:Src/usbd_cdc_if.c ****   * @{
  49:Src/usbd_cdc_if.c ****   */
  50:Src/usbd_cdc_if.c **** 
  51:Src/usbd_cdc_if.c **** /* USER CODE BEGIN PRIVATE_TYPES */
  52:Src/usbd_cdc_if.c **** 
  53:Src/usbd_cdc_if.c **** /* USER CODE END PRIVATE_TYPES */
  54:Src/usbd_cdc_if.c **** 
  55:Src/usbd_cdc_if.c **** /**
  56:Src/usbd_cdc_if.c ****   * @}
  57:Src/usbd_cdc_if.c ****   */
  58:Src/usbd_cdc_if.c **** 
  59:Src/usbd_cdc_if.c **** /** @defgroup USBD_CDC_IF_Private_Defines USBD_CDC_IF_Private_Defines
  60:Src/usbd_cdc_if.c ****   * @brief Private defines.
  61:Src/usbd_cdc_if.c ****   * @{
  62:Src/usbd_cdc_if.c ****   */
  63:Src/usbd_cdc_if.c **** 
  64:Src/usbd_cdc_if.c **** /* USER CODE BEGIN PRIVATE_DEFINES */
  65:Src/usbd_cdc_if.c **** /* USER CODE END PRIVATE_DEFINES */
  66:Src/usbd_cdc_if.c **** 
  67:Src/usbd_cdc_if.c **** /**
  68:Src/usbd_cdc_if.c ****   * @}
  69:Src/usbd_cdc_if.c ****   */
  70:Src/usbd_cdc_if.c **** 
  71:Src/usbd_cdc_if.c **** /** @defgroup USBD_CDC_IF_Private_Macros USBD_CDC_IF_Private_Macros
  72:Src/usbd_cdc_if.c ****   * @brief Private macros.
  73:Src/usbd_cdc_if.c ****   * @{
  74:Src/usbd_cdc_if.c ****   */
  75:Src/usbd_cdc_if.c **** 
  76:Src/usbd_cdc_if.c **** /* USER CODE BEGIN PRIVATE_MACRO */
  77:Src/usbd_cdc_if.c **** 
  78:Src/usbd_cdc_if.c **** /* USER CODE END PRIVATE_MACRO */
  79:Src/usbd_cdc_if.c **** 
  80:Src/usbd_cdc_if.c **** /**
  81:Src/usbd_cdc_if.c ****   * @}
  82:Src/usbd_cdc_if.c ****   */
  83:Src/usbd_cdc_if.c **** 
  84:Src/usbd_cdc_if.c **** /** @defgroup USBD_CDC_IF_Private_Variables USBD_CDC_IF_Private_Variables
  85:Src/usbd_cdc_if.c ****   * @brief Private variables.
  86:Src/usbd_cdc_if.c ****   * @{
  87:Src/usbd_cdc_if.c ****   */
  88:Src/usbd_cdc_if.c **** /* Create buffer for reception and transmission           */
ARM GAS  C:\Users\ADMINI~1\AppData\Local\Temp\ccTOf8A1.s 			page 3


  89:Src/usbd_cdc_if.c **** /* It's up to user to redefine and/or remove those define */
  90:Src/usbd_cdc_if.c **** /** Received data over USB are stored in this buffer      */
  91:Src/usbd_cdc_if.c **** uint8_t UserRxBufferFS[APP_RX_DATA_SIZE];
  92:Src/usbd_cdc_if.c **** 
  93:Src/usbd_cdc_if.c **** /** Data to send over USB CDC are stored in this buffer   */
  94:Src/usbd_cdc_if.c **** uint8_t UserTxBufferFS[APP_TX_DATA_SIZE];
  95:Src/usbd_cdc_if.c **** 
  96:Src/usbd_cdc_if.c **** /* USER CODE BEGIN PRIVATE_VARIABLES */
  97:Src/usbd_cdc_if.c **** 
  98:Src/usbd_cdc_if.c **** /* USER CODE END PRIVATE_VARIABLES */
  99:Src/usbd_cdc_if.c **** 
 100:Src/usbd_cdc_if.c **** /**
 101:Src/usbd_cdc_if.c ****   * @}
 102:Src/usbd_cdc_if.c ****   */
 103:Src/usbd_cdc_if.c **** 
 104:Src/usbd_cdc_if.c **** /** @defgroup USBD_CDC_IF_Exported_Variables USBD_CDC_IF_Exported_Variables
 105:Src/usbd_cdc_if.c ****   * @brief Public variables.
 106:Src/usbd_cdc_if.c ****   * @{
 107:Src/usbd_cdc_if.c ****   */
 108:Src/usbd_cdc_if.c **** 
 109:Src/usbd_cdc_if.c **** extern USBD_HandleTypeDef hUsbDeviceFS;
 110:Src/usbd_cdc_if.c **** 
 111:Src/usbd_cdc_if.c **** /* USER CODE BEGIN EXPORTED_VARIABLES */
 112:Src/usbd_cdc_if.c **** 
 113:Src/usbd_cdc_if.c **** /* USER CODE END EXPORTED_VARIABLES */
 114:Src/usbd_cdc_if.c **** 
 115:Src/usbd_cdc_if.c **** /**
 116:Src/usbd_cdc_if.c ****   * @}
 117:Src/usbd_cdc_if.c ****   */
 118:Src/usbd_cdc_if.c **** 
 119:Src/usbd_cdc_if.c **** /** @defgroup USBD_CDC_IF_Private_FunctionPrototypes USBD_CDC_IF_Private_FunctionPrototypes
 120:Src/usbd_cdc_if.c ****   * @brief Private functions declaration.
 121:Src/usbd_cdc_if.c ****   * @{
 122:Src/usbd_cdc_if.c ****   */
 123:Src/usbd_cdc_if.c **** 
 124:Src/usbd_cdc_if.c **** static int8_t CDC_Init_FS(void);
 125:Src/usbd_cdc_if.c **** static int8_t CDC_DeInit_FS(void);
 126:Src/usbd_cdc_if.c **** static int8_t CDC_Control_FS(uint8_t cmd, uint8_t* pbuf, uint16_t length);
 127:Src/usbd_cdc_if.c **** static int8_t CDC_Receive_FS(uint8_t* pbuf, uint32_t *Len);
 128:Src/usbd_cdc_if.c **** static int8_t CDC_TransmitCplt_FS(uint8_t *pbuf, uint32_t *Len, uint8_t epnum);
 129:Src/usbd_cdc_if.c **** 
 130:Src/usbd_cdc_if.c **** /* USER CODE BEGIN PRIVATE_FUNCTIONS_DECLARATION */
 131:Src/usbd_cdc_if.c **** 
 132:Src/usbd_cdc_if.c **** /* USER CODE END PRIVATE_FUNCTIONS_DECLARATION */
 133:Src/usbd_cdc_if.c **** 
 134:Src/usbd_cdc_if.c **** /**
 135:Src/usbd_cdc_if.c ****   * @}
 136:Src/usbd_cdc_if.c ****   */
 137:Src/usbd_cdc_if.c **** 
 138:Src/usbd_cdc_if.c **** USBD_CDC_ItfTypeDef USBD_Interface_fops_FS =
 139:Src/usbd_cdc_if.c **** {
 140:Src/usbd_cdc_if.c ****   CDC_Init_FS,
 141:Src/usbd_cdc_if.c ****   CDC_DeInit_FS,
 142:Src/usbd_cdc_if.c ****   CDC_Control_FS,
 143:Src/usbd_cdc_if.c ****   CDC_Receive_FS,
 144:Src/usbd_cdc_if.c ****   CDC_TransmitCplt_FS
 145:Src/usbd_cdc_if.c **** };
ARM GAS  C:\Users\ADMINI~1\AppData\Local\Temp\ccTOf8A1.s 			page 4


 146:Src/usbd_cdc_if.c **** 
 147:Src/usbd_cdc_if.c **** /* Private functions ---------------------------------------------------------*/
 148:Src/usbd_cdc_if.c **** /**
 149:Src/usbd_cdc_if.c ****   * @brief  Initializes the CDC media low layer over the FS USB IP
 150:Src/usbd_cdc_if.c ****   * @retval USBD_OK if all operations are OK else USBD_FAIL
 151:Src/usbd_cdc_if.c ****   */
 152:Src/usbd_cdc_if.c **** static int8_t CDC_Init_FS(void)
 153:Src/usbd_cdc_if.c **** {
 154:Src/usbd_cdc_if.c ****   /* USER CODE BEGIN 3 */
 155:Src/usbd_cdc_if.c ****   /* Set Application Buffers */
 156:Src/usbd_cdc_if.c ****   USBD_CDC_SetTxBuffer(&hUsbDeviceFS, UserTxBufferFS, 0);
 157:Src/usbd_cdc_if.c ****   USBD_CDC_SetRxBuffer(&hUsbDeviceFS, UserRxBufferFS);
 158:Src/usbd_cdc_if.c ****   return (USBD_OK);
 159:Src/usbd_cdc_if.c ****   /* USER CODE END 3 */
 160:Src/usbd_cdc_if.c **** }
 161:Src/usbd_cdc_if.c **** 
 162:Src/usbd_cdc_if.c **** /**
 163:Src/usbd_cdc_if.c ****   * @brief  DeInitializes the CDC media low layer
 164:Src/usbd_cdc_if.c ****   * @retval USBD_OK if all operations are OK else USBD_FAIL
 165:Src/usbd_cdc_if.c ****   */
 166:Src/usbd_cdc_if.c **** static int8_t CDC_DeInit_FS(void)
 167:Src/usbd_cdc_if.c **** {
  28              		.loc 1 167 1 view -0
  29              		.cfi_startproc
  30              		@ args = 0, pretend = 0, frame = 0
  31              		@ frame_needed = 0, uses_anonymous_args = 0
  32              		@ link register save eliminated.
 168:Src/usbd_cdc_if.c ****   /* USER CODE BEGIN 4 */
 169:Src/usbd_cdc_if.c ****   return (USBD_OK);
  33              		.loc 1 169 3 view .LVU1
 170:Src/usbd_cdc_if.c ****   /* USER CODE END 4 */
 171:Src/usbd_cdc_if.c **** }
  34              		.loc 1 171 1 is_stmt 0 view .LVU2
  35 0000 0020     		movs	r0, #0
  36 0002 7047     		bx	lr
  37              		.cfi_endproc
  38              	.LFE135:
  40              		.section	.text.CDC_Control_FS,"ax",%progbits
  41              		.align	1
  42              		.syntax unified
  43              		.thumb
  44              		.thumb_func
  46              	CDC_Control_FS:
  47              	.LVL0:
  48              	.LFB136:
 172:Src/usbd_cdc_if.c **** 
 173:Src/usbd_cdc_if.c **** /**
 174:Src/usbd_cdc_if.c ****   * @brief  Manage the CDC class requests
 175:Src/usbd_cdc_if.c ****   * @param  cmd: Command code
 176:Src/usbd_cdc_if.c ****   * @param  pbuf: Buffer containing command data (request parameters)
 177:Src/usbd_cdc_if.c ****   * @param  length: Number of data to be sent (in bytes)
 178:Src/usbd_cdc_if.c ****   * @retval Result of the operation: USBD_OK if all operations are OK else USBD_FAIL
 179:Src/usbd_cdc_if.c ****   */
 180:Src/usbd_cdc_if.c **** static int8_t CDC_Control_FS(uint8_t cmd, uint8_t* pbuf, uint16_t length)
 181:Src/usbd_cdc_if.c **** {
  49              		.loc 1 181 1 is_stmt 1 view -0
  50              		.cfi_startproc
ARM GAS  C:\Users\ADMINI~1\AppData\Local\Temp\ccTOf8A1.s 			page 5


  51              		@ args = 0, pretend = 0, frame = 0
  52              		@ frame_needed = 0, uses_anonymous_args = 0
  53              		@ link register save eliminated.
 182:Src/usbd_cdc_if.c ****   /* USER CODE BEGIN 5 */
 183:Src/usbd_cdc_if.c ****   switch(cmd)
  54              		.loc 1 183 3 view .LVU4
 184:Src/usbd_cdc_if.c ****   {
 185:Src/usbd_cdc_if.c ****     case CDC_SEND_ENCAPSULATED_COMMAND:
 186:Src/usbd_cdc_if.c **** 
 187:Src/usbd_cdc_if.c ****     break;
 188:Src/usbd_cdc_if.c **** 
 189:Src/usbd_cdc_if.c ****     case CDC_GET_ENCAPSULATED_RESPONSE:
 190:Src/usbd_cdc_if.c **** 
 191:Src/usbd_cdc_if.c ****     break;
 192:Src/usbd_cdc_if.c **** 
 193:Src/usbd_cdc_if.c ****     case CDC_SET_COMM_FEATURE:
 194:Src/usbd_cdc_if.c **** 
 195:Src/usbd_cdc_if.c ****     break;
 196:Src/usbd_cdc_if.c **** 
 197:Src/usbd_cdc_if.c ****     case CDC_GET_COMM_FEATURE:
 198:Src/usbd_cdc_if.c **** 
 199:Src/usbd_cdc_if.c ****     break;
 200:Src/usbd_cdc_if.c **** 
 201:Src/usbd_cdc_if.c ****     case CDC_CLEAR_COMM_FEATURE:
 202:Src/usbd_cdc_if.c **** 
 203:Src/usbd_cdc_if.c ****     break;
 204:Src/usbd_cdc_if.c **** 
 205:Src/usbd_cdc_if.c ****   /*******************************************************************************/
 206:Src/usbd_cdc_if.c ****   /* Line Coding Structure                                                       */
 207:Src/usbd_cdc_if.c ****   /*-----------------------------------------------------------------------------*/
 208:Src/usbd_cdc_if.c ****   /* Offset | Field       | Size | Value  | Description                          */
 209:Src/usbd_cdc_if.c ****   /* 0      | dwDTERate   |   4  | Number |Data terminal rate, in bits per second*/
 210:Src/usbd_cdc_if.c ****   /* 4      | bCharFormat |   1  | Number | Stop bits                            */
 211:Src/usbd_cdc_if.c ****   /*                                        0 - 1 Stop bit                       */
 212:Src/usbd_cdc_if.c ****   /*                                        1 - 1.5 Stop bits                    */
 213:Src/usbd_cdc_if.c ****   /*                                        2 - 2 Stop bits                      */
 214:Src/usbd_cdc_if.c ****   /* 5      | bParityType |  1   | Number | Parity                               */
 215:Src/usbd_cdc_if.c ****   /*                                        0 - None                             */
 216:Src/usbd_cdc_if.c ****   /*                                        1 - Odd                              */
 217:Src/usbd_cdc_if.c ****   /*                                        2 - Even                             */
 218:Src/usbd_cdc_if.c ****   /*                                        3 - Mark                             */
 219:Src/usbd_cdc_if.c ****   /*                                        4 - Space                            */
 220:Src/usbd_cdc_if.c ****   /* 6      | bDataBits  |   1   | Number Data bits (5, 6, 7, 8 or 16).          */
 221:Src/usbd_cdc_if.c ****   /*******************************************************************************/
 222:Src/usbd_cdc_if.c ****     case CDC_SET_LINE_CODING:
 223:Src/usbd_cdc_if.c **** 
 224:Src/usbd_cdc_if.c ****     break;
 225:Src/usbd_cdc_if.c **** 
 226:Src/usbd_cdc_if.c ****     case CDC_GET_LINE_CODING:
 227:Src/usbd_cdc_if.c **** 
 228:Src/usbd_cdc_if.c ****     break;
 229:Src/usbd_cdc_if.c **** 
 230:Src/usbd_cdc_if.c ****     case CDC_SET_CONTROL_LINE_STATE:
 231:Src/usbd_cdc_if.c **** 
 232:Src/usbd_cdc_if.c ****     break;
 233:Src/usbd_cdc_if.c **** 
 234:Src/usbd_cdc_if.c ****     case CDC_SEND_BREAK:
ARM GAS  C:\Users\ADMINI~1\AppData\Local\Temp\ccTOf8A1.s 			page 6


 235:Src/usbd_cdc_if.c **** 
 236:Src/usbd_cdc_if.c ****     break;
 237:Src/usbd_cdc_if.c **** 
 238:Src/usbd_cdc_if.c ****   default:
 239:Src/usbd_cdc_if.c ****     break;
 240:Src/usbd_cdc_if.c ****   }
 241:Src/usbd_cdc_if.c **** 
 242:Src/usbd_cdc_if.c ****   return (USBD_OK);
  55              		.loc 1 242 3 view .LVU5
 243:Src/usbd_cdc_if.c ****   /* USER CODE END 5 */
 244:Src/usbd_cdc_if.c **** }
  56              		.loc 1 244 1 is_stmt 0 view .LVU6
  57 0000 0020     		movs	r0, #0
  58              	.LVL1:
  59              		.loc 1 244 1 view .LVU7
  60 0002 7047     		bx	lr
  61              		.cfi_endproc
  62              	.LFE136:
  64              		.section	.text.CDC_TransmitCplt_FS,"ax",%progbits
  65              		.align	1
  66              		.syntax unified
  67              		.thumb
  68              		.thumb_func
  70              	CDC_TransmitCplt_FS:
  71              	.LVL2:
  72              	.LFB139:
 245:Src/usbd_cdc_if.c **** 
 246:Src/usbd_cdc_if.c **** /**
 247:Src/usbd_cdc_if.c ****   * @brief  Data received over USB OUT endpoint are sent over CDC interface
 248:Src/usbd_cdc_if.c ****   *         through this function.
 249:Src/usbd_cdc_if.c ****   *
 250:Src/usbd_cdc_if.c ****   *         @note
 251:Src/usbd_cdc_if.c ****   *         This function will issue a NAK packet on any OUT packet received on
 252:Src/usbd_cdc_if.c ****   *         USB endpoint until exiting this function. If you exit this function
 253:Src/usbd_cdc_if.c ****   *         before transfer is complete on CDC interface (ie. using DMA controller)
 254:Src/usbd_cdc_if.c ****   *         it will result in receiving more data while previous ones are still
 255:Src/usbd_cdc_if.c ****   *         not sent.
 256:Src/usbd_cdc_if.c ****   *
 257:Src/usbd_cdc_if.c ****   * @param  Buf: Buffer of data to be received
 258:Src/usbd_cdc_if.c ****   * @param  Len: Number of data received (in bytes)
 259:Src/usbd_cdc_if.c ****   * @retval Result of the operation: USBD_OK if all operations are OK else USBD_FAIL
 260:Src/usbd_cdc_if.c ****   */
 261:Src/usbd_cdc_if.c **** static int8_t CDC_Receive_FS(uint8_t* Buf, uint32_t *Len)
 262:Src/usbd_cdc_if.c **** {
 263:Src/usbd_cdc_if.c ****   /* USER CODE BEGIN 6 */
 264:Src/usbd_cdc_if.c ****   int i;
 265:Src/usbd_cdc_if.c ****   for(i=0 ; i<*Len; i++)
 266:Src/usbd_cdc_if.c ****     printf("%.2x ",Buf[i]);
 267:Src/usbd_cdc_if.c ****   printf("\r\n");
 268:Src/usbd_cdc_if.c ****   USBD_CDC_SetRxBuffer(&hUsbDeviceFS, &Buf[0]);
 269:Src/usbd_cdc_if.c ****   USBD_CDC_ReceivePacket(&hUsbDeviceFS);
 270:Src/usbd_cdc_if.c ****   return (USBD_OK);
 271:Src/usbd_cdc_if.c ****   /* USER CODE END 6 */
 272:Src/usbd_cdc_if.c **** }
 273:Src/usbd_cdc_if.c **** 
 274:Src/usbd_cdc_if.c **** /**
 275:Src/usbd_cdc_if.c ****   * @brief  CDC_Transmit_FS
ARM GAS  C:\Users\ADMINI~1\AppData\Local\Temp\ccTOf8A1.s 			page 7


 276:Src/usbd_cdc_if.c ****   *         Data to send over USB IN endpoint are sent over CDC interface
 277:Src/usbd_cdc_if.c ****   *         through this function.
 278:Src/usbd_cdc_if.c ****   *         @note
 279:Src/usbd_cdc_if.c ****   *
 280:Src/usbd_cdc_if.c ****   *
 281:Src/usbd_cdc_if.c ****   * @param  Buf: Buffer of data to be sent
 282:Src/usbd_cdc_if.c ****   * @param  Len: Number of data to be sent (in bytes)
 283:Src/usbd_cdc_if.c ****   * @retval USBD_OK if all operations are OK else USBD_FAIL or USBD_BUSY
 284:Src/usbd_cdc_if.c ****   */
 285:Src/usbd_cdc_if.c **** uint8_t CDC_Transmit_FS(uint8_t* Buf, uint16_t Len)
 286:Src/usbd_cdc_if.c **** {
 287:Src/usbd_cdc_if.c ****   uint8_t result = USBD_OK;
 288:Src/usbd_cdc_if.c ****   /* USER CODE BEGIN 7 */
 289:Src/usbd_cdc_if.c ****   USBD_CDC_HandleTypeDef *hcdc = (USBD_CDC_HandleTypeDef*)hUsbDeviceFS.pClassData;
 290:Src/usbd_cdc_if.c ****   if (hcdc->TxState != 0){
 291:Src/usbd_cdc_if.c ****     return USBD_BUSY;
 292:Src/usbd_cdc_if.c ****   }
 293:Src/usbd_cdc_if.c ****   USBD_CDC_SetTxBuffer(&hUsbDeviceFS, Buf, Len);
 294:Src/usbd_cdc_if.c ****   result = USBD_CDC_TransmitPacket(&hUsbDeviceFS);
 295:Src/usbd_cdc_if.c ****   /* USER CODE END 7 */
 296:Src/usbd_cdc_if.c ****   return result;
 297:Src/usbd_cdc_if.c **** }
 298:Src/usbd_cdc_if.c **** 
 299:Src/usbd_cdc_if.c **** /**
 300:Src/usbd_cdc_if.c ****   * @brief  CDC_TransmitCplt_FS
 301:Src/usbd_cdc_if.c ****   *         Data transmitted callback
 302:Src/usbd_cdc_if.c ****   *
 303:Src/usbd_cdc_if.c ****   *         @note
 304:Src/usbd_cdc_if.c ****   *         This function is IN transfer complete callback used to inform user that
 305:Src/usbd_cdc_if.c ****   *         the submitted Data is successfully sent over USB.
 306:Src/usbd_cdc_if.c ****   *
 307:Src/usbd_cdc_if.c ****   * @param  Buf: Buffer of data to be received
 308:Src/usbd_cdc_if.c ****   * @param  Len: Number of data received (in bytes)
 309:Src/usbd_cdc_if.c ****   * @retval Result of the operation: USBD_OK if all operations are OK else USBD_FAIL
 310:Src/usbd_cdc_if.c ****   */
 311:Src/usbd_cdc_if.c **** static int8_t CDC_TransmitCplt_FS(uint8_t *Buf, uint32_t *Len, uint8_t epnum)
 312:Src/usbd_cdc_if.c **** {
  73              		.loc 1 312 1 is_stmt 1 view -0
  74              		.cfi_startproc
  75              		@ args = 0, pretend = 0, frame = 0
  76              		@ frame_needed = 0, uses_anonymous_args = 0
  77              		@ link register save eliminated.
 313:Src/usbd_cdc_if.c ****   uint8_t result = USBD_OK;
  78              		.loc 1 313 3 view .LVU9
 314:Src/usbd_cdc_if.c ****   /* USER CODE BEGIN 13 */
 315:Src/usbd_cdc_if.c ****   UNUSED(Buf);
  79              		.loc 1 315 3 view .LVU10
 316:Src/usbd_cdc_if.c ****   UNUSED(Len);
  80              		.loc 1 316 3 view .LVU11
 317:Src/usbd_cdc_if.c ****   UNUSED(epnum);
  81              		.loc 1 317 3 view .LVU12
 318:Src/usbd_cdc_if.c ****   /* USER CODE END 13 */
 319:Src/usbd_cdc_if.c ****   return result;
  82              		.loc 1 319 3 view .LVU13
 320:Src/usbd_cdc_if.c **** }
  83              		.loc 1 320 1 is_stmt 0 view .LVU14
  84 0000 0020     		movs	r0, #0
ARM GAS  C:\Users\ADMINI~1\AppData\Local\Temp\ccTOf8A1.s 			page 8


  85              	.LVL3:
  86              		.loc 1 320 1 view .LVU15
  87 0002 7047     		bx	lr
  88              		.cfi_endproc
  89              	.LFE139:
  91              		.section	.rodata.CDC_Receive_FS.str1.4,"aMS",%progbits,1
  92              		.align	2
  93              	.LC0:
  94 0000 252E3278 		.ascii	"%.2x \000"
  94      2000
  95 0006 0000     		.align	2
  96              	.LC1:
  97 0008 0D00     		.ascii	"\015\000"
  98              		.section	.text.CDC_Receive_FS,"ax",%progbits
  99              		.align	1
 100              		.syntax unified
 101              		.thumb
 102              		.thumb_func
 104              	CDC_Receive_FS:
 105              	.LVL4:
 106              	.LFB137:
 262:Src/usbd_cdc_if.c ****   /* USER CODE BEGIN 6 */
 107              		.loc 1 262 1 is_stmt 1 view -0
 108              		.cfi_startproc
 109              		@ args = 0, pretend = 0, frame = 0
 110              		@ frame_needed = 0, uses_anonymous_args = 0
 262:Src/usbd_cdc_if.c ****   /* USER CODE BEGIN 6 */
 111              		.loc 1 262 1 is_stmt 0 view .LVU17
 112 0000 70B5     		push	{r4, r5, r6, lr}
 113              	.LCFI0:
 114              		.cfi_def_cfa_offset 16
 115              		.cfi_offset 4, -16
 116              		.cfi_offset 5, -12
 117              		.cfi_offset 6, -8
 118              		.cfi_offset 14, -4
 119 0002 0546     		mov	r5, r0
 120 0004 0E46     		mov	r6, r1
 264:Src/usbd_cdc_if.c ****   for(i=0 ; i<*Len; i++)
 121              		.loc 1 264 3 is_stmt 1 view .LVU18
 265:Src/usbd_cdc_if.c ****     printf("%.2x ",Buf[i]);
 122              		.loc 1 265 3 view .LVU19
 123              	.LVL5:
 265:Src/usbd_cdc_if.c ****     printf("%.2x ",Buf[i]);
 124              		.loc 1 265 8 is_stmt 0 view .LVU20
 125 0006 0024     		movs	r4, #0
 265:Src/usbd_cdc_if.c ****     printf("%.2x ",Buf[i]);
 126              		.loc 1 265 3 view .LVU21
 127 0008 04E0     		b	.L5
 128              	.LVL6:
 129              	.L6:
 266:Src/usbd_cdc_if.c ****   printf("\r\n");
 130              		.loc 1 266 5 is_stmt 1 discriminator 3 view .LVU22
 131 000a 295D     		ldrb	r1, [r5, r4]	@ zero_extendqisi2
 132 000c 0948     		ldr	r0, .L8
 133 000e FFF7FEFF 		bl	printf
 134              	.LVL7:
 265:Src/usbd_cdc_if.c ****     printf("%.2x ",Buf[i]);
ARM GAS  C:\Users\ADMINI~1\AppData\Local\Temp\ccTOf8A1.s 			page 9


 135              		.loc 1 265 21 discriminator 3 view .LVU23
 265:Src/usbd_cdc_if.c ****     printf("%.2x ",Buf[i]);
 136              		.loc 1 265 22 is_stmt 0 discriminator 3 view .LVU24
 137 0012 0134     		adds	r4, r4, #1
 138              	.LVL8:
 139              	.L5:
 265:Src/usbd_cdc_if.c ****     printf("%.2x ",Buf[i]);
 140              		.loc 1 265 13 is_stmt 1 discriminator 1 view .LVU25
 265:Src/usbd_cdc_if.c ****     printf("%.2x ",Buf[i]);
 141              		.loc 1 265 15 is_stmt 0 discriminator 1 view .LVU26
 142 0014 3368     		ldr	r3, [r6]
 265:Src/usbd_cdc_if.c ****     printf("%.2x ",Buf[i]);
 143              		.loc 1 265 3 discriminator 1 view .LVU27
 144 0016 A342     		cmp	r3, r4
 145 0018 F7D8     		bhi	.L6
 267:Src/usbd_cdc_if.c ****   USBD_CDC_SetRxBuffer(&hUsbDeviceFS, &Buf[0]);
 146              		.loc 1 267 3 is_stmt 1 view .LVU28
 147 001a 0748     		ldr	r0, .L8+4
 148 001c FFF7FEFF 		bl	puts
 149              	.LVL9:
 268:Src/usbd_cdc_if.c ****   USBD_CDC_ReceivePacket(&hUsbDeviceFS);
 150              		.loc 1 268 3 view .LVU29
 151 0020 064C     		ldr	r4, .L8+8
 152              	.LVL10:
 268:Src/usbd_cdc_if.c ****   USBD_CDC_ReceivePacket(&hUsbDeviceFS);
 153              		.loc 1 268 3 is_stmt 0 view .LVU30
 154 0022 2946     		mov	r1, r5
 155 0024 2046     		mov	r0, r4
 156 0026 FFF7FEFF 		bl	USBD_CDC_SetRxBuffer
 157              	.LVL11:
 269:Src/usbd_cdc_if.c ****   return (USBD_OK);
 158              		.loc 1 269 3 is_stmt 1 view .LVU31
 159 002a 2046     		mov	r0, r4
 160 002c FFF7FEFF 		bl	USBD_CDC_ReceivePacket
 161              	.LVL12:
 270:Src/usbd_cdc_if.c ****   /* USER CODE END 6 */
 162              		.loc 1 270 3 view .LVU32
 272:Src/usbd_cdc_if.c **** 
 163              		.loc 1 272 1 is_stmt 0 view .LVU33
 164 0030 0020     		movs	r0, #0
 165 0032 70BD     		pop	{r4, r5, r6, pc}
 166              	.LVL13:
 167              	.L9:
 272:Src/usbd_cdc_if.c **** 
 168              		.loc 1 272 1 view .LVU34
 169              		.align	2
 170              	.L8:
 171 0034 00000000 		.word	.LC0
 172 0038 08000000 		.word	.LC1
 173 003c 00000000 		.word	hUsbDeviceFS
 174              		.cfi_endproc
 175              	.LFE137:
 177              		.section	.text.CDC_Init_FS,"ax",%progbits
 178              		.align	1
 179              		.syntax unified
 180              		.thumb
 181              		.thumb_func
ARM GAS  C:\Users\ADMINI~1\AppData\Local\Temp\ccTOf8A1.s 			page 10


 183              	CDC_Init_FS:
 184              	.LFB134:
 153:Src/usbd_cdc_if.c ****   /* USER CODE BEGIN 3 */
 185              		.loc 1 153 1 is_stmt 1 view -0
 186              		.cfi_startproc
 187              		@ args = 0, pretend = 0, frame = 0
 188              		@ frame_needed = 0, uses_anonymous_args = 0
 189 0000 10B5     		push	{r4, lr}
 190              	.LCFI1:
 191              		.cfi_def_cfa_offset 8
 192              		.cfi_offset 4, -8
 193              		.cfi_offset 14, -4
 156:Src/usbd_cdc_if.c ****   USBD_CDC_SetRxBuffer(&hUsbDeviceFS, UserRxBufferFS);
 194              		.loc 1 156 3 view .LVU36
 195 0002 064C     		ldr	r4, .L12
 196 0004 0022     		movs	r2, #0
 197 0006 0649     		ldr	r1, .L12+4
 198 0008 2046     		mov	r0, r4
 199 000a FFF7FEFF 		bl	USBD_CDC_SetTxBuffer
 200              	.LVL14:
 157:Src/usbd_cdc_if.c ****   return (USBD_OK);
 201              		.loc 1 157 3 view .LVU37
 202 000e 0549     		ldr	r1, .L12+8
 203 0010 2046     		mov	r0, r4
 204 0012 FFF7FEFF 		bl	USBD_CDC_SetRxBuffer
 205              	.LVL15:
 158:Src/usbd_cdc_if.c ****   /* USER CODE END 3 */
 206              		.loc 1 158 3 view .LVU38
 160:Src/usbd_cdc_if.c **** 
 207              		.loc 1 160 1 is_stmt 0 view .LVU39
 208 0016 0020     		movs	r0, #0
 209 0018 10BD     		pop	{r4, pc}
 210              	.L13:
 211 001a 00BF     		.align	2
 212              	.L12:
 213 001c 00000000 		.word	hUsbDeviceFS
 214 0020 00000000 		.word	.LANCHOR0
 215 0024 00000000 		.word	.LANCHOR1
 216              		.cfi_endproc
 217              	.LFE134:
 219              		.section	.text.CDC_Transmit_FS,"ax",%progbits
 220              		.align	1
 221              		.global	CDC_Transmit_FS
 222              		.syntax unified
 223              		.thumb
 224              		.thumb_func
 226              	CDC_Transmit_FS:
 227              	.LVL16:
 228              	.LFB138:
 286:Src/usbd_cdc_if.c ****   uint8_t result = USBD_OK;
 229              		.loc 1 286 1 is_stmt 1 view -0
 230              		.cfi_startproc
 231              		@ args = 0, pretend = 0, frame = 0
 232              		@ frame_needed = 0, uses_anonymous_args = 0
 287:Src/usbd_cdc_if.c ****   /* USER CODE BEGIN 7 */
 233              		.loc 1 287 3 view .LVU41
 289:Src/usbd_cdc_if.c ****   if (hcdc->TxState != 0){
ARM GAS  C:\Users\ADMINI~1\AppData\Local\Temp\ccTOf8A1.s 			page 11


 234              		.loc 1 289 3 view .LVU42
 289:Src/usbd_cdc_if.c ****   if (hcdc->TxState != 0){
 235              		.loc 1 289 27 is_stmt 0 view .LVU43
 236 0000 094B     		ldr	r3, .L22
 237 0002 D3F8C832 		ldr	r3, [r3, #712]
 238              	.LVL17:
 290:Src/usbd_cdc_if.c ****     return USBD_BUSY;
 239              		.loc 1 290 3 is_stmt 1 view .LVU44
 290:Src/usbd_cdc_if.c ****     return USBD_BUSY;
 240              		.loc 1 290 11 is_stmt 0 view .LVU45
 241 0006 D3F81432 		ldr	r3, [r3, #532]
 242              	.LVL18:
 290:Src/usbd_cdc_if.c ****     return USBD_BUSY;
 243              		.loc 1 290 6 view .LVU46
 244 000a 0BB1     		cbz	r3, .L21
 291:Src/usbd_cdc_if.c ****   }
 245              		.loc 1 291 12 view .LVU47
 246 000c 0120     		movs	r0, #1
 247              	.LVL19:
 297:Src/usbd_cdc_if.c **** 
 248              		.loc 1 297 1 view .LVU48
 249 000e 7047     		bx	lr
 250              	.LVL20:
 251              	.L21:
 286:Src/usbd_cdc_if.c ****   uint8_t result = USBD_OK;
 252              		.loc 1 286 1 view .LVU49
 253 0010 10B5     		push	{r4, lr}
 254              	.LCFI2:
 255              		.cfi_def_cfa_offset 8
 256              		.cfi_offset 4, -8
 257              		.cfi_offset 14, -4
 293:Src/usbd_cdc_if.c ****   result = USBD_CDC_TransmitPacket(&hUsbDeviceFS);
 258              		.loc 1 293 3 is_stmt 1 view .LVU50
 259 0012 054C     		ldr	r4, .L22
 260              	.LVL21:
 293:Src/usbd_cdc_if.c ****   result = USBD_CDC_TransmitPacket(&hUsbDeviceFS);
 261              		.loc 1 293 3 is_stmt 0 view .LVU51
 262 0014 0A46     		mov	r2, r1
 263 0016 0146     		mov	r1, r0
 264              	.LVL22:
 293:Src/usbd_cdc_if.c ****   result = USBD_CDC_TransmitPacket(&hUsbDeviceFS);
 265              		.loc 1 293 3 view .LVU52
 266 0018 2046     		mov	r0, r4
 267              	.LVL23:
 293:Src/usbd_cdc_if.c ****   result = USBD_CDC_TransmitPacket(&hUsbDeviceFS);
 268              		.loc 1 293 3 view .LVU53
 269 001a FFF7FEFF 		bl	USBD_CDC_SetTxBuffer
 270              	.LVL24:
 294:Src/usbd_cdc_if.c ****   /* USER CODE END 7 */
 271              		.loc 1 294 3 is_stmt 1 view .LVU54
 294:Src/usbd_cdc_if.c ****   /* USER CODE END 7 */
 272              		.loc 1 294 12 is_stmt 0 view .LVU55
 273 001e 2046     		mov	r0, r4
 274 0020 FFF7FEFF 		bl	USBD_CDC_TransmitPacket
 275              	.LVL25:
 296:Src/usbd_cdc_if.c **** }
 276              		.loc 1 296 3 is_stmt 1 view .LVU56
ARM GAS  C:\Users\ADMINI~1\AppData\Local\Temp\ccTOf8A1.s 			page 12


 297:Src/usbd_cdc_if.c **** 
 277              		.loc 1 297 1 is_stmt 0 view .LVU57
 278 0024 10BD     		pop	{r4, pc}
 279              	.L23:
 280 0026 00BF     		.align	2
 281              	.L22:
 282 0028 00000000 		.word	hUsbDeviceFS
 283              		.cfi_endproc
 284              	.LFE138:
 286              		.global	USBD_Interface_fops_FS
 287              		.global	UserTxBufferFS
 288              		.global	UserRxBufferFS
 289              		.section	.bss.UserRxBufferFS,"aw",%nobits
 290              		.align	2
 291              		.set	.LANCHOR1,. + 0
 294              	UserRxBufferFS:
 295 0000 00000000 		.space	2048
 295      00000000 
 295      00000000 
 295      00000000 
 295      00000000 
 296              		.section	.bss.UserTxBufferFS,"aw",%nobits
 297              		.align	2
 298              		.set	.LANCHOR0,. + 0
 301              	UserTxBufferFS:
 302 0000 00000000 		.space	2048
 302      00000000 
 302      00000000 
 302      00000000 
 302      00000000 
 303              		.section	.data.USBD_Interface_fops_FS,"aw"
 304              		.align	2
 307              	USBD_Interface_fops_FS:
 308 0000 00000000 		.word	CDC_Init_FS
 309 0004 00000000 		.word	CDC_DeInit_FS
 310 0008 00000000 		.word	CDC_Control_FS
 311 000c 00000000 		.word	CDC_Receive_FS
 312 0010 00000000 		.word	CDC_TransmitCplt_FS
 313              		.text
 314              	.Letext0:
 315              		.file 2 "e:\\program files (x86)\\gnu arm embedded toolchain\\10 2021.10\\arm-none-eabi\\include\\
 316              		.file 3 "e:\\program files (x86)\\gnu arm embedded toolchain\\10 2021.10\\arm-none-eabi\\include\\
 317              		.file 4 "Middlewares/ST/STM32_USB_Device_Library/Core/Inc/usbd_def.h"
 318              		.file 5 "Middlewares/ST/STM32_USB_Device_Library/Class/CDC/Inc/usbd_cdc.h"
 319              		.file 6 "Inc/usbd_cdc_if.h"
 320              		.file 7 "e:\\program files (x86)\\gnu arm embedded toolchain\\10 2021.10\\arm-none-eabi\\include\\
 321              		.file 8 "<built-in>"
ARM GAS  C:\Users\ADMINI~1\AppData\Local\Temp\ccTOf8A1.s 			page 13


DEFINED SYMBOLS
                            *ABS*:00000000 usbd_cdc_if.c
C:\Users\ADMINI~1\AppData\Local\Temp\ccTOf8A1.s:20     .text.CDC_DeInit_FS:00000000 $t
C:\Users\ADMINI~1\AppData\Local\Temp\ccTOf8A1.s:25     .text.CDC_DeInit_FS:00000000 CDC_DeInit_FS
C:\Users\ADMINI~1\AppData\Local\Temp\ccTOf8A1.s:41     .text.CDC_Control_FS:00000000 $t
C:\Users\ADMINI~1\AppData\Local\Temp\ccTOf8A1.s:46     .text.CDC_Control_FS:00000000 CDC_Control_FS
C:\Users\ADMINI~1\AppData\Local\Temp\ccTOf8A1.s:65     .text.CDC_TransmitCplt_FS:00000000 $t
C:\Users\ADMINI~1\AppData\Local\Temp\ccTOf8A1.s:70     .text.CDC_TransmitCplt_FS:00000000 CDC_TransmitCplt_FS
C:\Users\ADMINI~1\AppData\Local\Temp\ccTOf8A1.s:92     .rodata.CDC_Receive_FS.str1.4:00000000 $d
C:\Users\ADMINI~1\AppData\Local\Temp\ccTOf8A1.s:99     .text.CDC_Receive_FS:00000000 $t
C:\Users\ADMINI~1\AppData\Local\Temp\ccTOf8A1.s:104    .text.CDC_Receive_FS:00000000 CDC_Receive_FS
C:\Users\ADMINI~1\AppData\Local\Temp\ccTOf8A1.s:171    .text.CDC_Receive_FS:00000034 $d
C:\Users\ADMINI~1\AppData\Local\Temp\ccTOf8A1.s:178    .text.CDC_Init_FS:00000000 $t
C:\Users\ADMINI~1\AppData\Local\Temp\ccTOf8A1.s:183    .text.CDC_Init_FS:00000000 CDC_Init_FS
C:\Users\ADMINI~1\AppData\Local\Temp\ccTOf8A1.s:213    .text.CDC_Init_FS:0000001c $d
C:\Users\ADMINI~1\AppData\Local\Temp\ccTOf8A1.s:220    .text.CDC_Transmit_FS:00000000 $t
C:\Users\ADMINI~1\AppData\Local\Temp\ccTOf8A1.s:226    .text.CDC_Transmit_FS:00000000 CDC_Transmit_FS
C:\Users\ADMINI~1\AppData\Local\Temp\ccTOf8A1.s:282    .text.CDC_Transmit_FS:00000028 $d
C:\Users\ADMINI~1\AppData\Local\Temp\ccTOf8A1.s:307    .data.USBD_Interface_fops_FS:00000000 USBD_Interface_fops_FS
C:\Users\ADMINI~1\AppData\Local\Temp\ccTOf8A1.s:301    .bss.UserTxBufferFS:00000000 UserTxBufferFS
C:\Users\ADMINI~1\AppData\Local\Temp\ccTOf8A1.s:294    .bss.UserRxBufferFS:00000000 UserRxBufferFS
C:\Users\ADMINI~1\AppData\Local\Temp\ccTOf8A1.s:290    .bss.UserRxBufferFS:00000000 $d
C:\Users\ADMINI~1\AppData\Local\Temp\ccTOf8A1.s:297    .bss.UserTxBufferFS:00000000 $d
C:\Users\ADMINI~1\AppData\Local\Temp\ccTOf8A1.s:304    .data.USBD_Interface_fops_FS:00000000 $d

UNDEFINED SYMBOLS
printf
puts
USBD_CDC_SetRxBuffer
USBD_CDC_ReceivePacket
hUsbDeviceFS
USBD_CDC_SetTxBuffer
USBD_CDC_TransmitPacket
